
/Users/max/Documents/projects/Pico-Green-Clock/build/Pico-Clock-Green.elf:     file format elf32-littlearm

Sections:
Idx Name          Size      VMA       LMA       File off  Algn
  0 .boot2        00000100  10000000  10000000  00001000  2**0
                  CONTENTS, ALLOC, LOAD, READONLY, CODE
  1 .text         000091f8  10000100  10000100  00001100  2**3
                  CONTENTS, ALLOC, LOAD, READONLY, CODE
  2 .rodata       000018d8  100092f8  100092f8  0000a2f8  2**3
                  CONTENTS, ALLOC, LOAD, READONLY, DATA
  3 .binary_info  00000024  1000abd0  1000abd0  0000bbd0  2**2
                  CONTENTS, ALLOC, LOAD, DATA
  4 .ram_vector_table 000000c0  20000000  20000000  0000cf00  2**2
                  CONTENTS
  5 .data         00000e40  200000c0  1000abf4  0000c0c0  2**4
                  CONTENTS, ALLOC, LOAD, READONLY, CODE
  6 .uninitialized_data 00000000  20000f00  20000f00  0000cfc0  2**0
                  CONTENTS
  7 .scratch_x    00000000  20040000  20040000  0000cfc0  2**0
                  CONTENTS
  8 .scratch_y    00000000  20041000  20041000  0000cfc0  2**0
                  CONTENTS
  9 .bss          00001c7c  20000f00  20000f00  0000cf00  2**3
                  ALLOC
 10 .heap         00000800  20002b7c  20002b7c  0000cfc0  2**2
                  CONTENTS, READONLY
 11 .stack_dummy  00000800  20041000  20041000  0000d7c0  2**5
                  CONTENTS, READONLY
 12 .ARM.attributes 00000028  00000000  00000000  0000dfc0  2**0
                  CONTENTS, READONLY
 13 .comment      00000049  00000000  00000000  0000dfe8  2**0
                  CONTENTS, READONLY
 14 .debug_info   000200d0  00000000  00000000  0000e031  2**0
                  CONTENTS, READONLY, DEBUGGING, OCTETS
 15 .debug_abbrev 000052a4  00000000  00000000  0002e101  2**0
                  CONTENTS, READONLY, DEBUGGING, OCTETS
 16 .debug_loc    00013557  00000000  00000000  000333a5  2**0
                  CONTENTS, READONLY, DEBUGGING, OCTETS
 17 .debug_aranges 00001050  00000000  00000000  00046900  2**3
                  CONTENTS, READONLY, DEBUGGING, OCTETS
 18 .debug_ranges 00003ac0  00000000  00000000  00047950  2**3
                  CONTENTS, READONLY, DEBUGGING, OCTETS
 19 .debug_line   00015316  00000000  00000000  0004b410  2**0
                  CONTENTS, READONLY, DEBUGGING, OCTETS
 20 .debug_str    00004fd0  00000000  00000000  00060726  2**0
                  CONTENTS, READONLY, DEBUGGING, OCTETS
 21 .debug_frame  00002218  00000000  00000000  000656f8  2**2
                  CONTENTS, READONLY, DEBUGGING, OCTETS

/Users/max/Documents/projects/Pico-Green-Clock/build/Pico-Clock-Green.elf:     file format elf32-littlearm


Disassembly of section .boot2:

10000000 <__boot2_start__>:
10000000:	4b32b500 	.word	0x4b32b500
10000004:	60582021 	.word	0x60582021
10000008:	21026898 	.word	0x21026898
1000000c:	60984388 	.word	0x60984388
10000010:	611860d8 	.word	0x611860d8
10000014:	4b2e6158 	.word	0x4b2e6158
10000018:	60992100 	.word	0x60992100
1000001c:	61592102 	.word	0x61592102
10000020:	22f02101 	.word	0x22f02101
10000024:	492b5099 	.word	0x492b5099
10000028:	21016019 	.word	0x21016019
1000002c:	20356099 	.word	0x20356099
10000030:	f844f000 	.word	0xf844f000
10000034:	42902202 	.word	0x42902202
10000038:	2106d014 	.word	0x2106d014
1000003c:	f0006619 	.word	0xf0006619
10000040:	6e19f834 	.word	0x6e19f834
10000044:	66192101 	.word	0x66192101
10000048:	66182000 	.word	0x66182000
1000004c:	f000661a 	.word	0xf000661a
10000050:	6e19f82c 	.word	0x6e19f82c
10000054:	6e196e19 	.word	0x6e196e19
10000058:	f0002005 	.word	0xf0002005
1000005c:	2101f82f 	.word	0x2101f82f
10000060:	d1f94208 	.word	0xd1f94208
10000064:	60992100 	.word	0x60992100
10000068:	6019491b 	.word	0x6019491b
1000006c:	60592100 	.word	0x60592100
10000070:	481b491a 	.word	0x481b491a
10000074:	21016001 	.word	0x21016001
10000078:	21eb6099 	.word	0x21eb6099
1000007c:	21a06619 	.word	0x21a06619
10000080:	f0006619 	.word	0xf0006619
10000084:	2100f812 	.word	0x2100f812
10000088:	49166099 	.word	0x49166099
1000008c:	60014814 	.word	0x60014814
10000090:	60992101 	.word	0x60992101
10000094:	2800bc01 	.word	0x2800bc01
10000098:	4700d000 	.word	0x4700d000
1000009c:	49134812 	.word	0x49134812
100000a0:	c8036008 	.word	0xc8036008
100000a4:	8808f380 	.word	0x8808f380
100000a8:	b5034708 	.word	0xb5034708
100000ac:	20046a99 	.word	0x20046a99
100000b0:	d0fb4201 	.word	0xd0fb4201
100000b4:	42012001 	.word	0x42012001
100000b8:	bd03d1f8 	.word	0xbd03d1f8
100000bc:	6618b502 	.word	0x6618b502
100000c0:	f7ff6618 	.word	0xf7ff6618
100000c4:	6e18fff2 	.word	0x6e18fff2
100000c8:	bd026e18 	.word	0xbd026e18
100000cc:	40020000 	.word	0x40020000
100000d0:	18000000 	.word	0x18000000
100000d4:	00070000 	.word	0x00070000
100000d8:	005f0300 	.word	0x005f0300
100000dc:	00002221 	.word	0x00002221
100000e0:	180000f4 	.word	0x180000f4
100000e4:	a0002022 	.word	0xa0002022
100000e8:	10000100 	.word	0x10000100
100000ec:	e000ed08 	.word	0xe000ed08
	...
100000fc:	7a4eb274 	.word	0x7a4eb274

Disassembly of section .text:

10000100 <__VECTOR_TABLE>:
10000100:	20042000 	.word	0x20042000
10000104:	100001f7 	.word	0x100001f7
10000108:	100001c3 	.word	0x100001c3
1000010c:	100001c5 	.word	0x100001c5
10000110:	100001c1 	.word	0x100001c1
10000114:	100001c1 	.word	0x100001c1
10000118:	100001c1 	.word	0x100001c1
1000011c:	100001c1 	.word	0x100001c1
10000120:	100001c1 	.word	0x100001c1
10000124:	100001c1 	.word	0x100001c1
10000128:	100001c1 	.word	0x100001c1
1000012c:	100001c7 	.word	0x100001c7
10000130:	100001c1 	.word	0x100001c1
10000134:	100001c1 	.word	0x100001c1
10000138:	100001c9 	.word	0x100001c9
1000013c:	100001cb 	.word	0x100001cb
10000140:	100001cd 	.word	0x100001cd
10000144:	100001cd 	.word	0x100001cd
10000148:	100001cd 	.word	0x100001cd
1000014c:	100001cd 	.word	0x100001cd
10000150:	100001cd 	.word	0x100001cd
10000154:	100001cd 	.word	0x100001cd
10000158:	100001cd 	.word	0x100001cd
1000015c:	100001cd 	.word	0x100001cd
10000160:	100001cd 	.word	0x100001cd
10000164:	100001cd 	.word	0x100001cd
10000168:	100001cd 	.word	0x100001cd
1000016c:	100001cd 	.word	0x100001cd
10000170:	100001cd 	.word	0x100001cd
10000174:	100001cd 	.word	0x100001cd
10000178:	100001cd 	.word	0x100001cd
1000017c:	100001cd 	.word	0x100001cd
10000180:	100001cd 	.word	0x100001cd
10000184:	100001cd 	.word	0x100001cd
10000188:	100001cd 	.word	0x100001cd
1000018c:	100001cd 	.word	0x100001cd
10000190:	100001cd 	.word	0x100001cd
10000194:	100001cd 	.word	0x100001cd
10000198:	100001cd 	.word	0x100001cd
1000019c:	100001cd 	.word	0x100001cd
100001a0:	100001cd 	.word	0x100001cd
100001a4:	100001cd 	.word	0x100001cd
100001a8:	100001cd 	.word	0x100001cd
100001ac:	100001cd 	.word	0x100001cd
100001b0:	100001cd 	.word	0x100001cd
100001b4:	100001cd 	.word	0x100001cd
100001b8:	100001cd 	.word	0x100001cd
100001bc:	100001cd 	.word	0x100001cd

100001c0 <isr_invalid>:
100001c0:	be00      	bkpt	0x0000

100001c2 <isr_nmi>:
100001c2:	be00      	bkpt	0x0000

100001c4 <isr_hardfault>:
100001c4:	be00      	bkpt	0x0000

100001c6 <isr_svcall>:
100001c6:	be00      	bkpt	0x0000

100001c8 <isr_pendsv>:
100001c8:	be00      	bkpt	0x0000

100001ca <isr_systick>:
100001ca:	be00      	bkpt	0x0000

100001cc <__unhandled_user_irq>:
100001cc:	f000 f84b 	bl	10000266 <__get_current_exception>
100001d0:	3810      	subs	r0, #16

100001d2 <unhandled_user_irq_num_in_r0>:
100001d2:	be00      	bkpt	0x0000

100001d4 <binary_info_header>:
100001d4:	7188ebf2 	.word	0x7188ebf2
100001d8:	1000abd0 	.word	0x1000abd0
100001dc:	1000abf4 	.word	0x1000abf4
100001e0:	10000234 	.word	0x10000234
100001e4:	e71aa390 	.word	0xe71aa390

100001e8 <_entry_point>:
100001e8:	2000      	movs	r0, #0
100001ea:	4921      	ldr	r1, [pc, #132]	; (10000270 <__get_current_exception+0xa>)
100001ec:	6008      	str	r0, [r1, #0]
100001ee:	c806      	ldmia	r0!, {r1, r2}
100001f0:	f381 8808 	msr	MSP, r1
100001f4:	4710      	bx	r2

100001f6 <_reset_handler>:
100001f6:	481f      	ldr	r0, [pc, #124]	; (10000274 <__get_current_exception+0xe>)
100001f8:	6800      	ldr	r0, [r0, #0]
100001fa:	2800      	cmp	r0, #0
100001fc:	d12f      	bne.n	1000025e <hold_non_core0_in_bootrom>
100001fe:	a40d      	add	r4, pc, #52	; (adr r4, 10000234 <data_cpy_table>)
10000200:	cc0e      	ldmia	r4!, {r1, r2, r3}
10000202:	2900      	cmp	r1, #0
10000204:	d002      	beq.n	1000020c <_reset_handler+0x16>
10000206:	f000 f812 	bl	1000022e <data_cpy>
1000020a:	e7f9      	b.n	10000200 <_reset_handler+0xa>
1000020c:	491a      	ldr	r1, [pc, #104]	; (10000278 <__get_current_exception+0x12>)
1000020e:	4a1b      	ldr	r2, [pc, #108]	; (1000027c <__get_current_exception+0x16>)
10000210:	2000      	movs	r0, #0
10000212:	e000      	b.n	10000216 <bss_fill_test>

10000214 <bss_fill_loop>:
10000214:	c101      	stmia	r1!, {r0}

10000216 <bss_fill_test>:
10000216:	4291      	cmp	r1, r2
10000218:	d1fc      	bne.n	10000214 <bss_fill_loop>

1000021a <platform_entry>:
1000021a:	4919      	ldr	r1, [pc, #100]	; (10000280 <__get_current_exception+0x1a>)
1000021c:	4788      	blx	r1
1000021e:	4919      	ldr	r1, [pc, #100]	; (10000284 <__get_current_exception+0x1e>)
10000220:	4788      	blx	r1
10000222:	4919      	ldr	r1, [pc, #100]	; (10000288 <__get_current_exception+0x22>)
10000224:	4788      	blx	r1
10000226:	be00      	bkpt	0x0000
10000228:	e7fd      	b.n	10000226 <platform_entry+0xc>

1000022a <data_cpy_loop>:
1000022a:	c901      	ldmia	r1!, {r0}
1000022c:	c201      	stmia	r2!, {r0}

1000022e <data_cpy>:
1000022e:	429a      	cmp	r2, r3
10000230:	d3fb      	bcc.n	1000022a <data_cpy_loop>
10000232:	4770      	bx	lr

10000234 <data_cpy_table>:
10000234:	1000abf4 	.word	0x1000abf4
10000238:	200000c0 	.word	0x200000c0
1000023c:	20000f00 	.word	0x20000f00
10000240:	1000ba34 	.word	0x1000ba34
10000244:	20040000 	.word	0x20040000
10000248:	20040000 	.word	0x20040000
1000024c:	1000ba34 	.word	0x1000ba34
10000250:	20041000 	.word	0x20041000
10000254:	20041000 	.word	0x20041000
10000258:	00000000 	.word	0x00000000
1000025c:	4770      	bx	lr

1000025e <hold_non_core0_in_bootrom>:
1000025e:	480b      	ldr	r0, [pc, #44]	; (1000028c <__get_current_exception+0x26>)
10000260:	f007 fec4 	bl	10007fec <rom_func_lookup>
10000264:	4700      	bx	r0

10000266 <__get_current_exception>:
10000266:	f3ef 8005 	mrs	r0, IPSR
1000026a:	b2c0      	uxtb	r0, r0
1000026c:	4770      	bx	lr
1000026e:	0000      	.short	0x0000
10000270:	e000ed08 	.word	0xe000ed08
10000274:	d0000000 	.word	0xd0000000
10000278:	20000f00 	.word	0x20000f00
1000027c:	20002b7c 	.word	0x20002b7c
10000280:	100069bd 	.word	0x100069bd
10000284:	10003ed5 	.word	0x10003ed5
10000288:	10006979 	.word	0x10006979
1000028c:	00005657 	.word	0x00005657

10000290 <__bi_50>:
10000290:	50520006 5360b3ab 1000a960              ..RP..`S`...

1000029c <__bi_38>:
1000029c:	50520006 02031c86 1000a970              ..RP....p...

100002a8 <__bi_30>:
100002a8:	50520006 9da22254 1000a984              ..RPT"......

100002b4 <__bi_22>:
100002b4:	50520005 68f465de 1000ba34              ..RP.e.h4...

100002c0 <_init>:
100002c0:	b5f8      	push	{r3, r4, r5, r6, r7, lr}
100002c2:	46c0      	nop			; (mov r8, r8)

100002c4 <__do_global_dtors_aux>:
100002c4:	b510      	push	{r4, lr}
100002c6:	4c06      	ldr	r4, [pc, #24]	; (100002e0 <__do_global_dtors_aux+0x1c>)
100002c8:	7823      	ldrb	r3, [r4, #0]
100002ca:	2b00      	cmp	r3, #0
100002cc:	d107      	bne.n	100002de <__do_global_dtors_aux+0x1a>
100002ce:	4b05      	ldr	r3, [pc, #20]	; (100002e4 <__do_global_dtors_aux+0x20>)
100002d0:	2b00      	cmp	r3, #0
100002d2:	d002      	beq.n	100002da <__do_global_dtors_aux+0x16>
100002d4:	4804      	ldr	r0, [pc, #16]	; (100002e8 <__do_global_dtors_aux+0x24>)
100002d6:	e000      	b.n	100002da <__do_global_dtors_aux+0x16>
100002d8:	bf00      	nop
100002da:	2301      	movs	r3, #1
100002dc:	7023      	strb	r3, [r4, #0]
100002de:	bd10      	pop	{r4, pc}
100002e0:	20001028 	.word	0x20001028
100002e4:	00000000 	.word	0x00000000
100002e8:	100092f8 	.word	0x100092f8

100002ec <frame_dummy>:
100002ec:	4b04      	ldr	r3, [pc, #16]	; (10000300 <frame_dummy+0x14>)
100002ee:	b510      	push	{r4, lr}
100002f0:	2b00      	cmp	r3, #0
100002f2:	d003      	beq.n	100002fc <frame_dummy+0x10>
100002f4:	4903      	ldr	r1, [pc, #12]	; (10000304 <frame_dummy+0x18>)
100002f6:	4804      	ldr	r0, [pc, #16]	; (10000308 <frame_dummy+0x1c>)
100002f8:	e000      	b.n	100002fc <frame_dummy+0x10>
100002fa:	bf00      	nop
100002fc:	bd10      	pop	{r4, pc}
100002fe:	46c0      	nop			; (mov r8, r8)
10000300:	00000000 	.word	0x00000000
10000304:	2000102c 	.word	0x2000102c
10000308:	100092f8 	.word	0x100092f8

1000030c <add_repeating_timer_ms>:
1000030c:	b5f0      	push	{r4, r5, r6, r7, lr}
1000030e:	46c6      	mov	lr, r8
10000310:	b500      	push	{lr}
10000312:	b084      	sub	sp, #16
10000314:	0004      	movs	r4, r0
10000316:	000e      	movs	r6, r1
10000318:	0017      	movs	r7, r2
1000031a:	001d      	movs	r5, r3
1000031c:	f005 fcd8 	bl	10005cd0 <alarm_pool_get_default>
10000320:	4680      	mov	r8, r0
10000322:	17e1      	asrs	r1, r4, #31
10000324:	22fa      	movs	r2, #250	; 0xfa
10000326:	0092      	lsls	r2, r2, #2
10000328:	2300      	movs	r3, #0
1000032a:	0020      	movs	r0, r4
1000032c:	f008 fa58 	bl	100087e0 <__wrap___aeabi_lmul>
10000330:	0002      	movs	r2, r0
10000332:	000b      	movs	r3, r1
10000334:	9502      	str	r5, [sp, #8]
10000336:	9701      	str	r7, [sp, #4]
10000338:	9600      	str	r6, [sp, #0]
1000033a:	4640      	mov	r0, r8
1000033c:	f005 fe0e 	bl	10005f5c <alarm_pool_add_repeating_timer_us>
10000340:	b004      	add	sp, #16
10000342:	bc80      	pop	{r7}
10000344:	46b8      	mov	r8, r7
10000346:	bdf0      	pop	{r4, r5, r6, r7, pc}

10000348 <convert_h24_to_h12>:
10000348:	2800      	cmp	r0, #0
1000034a:	d009      	beq.n	10000360 <convert_h24_to_h12+0x18>
1000034c:	280c      	cmp	r0, #12
1000034e:	d00d      	beq.n	1000036c <convert_h24_to_h12+0x24>
10000350:	d911      	bls.n	10000376 <convert_h24_to_h12+0x2e>
10000352:	2300      	movs	r3, #0
10000354:	700b      	strb	r3, [r1, #0]
10000356:	33ff      	adds	r3, #255	; 0xff
10000358:	7013      	strb	r3, [r2, #0]
1000035a:	380c      	subs	r0, #12
1000035c:	b2c0      	uxtb	r0, r0
1000035e:	e004      	b.n	1000036a <convert_h24_to_h12+0x22>
10000360:	23ff      	movs	r3, #255	; 0xff
10000362:	700b      	strb	r3, [r1, #0]
10000364:	2300      	movs	r3, #0
10000366:	7013      	strb	r3, [r2, #0]
10000368:	300c      	adds	r0, #12
1000036a:	4770      	bx	lr
1000036c:	2300      	movs	r3, #0
1000036e:	700b      	strb	r3, [r1, #0]
10000370:	33ff      	adds	r3, #255	; 0xff
10000372:	7013      	strb	r3, [r2, #0]
10000374:	e7f9      	b.n	1000036a <convert_h24_to_h12+0x22>
10000376:	23ff      	movs	r3, #255	; 0xff
10000378:	700b      	strb	r3, [r1, #0]
1000037a:	2300      	movs	r3, #0
1000037c:	7013      	strb	r3, [r2, #0]
1000037e:	e7f4      	b.n	1000036a <convert_h24_to_h12+0x22>

10000380 <date_stamp>:
10000380:	b500      	push	{lr}
10000382:	b087      	sub	sp, #28
10000384:	4b10      	ldr	r3, [pc, #64]	; (100003c8 <date_stamp+0x48>)
10000386:	7819      	ldrb	r1, [r3, #0]
10000388:	004b      	lsls	r3, r1, #1
1000038a:	185b      	adds	r3, r3, r1
1000038c:	009b      	lsls	r3, r3, #2
1000038e:	185b      	adds	r3, r3, r1
10000390:	4a0e      	ldr	r2, [pc, #56]	; (100003cc <date_stamp+0x4c>)
10000392:	7812      	ldrb	r2, [r2, #0]
10000394:	189b      	adds	r3, r3, r2
10000396:	009b      	lsls	r3, r3, #2
10000398:	4a0d      	ldr	r2, [pc, #52]	; (100003d0 <date_stamp+0x50>)
1000039a:	189b      	adds	r3, r3, r2
1000039c:	4a0d      	ldr	r2, [pc, #52]	; (100003d4 <date_stamp+0x54>)
1000039e:	7812      	ldrb	r2, [r2, #0]
100003a0:	490d      	ldr	r1, [pc, #52]	; (100003d8 <date_stamp+0x58>)
100003a2:	7809      	ldrb	r1, [r1, #0]
100003a4:	9104      	str	r1, [sp, #16]
100003a6:	490d      	ldr	r1, [pc, #52]	; (100003dc <date_stamp+0x5c>)
100003a8:	7809      	ldrb	r1, [r1, #0]
100003aa:	9103      	str	r1, [sp, #12]
100003ac:	490c      	ldr	r1, [pc, #48]	; (100003e0 <date_stamp+0x60>)
100003ae:	7809      	ldrb	r1, [r1, #0]
100003b0:	9102      	str	r1, [sp, #8]
100003b2:	490c      	ldr	r1, [pc, #48]	; (100003e4 <date_stamp+0x64>)
100003b4:	7809      	ldrb	r1, [r1, #0]
100003b6:	9101      	str	r1, [sp, #4]
100003b8:	490b      	ldr	r1, [pc, #44]	; (100003e8 <date_stamp+0x68>)
100003ba:	7809      	ldrb	r1, [r1, #0]
100003bc:	9100      	str	r1, [sp, #0]
100003be:	490b      	ldr	r1, [pc, #44]	; (100003ec <date_stamp+0x6c>)
100003c0:	f007 fde8 	bl	10007f94 <__wrap_sprintf>
100003c4:	b007      	add	sp, #28
100003c6:	bd00      	pop	{pc}
100003c8:	20000771 	.word	0x20000771
100003cc:	20002b49 	.word	0x20002b49
100003d0:	20000940 	.word	0x20000940
100003d4:	20002b44 	.word	0x20002b44
100003d8:	20002b6a 	.word	0x20002b6a
100003dc:	20002b47 	.word	0x20002b47
100003e0:	20002b45 	.word	0x20002b45
100003e4:	20002b4a 	.word	0x20002b4a
100003e8:	20000664 	.word	0x20000664
100003ec:	100092f8 	.word	0x100092f8

100003f0 <evaluate_keyclick_start_time>:
100003f0:	4b09      	ldr	r3, [pc, #36]	; (10000418 <evaluate_keyclick_start_time+0x28>)
100003f2:	781b      	ldrb	r3, [r3, #0]
100003f4:	2bff      	cmp	r3, #255	; 0xff
100003f6:	d000      	beq.n	100003fa <evaluate_keyclick_start_time+0xa>
100003f8:	4770      	bx	lr
100003fa:	23d0      	movs	r3, #208	; 0xd0
100003fc:	061b      	lsls	r3, r3, #24
100003fe:	2280      	movs	r2, #128	; 0x80
10000400:	01d2      	lsls	r2, r2, #7
10000402:	615a      	str	r2, [r3, #20]
10000404:	4b05      	ldr	r3, [pc, #20]	; (1000041c <evaluate_keyclick_start_time+0x2c>)
10000406:	22ff      	movs	r2, #255	; 0xff
10000408:	701a      	strb	r2, [r3, #0]
1000040a:	4b05      	ldr	r3, [pc, #20]	; (10000420 <evaluate_keyclick_start_time+0x30>)
1000040c:	3afa      	subs	r2, #250	; 0xfa
1000040e:	701a      	strb	r2, [r3, #0]
10000410:	4b04      	ldr	r3, [pc, #16]	; (10000424 <evaluate_keyclick_start_time+0x34>)
10000412:	2200      	movs	r2, #0
10000414:	701a      	strb	r2, [r3, #0]
10000416:	e7ef      	b.n	100003f8 <evaluate_keyclick_start_time+0x8>
10000418:	20002b50 	.word	0x20002b50
1000041c:	20002b5b 	.word	0x20002b5b
10000420:	20002b76 	.word	0x20002b76
10000424:	20002b74 	.word	0x20002b74

10000428 <evaluate_sound_stop_time>:
10000428:	b510      	push	{r4, lr}
1000042a:	4bcf      	ldr	r3, [pc, #828]	; (10000768 <evaluate_sound_stop_time+0x340>)
1000042c:	881b      	ldrh	r3, [r3, #0]
1000042e:	2b00      	cmp	r3, #0
10000430:	d104      	bne.n	1000043c <evaluate_sound_stop_time+0x14>
10000432:	4bce      	ldr	r3, [pc, #824]	; (1000076c <evaluate_sound_stop_time+0x344>)
10000434:	781b      	ldrb	r3, [r3, #0]
10000436:	2bff      	cmp	r3, #255	; 0xff
10000438:	d004      	beq.n	10000444 <evaluate_sound_stop_time+0x1c>
1000043a:	bd10      	pop	{r4, pc}
1000043c:	3b01      	subs	r3, #1
1000043e:	4aca      	ldr	r2, [pc, #808]	; (10000768 <evaluate_sound_stop_time+0x340>)
10000440:	8013      	strh	r3, [r2, #0]
10000442:	e7fa      	b.n	1000043a <evaluate_sound_stop_time+0x12>
10000444:	4bca      	ldr	r3, [pc, #808]	; (10000770 <evaluate_sound_stop_time+0x348>)
10000446:	781a      	ldrb	r2, [r3, #0]
10000448:	3201      	adds	r2, #1
1000044a:	b2d2      	uxtb	r2, r2
1000044c:	701a      	strb	r2, [r3, #0]
1000044e:	4bc9      	ldr	r3, [pc, #804]	; (10000774 <evaluate_sound_stop_time+0x34c>)
10000450:	781b      	ldrb	r3, [r3, #0]
10000452:	2b01      	cmp	r3, #1
10000454:	d040      	beq.n	100004d8 <evaluate_sound_stop_time+0xb0>
10000456:	2b02      	cmp	r3, #2
10000458:	d07d      	beq.n	10000556 <evaluate_sound_stop_time+0x12e>
1000045a:	2b03      	cmp	r3, #3
1000045c:	d100      	bne.n	10000460 <evaluate_sound_stop_time+0x38>
1000045e:	e0bd      	b.n	100005dc <evaluate_sound_stop_time+0x1b4>
10000460:	2b04      	cmp	r3, #4
10000462:	d100      	bne.n	10000466 <evaluate_sound_stop_time+0x3e>
10000464:	e0fd      	b.n	10000662 <evaluate_sound_stop_time+0x23a>
10000466:	2b05      	cmp	r3, #5
10000468:	d100      	bne.n	1000046c <evaluate_sound_stop_time+0x44>
1000046a:	e13e      	b.n	100006ea <evaluate_sound_stop_time+0x2c2>
1000046c:	2b06      	cmp	r3, #6
1000046e:	d1e4      	bne.n	1000043a <evaluate_sound_stop_time+0x12>
10000470:	4bbf      	ldr	r3, [pc, #764]	; (10000770 <evaluate_sound_stop_time+0x348>)
10000472:	781b      	ldrb	r3, [r3, #0]
10000474:	2b3b      	cmp	r3, #59	; 0x3b
10000476:	d9e0      	bls.n	1000043a <evaluate_sound_stop_time+0x12>
10000478:	4bbf      	ldr	r3, [pc, #764]	; (10000778 <evaluate_sound_stop_time+0x350>)
1000047a:	781b      	ldrb	r3, [r3, #0]
1000047c:	2bff      	cmp	r3, #255	; 0xff
1000047e:	d100      	bne.n	10000482 <evaluate_sound_stop_time+0x5a>
10000480:	e184      	b.n	1000078c <evaluate_sound_stop_time+0x364>
10000482:	23d0      	movs	r3, #208	; 0xd0
10000484:	061b      	lsls	r3, r3, #24
10000486:	2280      	movs	r2, #128	; 0x80
10000488:	01d2      	lsls	r2, r2, #7
1000048a:	619a      	str	r2, [r3, #24]
1000048c:	4bba      	ldr	r3, [pc, #744]	; (10000778 <evaluate_sound_stop_time+0x350>)
1000048e:	22ff      	movs	r2, #255	; 0xff
10000490:	701a      	strb	r2, [r3, #0]
10000492:	4aba      	ldr	r2, [pc, #744]	; (1000077c <evaluate_sound_stop_time+0x354>)
10000494:	7813      	ldrb	r3, [r2, #0]
10000496:	3301      	adds	r3, #1
10000498:	b2db      	uxtb	r3, r3
1000049a:	7013      	strb	r3, [r2, #0]
1000049c:	4ab4      	ldr	r2, [pc, #720]	; (10000770 <evaluate_sound_stop_time+0x348>)
1000049e:	2100      	movs	r1, #0
100004a0:	7011      	strb	r1, [r2, #0]
100004a2:	2b07      	cmp	r3, #7
100004a4:	d9c9      	bls.n	1000043a <evaluate_sound_stop_time+0x12>
100004a6:	2300      	movs	r3, #0
100004a8:	4ab4      	ldr	r2, [pc, #720]	; (1000077c <evaluate_sound_stop_time+0x354>)
100004aa:	7013      	strb	r3, [r2, #0]
100004ac:	48af      	ldr	r0, [pc, #700]	; (1000076c <evaluate_sound_stop_time+0x344>)
100004ae:	7003      	strb	r3, [r0, #0]
100004b0:	4ab1      	ldr	r2, [pc, #708]	; (10000778 <evaluate_sound_stop_time+0x350>)
100004b2:	7013      	strb	r3, [r2, #0]
100004b4:	49b2      	ldr	r1, [pc, #712]	; (10000780 <evaluate_sound_stop_time+0x358>)
100004b6:	780b      	ldrb	r3, [r1, #0]
100004b8:	3301      	adds	r3, #1
100004ba:	b2db      	uxtb	r3, r3
100004bc:	700b      	strb	r3, [r1, #0]
100004be:	21ff      	movs	r1, #255	; 0xff
100004c0:	7001      	strb	r1, [r0, #0]
100004c2:	7011      	strb	r1, [r2, #0]
100004c4:	2b01      	cmp	r3, #1
100004c6:	d800      	bhi.n	100004ca <evaluate_sound_stop_time+0xa2>
100004c8:	e16b      	b.n	100007a2 <evaluate_sound_stop_time+0x37a>
100004ca:	2300      	movs	r3, #0
100004cc:	4aac      	ldr	r2, [pc, #688]	; (10000780 <evaluate_sound_stop_time+0x358>)
100004ce:	7013      	strb	r3, [r2, #0]
100004d0:	7003      	strb	r3, [r0, #0]
100004d2:	4aa9      	ldr	r2, [pc, #676]	; (10000778 <evaluate_sound_stop_time+0x350>)
100004d4:	7013      	strb	r3, [r2, #0]
100004d6:	e7b0      	b.n	1000043a <evaluate_sound_stop_time+0x12>
100004d8:	2a27      	cmp	r2, #39	; 0x27
100004da:	d9bc      	bls.n	10000456 <evaluate_sound_stop_time+0x2e>
100004dc:	4aa6      	ldr	r2, [pc, #664]	; (10000778 <evaluate_sound_stop_time+0x350>)
100004de:	7812      	ldrb	r2, [r2, #0]
100004e0:	2aff      	cmp	r2, #255	; 0xff
100004e2:	d029      	beq.n	10000538 <evaluate_sound_stop_time+0x110>
100004e4:	22d0      	movs	r2, #208	; 0xd0
100004e6:	0612      	lsls	r2, r2, #24
100004e8:	2180      	movs	r1, #128	; 0x80
100004ea:	01c9      	lsls	r1, r1, #7
100004ec:	6191      	str	r1, [r2, #24]
100004ee:	4aa2      	ldr	r2, [pc, #648]	; (10000778 <evaluate_sound_stop_time+0x350>)
100004f0:	21ff      	movs	r1, #255	; 0xff
100004f2:	7011      	strb	r1, [r2, #0]
100004f4:	49a1      	ldr	r1, [pc, #644]	; (1000077c <evaluate_sound_stop_time+0x354>)
100004f6:	780a      	ldrb	r2, [r1, #0]
100004f8:	3201      	adds	r2, #1
100004fa:	b2d2      	uxtb	r2, r2
100004fc:	700a      	strb	r2, [r1, #0]
100004fe:	499c      	ldr	r1, [pc, #624]	; (10000770 <evaluate_sound_stop_time+0x348>)
10000500:	2000      	movs	r0, #0
10000502:	7008      	strb	r0, [r1, #0]
10000504:	2a09      	cmp	r2, #9
10000506:	d9a6      	bls.n	10000456 <evaluate_sound_stop_time+0x2e>
10000508:	2200      	movs	r2, #0
1000050a:	499c      	ldr	r1, [pc, #624]	; (1000077c <evaluate_sound_stop_time+0x354>)
1000050c:	700a      	strb	r2, [r1, #0]
1000050e:	4c97      	ldr	r4, [pc, #604]	; (1000076c <evaluate_sound_stop_time+0x344>)
10000510:	7022      	strb	r2, [r4, #0]
10000512:	4999      	ldr	r1, [pc, #612]	; (10000778 <evaluate_sound_stop_time+0x350>)
10000514:	700a      	strb	r2, [r1, #0]
10000516:	489a      	ldr	r0, [pc, #616]	; (10000780 <evaluate_sound_stop_time+0x358>)
10000518:	7802      	ldrb	r2, [r0, #0]
1000051a:	3201      	adds	r2, #1
1000051c:	b2d2      	uxtb	r2, r2
1000051e:	7002      	strb	r2, [r0, #0]
10000520:	20ff      	movs	r0, #255	; 0xff
10000522:	7020      	strb	r0, [r4, #0]
10000524:	7008      	strb	r0, [r1, #0]
10000526:	2a01      	cmp	r2, #1
10000528:	d911      	bls.n	1000054e <evaluate_sound_stop_time+0x126>
1000052a:	2200      	movs	r2, #0
1000052c:	4994      	ldr	r1, [pc, #592]	; (10000780 <evaluate_sound_stop_time+0x358>)
1000052e:	700a      	strb	r2, [r1, #0]
10000530:	7022      	strb	r2, [r4, #0]
10000532:	4991      	ldr	r1, [pc, #580]	; (10000778 <evaluate_sound_stop_time+0x350>)
10000534:	700a      	strb	r2, [r1, #0]
10000536:	e78e      	b.n	10000456 <evaluate_sound_stop_time+0x2e>
10000538:	22d0      	movs	r2, #208	; 0xd0
1000053a:	0612      	lsls	r2, r2, #24
1000053c:	2180      	movs	r1, #128	; 0x80
1000053e:	01c9      	lsls	r1, r1, #7
10000540:	6151      	str	r1, [r2, #20]
10000542:	2200      	movs	r2, #0
10000544:	498c      	ldr	r1, [pc, #560]	; (10000778 <evaluate_sound_stop_time+0x350>)
10000546:	700a      	strb	r2, [r1, #0]
10000548:	4989      	ldr	r1, [pc, #548]	; (10000770 <evaluate_sound_stop_time+0x348>)
1000054a:	700a      	strb	r2, [r1, #0]
1000054c:	e783      	b.n	10000456 <evaluate_sound_stop_time+0x2e>
1000054e:	4a86      	ldr	r2, [pc, #536]	; (10000768 <evaluate_sound_stop_time+0x340>)
10000550:	21a0      	movs	r1, #160	; 0xa0
10000552:	8011      	strh	r1, [r2, #0]
10000554:	e77f      	b.n	10000456 <evaluate_sound_stop_time+0x2e>
10000556:	4a86      	ldr	r2, [pc, #536]	; (10000770 <evaluate_sound_stop_time+0x348>)
10000558:	7812      	ldrb	r2, [r2, #0]
1000055a:	2a3b      	cmp	r2, #59	; 0x3b
1000055c:	d800      	bhi.n	10000560 <evaluate_sound_stop_time+0x138>
1000055e:	e77c      	b.n	1000045a <evaluate_sound_stop_time+0x32>
10000560:	4a85      	ldr	r2, [pc, #532]	; (10000778 <evaluate_sound_stop_time+0x350>)
10000562:	7812      	ldrb	r2, [r2, #0]
10000564:	2aff      	cmp	r2, #255	; 0xff
10000566:	d02a      	beq.n	100005be <evaluate_sound_stop_time+0x196>
10000568:	22d0      	movs	r2, #208	; 0xd0
1000056a:	0612      	lsls	r2, r2, #24
1000056c:	2180      	movs	r1, #128	; 0x80
1000056e:	01c9      	lsls	r1, r1, #7
10000570:	6191      	str	r1, [r2, #24]
10000572:	4a81      	ldr	r2, [pc, #516]	; (10000778 <evaluate_sound_stop_time+0x350>)
10000574:	21ff      	movs	r1, #255	; 0xff
10000576:	7011      	strb	r1, [r2, #0]
10000578:	4980      	ldr	r1, [pc, #512]	; (1000077c <evaluate_sound_stop_time+0x354>)
1000057a:	780a      	ldrb	r2, [r1, #0]
1000057c:	3201      	adds	r2, #1
1000057e:	b2d2      	uxtb	r2, r2
10000580:	700a      	strb	r2, [r1, #0]
10000582:	497b      	ldr	r1, [pc, #492]	; (10000770 <evaluate_sound_stop_time+0x348>)
10000584:	2000      	movs	r0, #0
10000586:	7008      	strb	r0, [r1, #0]
10000588:	2a04      	cmp	r2, #4
1000058a:	d800      	bhi.n	1000058e <evaluate_sound_stop_time+0x166>
1000058c:	e765      	b.n	1000045a <evaluate_sound_stop_time+0x32>
1000058e:	2200      	movs	r2, #0
10000590:	497a      	ldr	r1, [pc, #488]	; (1000077c <evaluate_sound_stop_time+0x354>)
10000592:	700a      	strb	r2, [r1, #0]
10000594:	4c75      	ldr	r4, [pc, #468]	; (1000076c <evaluate_sound_stop_time+0x344>)
10000596:	7022      	strb	r2, [r4, #0]
10000598:	4977      	ldr	r1, [pc, #476]	; (10000778 <evaluate_sound_stop_time+0x350>)
1000059a:	700a      	strb	r2, [r1, #0]
1000059c:	4878      	ldr	r0, [pc, #480]	; (10000780 <evaluate_sound_stop_time+0x358>)
1000059e:	7802      	ldrb	r2, [r0, #0]
100005a0:	3201      	adds	r2, #1
100005a2:	b2d2      	uxtb	r2, r2
100005a4:	7002      	strb	r2, [r0, #0]
100005a6:	20ff      	movs	r0, #255	; 0xff
100005a8:	7020      	strb	r0, [r4, #0]
100005aa:	7008      	strb	r0, [r1, #0]
100005ac:	2a02      	cmp	r2, #2
100005ae:	d911      	bls.n	100005d4 <evaluate_sound_stop_time+0x1ac>
100005b0:	2200      	movs	r2, #0
100005b2:	4973      	ldr	r1, [pc, #460]	; (10000780 <evaluate_sound_stop_time+0x358>)
100005b4:	700a      	strb	r2, [r1, #0]
100005b6:	7022      	strb	r2, [r4, #0]
100005b8:	496f      	ldr	r1, [pc, #444]	; (10000778 <evaluate_sound_stop_time+0x350>)
100005ba:	700a      	strb	r2, [r1, #0]
100005bc:	e74d      	b.n	1000045a <evaluate_sound_stop_time+0x32>
100005be:	22d0      	movs	r2, #208	; 0xd0
100005c0:	0612      	lsls	r2, r2, #24
100005c2:	2180      	movs	r1, #128	; 0x80
100005c4:	01c9      	lsls	r1, r1, #7
100005c6:	6151      	str	r1, [r2, #20]
100005c8:	2200      	movs	r2, #0
100005ca:	496b      	ldr	r1, [pc, #428]	; (10000778 <evaluate_sound_stop_time+0x350>)
100005cc:	700a      	strb	r2, [r1, #0]
100005ce:	4968      	ldr	r1, [pc, #416]	; (10000770 <evaluate_sound_stop_time+0x348>)
100005d0:	700a      	strb	r2, [r1, #0]
100005d2:	e742      	b.n	1000045a <evaluate_sound_stop_time+0x32>
100005d4:	4a64      	ldr	r2, [pc, #400]	; (10000768 <evaluate_sound_stop_time+0x340>)
100005d6:	21f0      	movs	r1, #240	; 0xf0
100005d8:	8011      	strh	r1, [r2, #0]
100005da:	e73e      	b.n	1000045a <evaluate_sound_stop_time+0x32>
100005dc:	4a64      	ldr	r2, [pc, #400]	; (10000770 <evaluate_sound_stop_time+0x348>)
100005de:	7812      	ldrb	r2, [r2, #0]
100005e0:	2a31      	cmp	r2, #49	; 0x31
100005e2:	d800      	bhi.n	100005e6 <evaluate_sound_stop_time+0x1be>
100005e4:	e73c      	b.n	10000460 <evaluate_sound_stop_time+0x38>
100005e6:	4a64      	ldr	r2, [pc, #400]	; (10000778 <evaluate_sound_stop_time+0x350>)
100005e8:	7812      	ldrb	r2, [r2, #0]
100005ea:	2aff      	cmp	r2, #255	; 0xff
100005ec:	d02a      	beq.n	10000644 <evaluate_sound_stop_time+0x21c>
100005ee:	22d0      	movs	r2, #208	; 0xd0
100005f0:	0612      	lsls	r2, r2, #24
100005f2:	2180      	movs	r1, #128	; 0x80
100005f4:	01c9      	lsls	r1, r1, #7
100005f6:	6191      	str	r1, [r2, #24]
100005f8:	4a5f      	ldr	r2, [pc, #380]	; (10000778 <evaluate_sound_stop_time+0x350>)
100005fa:	21ff      	movs	r1, #255	; 0xff
100005fc:	7011      	strb	r1, [r2, #0]
100005fe:	495f      	ldr	r1, [pc, #380]	; (1000077c <evaluate_sound_stop_time+0x354>)
10000600:	780a      	ldrb	r2, [r1, #0]
10000602:	3201      	adds	r2, #1
10000604:	b2d2      	uxtb	r2, r2
10000606:	700a      	strb	r2, [r1, #0]
10000608:	4959      	ldr	r1, [pc, #356]	; (10000770 <evaluate_sound_stop_time+0x348>)
1000060a:	2000      	movs	r0, #0
1000060c:	7008      	strb	r0, [r1, #0]
1000060e:	2a01      	cmp	r2, #1
10000610:	d800      	bhi.n	10000614 <evaluate_sound_stop_time+0x1ec>
10000612:	e725      	b.n	10000460 <evaluate_sound_stop_time+0x38>
10000614:	2200      	movs	r2, #0
10000616:	4959      	ldr	r1, [pc, #356]	; (1000077c <evaluate_sound_stop_time+0x354>)
10000618:	700a      	strb	r2, [r1, #0]
1000061a:	4c54      	ldr	r4, [pc, #336]	; (1000076c <evaluate_sound_stop_time+0x344>)
1000061c:	7022      	strb	r2, [r4, #0]
1000061e:	4956      	ldr	r1, [pc, #344]	; (10000778 <evaluate_sound_stop_time+0x350>)
10000620:	700a      	strb	r2, [r1, #0]
10000622:	4857      	ldr	r0, [pc, #348]	; (10000780 <evaluate_sound_stop_time+0x358>)
10000624:	7802      	ldrb	r2, [r0, #0]
10000626:	3201      	adds	r2, #1
10000628:	b2d2      	uxtb	r2, r2
1000062a:	7002      	strb	r2, [r0, #0]
1000062c:	20ff      	movs	r0, #255	; 0xff
1000062e:	7020      	strb	r0, [r4, #0]
10000630:	7008      	strb	r0, [r1, #0]
10000632:	2a02      	cmp	r2, #2
10000634:	d911      	bls.n	1000065a <evaluate_sound_stop_time+0x232>
10000636:	2200      	movs	r2, #0
10000638:	4951      	ldr	r1, [pc, #324]	; (10000780 <evaluate_sound_stop_time+0x358>)
1000063a:	700a      	strb	r2, [r1, #0]
1000063c:	7022      	strb	r2, [r4, #0]
1000063e:	494e      	ldr	r1, [pc, #312]	; (10000778 <evaluate_sound_stop_time+0x350>)
10000640:	700a      	strb	r2, [r1, #0]
10000642:	e70d      	b.n	10000460 <evaluate_sound_stop_time+0x38>
10000644:	22d0      	movs	r2, #208	; 0xd0
10000646:	0612      	lsls	r2, r2, #24
10000648:	2180      	movs	r1, #128	; 0x80
1000064a:	01c9      	lsls	r1, r1, #7
1000064c:	6151      	str	r1, [r2, #20]
1000064e:	2200      	movs	r2, #0
10000650:	4949      	ldr	r1, [pc, #292]	; (10000778 <evaluate_sound_stop_time+0x350>)
10000652:	700a      	strb	r2, [r1, #0]
10000654:	4946      	ldr	r1, [pc, #280]	; (10000770 <evaluate_sound_stop_time+0x348>)
10000656:	700a      	strb	r2, [r1, #0]
10000658:	e702      	b.n	10000460 <evaluate_sound_stop_time+0x38>
1000065a:	4a43      	ldr	r2, [pc, #268]	; (10000768 <evaluate_sound_stop_time+0x340>)
1000065c:	21c8      	movs	r1, #200	; 0xc8
1000065e:	8011      	strh	r1, [r2, #0]
10000660:	e6fe      	b.n	10000460 <evaluate_sound_stop_time+0x38>
10000662:	4a43      	ldr	r2, [pc, #268]	; (10000770 <evaluate_sound_stop_time+0x348>)
10000664:	7812      	ldrb	r2, [r2, #0]
10000666:	2a63      	cmp	r2, #99	; 0x63
10000668:	d800      	bhi.n	1000066c <evaluate_sound_stop_time+0x244>
1000066a:	e6fc      	b.n	10000466 <evaluate_sound_stop_time+0x3e>
1000066c:	4a42      	ldr	r2, [pc, #264]	; (10000778 <evaluate_sound_stop_time+0x350>)
1000066e:	7812      	ldrb	r2, [r2, #0]
10000670:	2aff      	cmp	r2, #255	; 0xff
10000672:	d02a      	beq.n	100006ca <evaluate_sound_stop_time+0x2a2>
10000674:	22d0      	movs	r2, #208	; 0xd0
10000676:	0612      	lsls	r2, r2, #24
10000678:	2180      	movs	r1, #128	; 0x80
1000067a:	01c9      	lsls	r1, r1, #7
1000067c:	6191      	str	r1, [r2, #24]
1000067e:	4a3e      	ldr	r2, [pc, #248]	; (10000778 <evaluate_sound_stop_time+0x350>)
10000680:	21ff      	movs	r1, #255	; 0xff
10000682:	7011      	strb	r1, [r2, #0]
10000684:	493d      	ldr	r1, [pc, #244]	; (1000077c <evaluate_sound_stop_time+0x354>)
10000686:	780a      	ldrb	r2, [r1, #0]
10000688:	3201      	adds	r2, #1
1000068a:	b2d2      	uxtb	r2, r2
1000068c:	700a      	strb	r2, [r1, #0]
1000068e:	4938      	ldr	r1, [pc, #224]	; (10000770 <evaluate_sound_stop_time+0x348>)
10000690:	2000      	movs	r0, #0
10000692:	7008      	strb	r0, [r1, #0]
10000694:	2a04      	cmp	r2, #4
10000696:	d800      	bhi.n	1000069a <evaluate_sound_stop_time+0x272>
10000698:	e6e5      	b.n	10000466 <evaluate_sound_stop_time+0x3e>
1000069a:	2200      	movs	r2, #0
1000069c:	4937      	ldr	r1, [pc, #220]	; (1000077c <evaluate_sound_stop_time+0x354>)
1000069e:	700a      	strb	r2, [r1, #0]
100006a0:	4c32      	ldr	r4, [pc, #200]	; (1000076c <evaluate_sound_stop_time+0x344>)
100006a2:	7022      	strb	r2, [r4, #0]
100006a4:	4934      	ldr	r1, [pc, #208]	; (10000778 <evaluate_sound_stop_time+0x350>)
100006a6:	700a      	strb	r2, [r1, #0]
100006a8:	4835      	ldr	r0, [pc, #212]	; (10000780 <evaluate_sound_stop_time+0x358>)
100006aa:	7802      	ldrb	r2, [r0, #0]
100006ac:	3201      	adds	r2, #1
100006ae:	b2d2      	uxtb	r2, r2
100006b0:	7002      	strb	r2, [r0, #0]
100006b2:	20ff      	movs	r0, #255	; 0xff
100006b4:	7020      	strb	r0, [r4, #0]
100006b6:	7008      	strb	r0, [r1, #0]
100006b8:	2a02      	cmp	r2, #2
100006ba:	d911      	bls.n	100006e0 <evaluate_sound_stop_time+0x2b8>
100006bc:	2200      	movs	r2, #0
100006be:	4930      	ldr	r1, [pc, #192]	; (10000780 <evaluate_sound_stop_time+0x358>)
100006c0:	700a      	strb	r2, [r1, #0]
100006c2:	7022      	strb	r2, [r4, #0]
100006c4:	492c      	ldr	r1, [pc, #176]	; (10000778 <evaluate_sound_stop_time+0x350>)
100006c6:	700a      	strb	r2, [r1, #0]
100006c8:	e6cd      	b.n	10000466 <evaluate_sound_stop_time+0x3e>
100006ca:	22d0      	movs	r2, #208	; 0xd0
100006cc:	0612      	lsls	r2, r2, #24
100006ce:	2180      	movs	r1, #128	; 0x80
100006d0:	01c9      	lsls	r1, r1, #7
100006d2:	6151      	str	r1, [r2, #20]
100006d4:	2200      	movs	r2, #0
100006d6:	4928      	ldr	r1, [pc, #160]	; (10000778 <evaluate_sound_stop_time+0x350>)
100006d8:	700a      	strb	r2, [r1, #0]
100006da:	4925      	ldr	r1, [pc, #148]	; (10000770 <evaluate_sound_stop_time+0x348>)
100006dc:	700a      	strb	r2, [r1, #0]
100006de:	e6c2      	b.n	10000466 <evaluate_sound_stop_time+0x3e>
100006e0:	4a21      	ldr	r2, [pc, #132]	; (10000768 <evaluate_sound_stop_time+0x340>)
100006e2:	21c8      	movs	r1, #200	; 0xc8
100006e4:	0049      	lsls	r1, r1, #1
100006e6:	8011      	strh	r1, [r2, #0]
100006e8:	e6bd      	b.n	10000466 <evaluate_sound_stop_time+0x3e>
100006ea:	4a21      	ldr	r2, [pc, #132]	; (10000770 <evaluate_sound_stop_time+0x348>)
100006ec:	7812      	ldrb	r2, [r2, #0]
100006ee:	2a06      	cmp	r2, #6
100006f0:	d800      	bhi.n	100006f4 <evaluate_sound_stop_time+0x2cc>
100006f2:	e6bb      	b.n	1000046c <evaluate_sound_stop_time+0x44>
100006f4:	4a20      	ldr	r2, [pc, #128]	; (10000778 <evaluate_sound_stop_time+0x350>)
100006f6:	7812      	ldrb	r2, [r2, #0]
100006f8:	2aff      	cmp	r2, #255	; 0xff
100006fa:	d02a      	beq.n	10000752 <evaluate_sound_stop_time+0x32a>
100006fc:	22d0      	movs	r2, #208	; 0xd0
100006fe:	0612      	lsls	r2, r2, #24
10000700:	2180      	movs	r1, #128	; 0x80
10000702:	01c9      	lsls	r1, r1, #7
10000704:	6191      	str	r1, [r2, #24]
10000706:	4a1c      	ldr	r2, [pc, #112]	; (10000778 <evaluate_sound_stop_time+0x350>)
10000708:	21ff      	movs	r1, #255	; 0xff
1000070a:	7011      	strb	r1, [r2, #0]
1000070c:	491b      	ldr	r1, [pc, #108]	; (1000077c <evaluate_sound_stop_time+0x354>)
1000070e:	780a      	ldrb	r2, [r1, #0]
10000710:	3201      	adds	r2, #1
10000712:	b2d2      	uxtb	r2, r2
10000714:	700a      	strb	r2, [r1, #0]
10000716:	4916      	ldr	r1, [pc, #88]	; (10000770 <evaluate_sound_stop_time+0x348>)
10000718:	2000      	movs	r0, #0
1000071a:	7008      	strb	r0, [r1, #0]
1000071c:	2a00      	cmp	r2, #0
1000071e:	d100      	bne.n	10000722 <evaluate_sound_stop_time+0x2fa>
10000720:	e6a4      	b.n	1000046c <evaluate_sound_stop_time+0x44>
10000722:	2200      	movs	r2, #0
10000724:	4915      	ldr	r1, [pc, #84]	; (1000077c <evaluate_sound_stop_time+0x354>)
10000726:	700a      	strb	r2, [r1, #0]
10000728:	4c10      	ldr	r4, [pc, #64]	; (1000076c <evaluate_sound_stop_time+0x344>)
1000072a:	7022      	strb	r2, [r4, #0]
1000072c:	4912      	ldr	r1, [pc, #72]	; (10000778 <evaluate_sound_stop_time+0x350>)
1000072e:	700a      	strb	r2, [r1, #0]
10000730:	4813      	ldr	r0, [pc, #76]	; (10000780 <evaluate_sound_stop_time+0x358>)
10000732:	7802      	ldrb	r2, [r0, #0]
10000734:	3201      	adds	r2, #1
10000736:	b2d2      	uxtb	r2, r2
10000738:	7002      	strb	r2, [r0, #0]
1000073a:	20ff      	movs	r0, #255	; 0xff
1000073c:	7020      	strb	r0, [r4, #0]
1000073e:	7008      	strb	r0, [r1, #0]
10000740:	2a00      	cmp	r2, #0
10000742:	d01f      	beq.n	10000784 <evaluate_sound_stop_time+0x35c>
10000744:	2200      	movs	r2, #0
10000746:	490e      	ldr	r1, [pc, #56]	; (10000780 <evaluate_sound_stop_time+0x358>)
10000748:	700a      	strb	r2, [r1, #0]
1000074a:	7022      	strb	r2, [r4, #0]
1000074c:	490a      	ldr	r1, [pc, #40]	; (10000778 <evaluate_sound_stop_time+0x350>)
1000074e:	700a      	strb	r2, [r1, #0]
10000750:	e68c      	b.n	1000046c <evaluate_sound_stop_time+0x44>
10000752:	22d0      	movs	r2, #208	; 0xd0
10000754:	0612      	lsls	r2, r2, #24
10000756:	2180      	movs	r1, #128	; 0x80
10000758:	01c9      	lsls	r1, r1, #7
1000075a:	6151      	str	r1, [r2, #20]
1000075c:	2200      	movs	r2, #0
1000075e:	4906      	ldr	r1, [pc, #24]	; (10000778 <evaluate_sound_stop_time+0x350>)
10000760:	700a      	strb	r2, [r1, #0]
10000762:	4903      	ldr	r1, [pc, #12]	; (10000770 <evaluate_sound_stop_time+0x348>)
10000764:	700a      	strb	r2, [r1, #0]
10000766:	e681      	b.n	1000046c <evaluate_sound_stop_time+0x44>
10000768:	20002b2c 	.word	0x20002b2c
1000076c:	20002b5b 	.word	0x20002b5b
10000770:	20002b73 	.word	0x20002b73
10000774:	20002b76 	.word	0x20002b76
10000778:	20002b51 	.word	0x20002b51
1000077c:	20002b74 	.word	0x20002b74
10000780:	20002b75 	.word	0x20002b75
10000784:	4a09      	ldr	r2, [pc, #36]	; (100007ac <evaluate_sound_stop_time+0x384>)
10000786:	211c      	movs	r1, #28
10000788:	8011      	strh	r1, [r2, #0]
1000078a:	e66f      	b.n	1000046c <evaluate_sound_stop_time+0x44>
1000078c:	23d0      	movs	r3, #208	; 0xd0
1000078e:	061b      	lsls	r3, r3, #24
10000790:	2280      	movs	r2, #128	; 0x80
10000792:	01d2      	lsls	r2, r2, #7
10000794:	615a      	str	r2, [r3, #20]
10000796:	2300      	movs	r3, #0
10000798:	4a05      	ldr	r2, [pc, #20]	; (100007b0 <evaluate_sound_stop_time+0x388>)
1000079a:	7013      	strb	r3, [r2, #0]
1000079c:	4a05      	ldr	r2, [pc, #20]	; (100007b4 <evaluate_sound_stop_time+0x38c>)
1000079e:	7013      	strb	r3, [r2, #0]
100007a0:	e64b      	b.n	1000043a <evaluate_sound_stop_time+0x12>
100007a2:	4b02      	ldr	r3, [pc, #8]	; (100007ac <evaluate_sound_stop_time+0x384>)
100007a4:	22f0      	movs	r2, #240	; 0xf0
100007a6:	801a      	strh	r2, [r3, #0]
100007a8:	e647      	b.n	1000043a <evaluate_sound_stop_time+0x12>
100007aa:	46c0      	nop			; (mov r8, r8)
100007ac:	20002b2c 	.word	0x20002b2c
100007b0:	20002b51 	.word	0x20002b51
100007b4:	20002b73 	.word	0x20002b73

100007b8 <fill_display_buffer_4X7>:
100007b8:	b5f0      	push	{r4, r5, r6, r7, lr}
100007ba:	46d6      	mov	lr, sl
100007bc:	464f      	mov	r7, r9
100007be:	4646      	mov	r6, r8
100007c0:	b5c0      	push	{r6, r7, lr}
100007c2:	3002      	adds	r0, #2
100007c4:	b2c3      	uxtb	r3, r0
100007c6:	469a      	mov	sl, r3
100007c8:	08de      	lsrs	r6, r3, #3
100007ca:	2407      	movs	r4, #7
100007cc:	401c      	ands	r4, r3
100007ce:	0008      	movs	r0, r1
100007d0:	382d      	subs	r0, #45	; 0x2d
100007d2:	b2c0      	uxtb	r0, r0
100007d4:	2853      	cmp	r0, #83	; 0x53
100007d6:	d906      	bls.n	100007e6 <fill_display_buffer_4X7+0x2e>
100007d8:	2916      	cmp	r1, #22
100007da:	d008      	beq.n	100007ee <fill_display_buffer_4X7+0x36>
100007dc:	2920      	cmp	r1, #32
100007de:	d008      	beq.n	100007f2 <fill_display_buffer_4X7+0x3a>
100007e0:	2900      	cmp	r1, #0
100007e2:	d002      	beq.n	100007ea <fill_display_buffer_4X7+0x32>
100007e4:	2031      	movs	r0, #49	; 0x31
100007e6:	2301      	movs	r3, #1
100007e8:	e011      	b.n	1000080e <fill_display_buffer_4X7+0x56>
100007ea:	202e      	movs	r0, #46	; 0x2e
100007ec:	e7fb      	b.n	100007e6 <fill_display_buffer_4X7+0x2e>
100007ee:	200d      	movs	r0, #13
100007f0:	e7f9      	b.n	100007e6 <fill_display_buffer_4X7+0x2e>
100007f2:	202e      	movs	r0, #46	; 0x2e
100007f4:	e7f7      	b.n	100007e6 <fill_display_buffer_4X7+0x2e>
100007f6:	00c2      	lsls	r2, r0, #3
100007f8:	1a12      	subs	r2, r2, r0
100007fa:	18d2      	adds	r2, r2, r3
100007fc:	3a01      	subs	r2, #1
100007fe:	00f1      	lsls	r1, r6, #3
10000800:	1859      	adds	r1, r3, r1
10000802:	4f1d      	ldr	r7, [pc, #116]	; (10000878 <fill_display_buffer_4X7+0xc0>)
10000804:	5cbf      	ldrb	r7, [r7, r2]
10000806:	4a1d      	ldr	r2, [pc, #116]	; (1000087c <fill_display_buffer_4X7+0xc4>)
10000808:	5457      	strb	r7, [r2, r1]
1000080a:	3301      	adds	r3, #1
1000080c:	b2db      	uxtb	r3, r3
1000080e:	2b07      	cmp	r3, #7
10000810:	d82d      	bhi.n	1000086e <fill_display_buffer_4X7+0xb6>
10000812:	2c00      	cmp	r4, #0
10000814:	d0ef      	beq.n	100007f6 <fill_display_buffer_4X7+0x3e>
10000816:	00f7      	lsls	r7, r6, #3
10000818:	18ff      	adds	r7, r7, r3
1000081a:	4a18      	ldr	r2, [pc, #96]	; (1000087c <fill_display_buffer_4X7+0xc4>)
1000081c:	4690      	mov	r8, r2
1000081e:	57d1      	ldrsb	r1, [r2, r7]
10000820:	2208      	movs	r2, #8
10000822:	1b12      	subs	r2, r2, r4
10000824:	4694      	mov	ip, r2
10000826:	22ff      	movs	r2, #255	; 0xff
10000828:	4665      	mov	r5, ip
1000082a:	412a      	asrs	r2, r5
1000082c:	400a      	ands	r2, r1
1000082e:	b252      	sxtb	r2, r2
10000830:	00c1      	lsls	r1, r0, #3
10000832:	1a09      	subs	r1, r1, r0
10000834:	1859      	adds	r1, r3, r1
10000836:	3901      	subs	r1, #1
10000838:	4d0f      	ldr	r5, [pc, #60]	; (10000878 <fill_display_buffer_4X7+0xc0>)
1000083a:	5c69      	ldrb	r1, [r5, r1]
1000083c:	000d      	movs	r5, r1
1000083e:	40a5      	lsls	r5, r4
10000840:	432a      	orrs	r2, r5
10000842:	4645      	mov	r5, r8
10000844:	55ea      	strb	r2, [r5, r7]
10000846:	4652      	mov	r2, sl
10000848:	2aef      	cmp	r2, #239	; 0xef
1000084a:	d8de      	bhi.n	1000080a <fill_display_buffer_4X7+0x52>
1000084c:	1c77      	adds	r7, r6, #1
1000084e:	00ff      	lsls	r7, r7, #3
10000850:	19df      	adds	r7, r3, r7
10000852:	57ea      	ldrsb	r2, [r5, r7]
10000854:	4691      	mov	r9, r2
10000856:	22ff      	movs	r2, #255	; 0xff
10000858:	4665      	mov	r5, ip
1000085a:	40aa      	lsls	r2, r5
1000085c:	464d      	mov	r5, r9
1000085e:	402a      	ands	r2, r5
10000860:	b252      	sxtb	r2, r2
10000862:	4665      	mov	r5, ip
10000864:	4129      	asrs	r1, r5
10000866:	430a      	orrs	r2, r1
10000868:	4641      	mov	r1, r8
1000086a:	55ca      	strb	r2, [r1, r7]
1000086c:	e7cd      	b.n	1000080a <fill_display_buffer_4X7+0x52>
1000086e:	bce0      	pop	{r5, r6, r7}
10000870:	46ba      	mov	sl, r7
10000872:	46b1      	mov	r9, r6
10000874:	46a8      	mov	r8, r5
10000876:	bdf0      	pop	{r4, r5, r6, r7, pc}
10000878:	10009880 	.word	0x10009880
1000087c:	2000195c 	.word	0x2000195c

10000880 <clear_framebuffer>:
10000880:	b510      	push	{r4, lr}
10000882:	0004      	movs	r4, r0
10000884:	2120      	movs	r1, #32
10000886:	0020      	movs	r0, r4
10000888:	f7ff ff96 	bl	100007b8 <fill_display_buffer_4X7>
1000088c:	3408      	adds	r4, #8
1000088e:	b2e4      	uxtb	r4, r4
10000890:	2cf7      	cmp	r4, #247	; 0xf7
10000892:	d9f7      	bls.n	10000884 <clear_framebuffer+0x4>
10000894:	bd10      	pop	{r4, pc}
	...

10000898 <timer_callback_us>:
10000898:	b510      	push	{r4, lr}
1000089a:	b0a0      	sub	sp, #128	; 0x80
1000089c:	4a32      	ldr	r2, [pc, #200]	; (10000968 <timer_callback_us+0xd0>)
1000089e:	7813      	ldrb	r3, [r2, #0]
100008a0:	3301      	adds	r3, #1
100008a2:	7013      	strb	r3, [r2, #0]
100008a4:	4b31      	ldr	r3, [pc, #196]	; (1000096c <timer_callback_us+0xd4>)
100008a6:	681a      	ldr	r2, [r3, #0]
100008a8:	685b      	ldr	r3, [r3, #4]
100008aa:	4831      	ldr	r0, [pc, #196]	; (10000970 <timer_callback_us+0xd8>)
100008ac:	2101      	movs	r1, #1
100008ae:	4249      	negs	r1, r1
100008b0:	1880      	adds	r0, r0, r2
100008b2:	4159      	adcs	r1, r3
100008b4:	2900      	cmp	r1, #0
100008b6:	d102      	bne.n	100008be <timer_callback_us+0x26>
100008b8:	d137      	bne.n	1000092a <timer_callback_us+0x92>
100008ba:	2863      	cmp	r0, #99	; 0x63
100008bc:	d935      	bls.n	1000092a <timer_callback_us+0x92>
100008be:	2400      	movs	r4, #0
100008c0:	482c      	ldr	r0, [pc, #176]	; (10000974 <timer_callback_us+0xdc>)
100008c2:	2101      	movs	r1, #1
100008c4:	4249      	negs	r1, r1
100008c6:	1880      	adds	r0, r0, r2
100008c8:	4159      	adcs	r1, r3
100008ca:	2900      	cmp	r1, #0
100008cc:	d103      	bne.n	100008d6 <timer_callback_us+0x3e>
100008ce:	d101      	bne.n	100008d4 <timer_callback_us+0x3c>
100008d0:	287c      	cmp	r0, #124	; 0x7c
100008d2:	d800      	bhi.n	100008d6 <timer_callback_us+0x3e>
100008d4:	2404      	movs	r4, #4
100008d6:	20af      	movs	r0, #175	; 0xaf
100008d8:	4240      	negs	r0, r0
100008da:	17c1      	asrs	r1, r0, #31
100008dc:	1880      	adds	r0, r0, r2
100008de:	4159      	adcs	r1, r3
100008e0:	2900      	cmp	r1, #0
100008e2:	d103      	bne.n	100008ec <timer_callback_us+0x54>
100008e4:	d101      	bne.n	100008ea <timer_callback_us+0x52>
100008e6:	2863      	cmp	r0, #99	; 0x63
100008e8:	d800      	bhi.n	100008ec <timer_callback_us+0x54>
100008ea:	2408      	movs	r4, #8
100008ec:	2b00      	cmp	r3, #0
100008ee:	d103      	bne.n	100008f8 <timer_callback_us+0x60>
100008f0:	d101      	bne.n	100008f6 <timer_callback_us+0x5e>
100008f2:	2aae      	cmp	r2, #174	; 0xae
100008f4:	d800      	bhi.n	100008f8 <timer_callback_us+0x60>
100008f6:	240e      	movs	r4, #14
100008f8:	4b1f      	ldr	r3, [pc, #124]	; (10000978 <timer_callback_us+0xe0>)
100008fa:	681b      	ldr	r3, [r3, #0]
100008fc:	079b      	lsls	r3, r3, #30
100008fe:	d505      	bpl.n	1000090c <timer_callback_us+0x74>
10000900:	4b1e      	ldr	r3, [pc, #120]	; (1000097c <timer_callback_us+0xe4>)
10000902:	781b      	ldrb	r3, [r3, #0]
10000904:	2b04      	cmp	r3, #4
10000906:	d012      	beq.n	1000092e <timer_callback_us+0x96>
10000908:	2b06      	cmp	r3, #6
1000090a:	d010      	beq.n	1000092e <timer_callback_us+0x96>
1000090c:	4b16      	ldr	r3, [pc, #88]	; (10000968 <timer_callback_us+0xd0>)
1000090e:	781b      	ldrb	r3, [r3, #0]
10000910:	42a3      	cmp	r3, r4
10000912:	d922      	bls.n	1000095a <timer_callback_us+0xc2>
10000914:	23d0      	movs	r3, #208	; 0xd0
10000916:	061b      	lsls	r3, r3, #24
10000918:	2280      	movs	r2, #128	; 0x80
1000091a:	0192      	lsls	r2, r2, #6
1000091c:	619a      	str	r2, [r3, #24]
1000091e:	4b12      	ldr	r3, [pc, #72]	; (10000968 <timer_callback_us+0xd0>)
10000920:	2200      	movs	r2, #0
10000922:	701a      	strb	r2, [r3, #0]
10000924:	2001      	movs	r0, #1
10000926:	b020      	add	sp, #128	; 0x80
10000928:	bd10      	pop	{r4, pc}
1000092a:	2402      	movs	r4, #2
1000092c:	e7c8      	b.n	100008c0 <timer_callback_us+0x28>
1000092e:	4b13      	ldr	r3, [pc, #76]	; (1000097c <timer_callback_us+0xe4>)
10000930:	2206      	movs	r2, #6
10000932:	701a      	strb	r2, [r3, #0]
10000934:	2000      	movs	r0, #0
10000936:	f7ff ffa3 	bl	10000880 <clear_framebuffer>
1000093a:	0022      	movs	r2, r4
1000093c:	4910      	ldr	r1, [pc, #64]	; (10000980 <timer_callback_us+0xe8>)
1000093e:	4668      	mov	r0, sp
10000940:	f007 fb28 	bl	10007f94 <__wrap_sprintf>
10000944:	466b      	mov	r3, sp
10000946:	7819      	ldrb	r1, [r3, #0]
10000948:	2006      	movs	r0, #6
1000094a:	f7ff ff35 	bl	100007b8 <fill_display_buffer_4X7>
1000094e:	466b      	mov	r3, sp
10000950:	7859      	ldrb	r1, [r3, #1]
10000952:	200b      	movs	r0, #11
10000954:	f7ff ff30 	bl	100007b8 <fill_display_buffer_4X7>
10000958:	e7d8      	b.n	1000090c <timer_callback_us+0x74>
1000095a:	23d0      	movs	r3, #208	; 0xd0
1000095c:	061b      	lsls	r3, r3, #24
1000095e:	2280      	movs	r2, #128	; 0x80
10000960:	0192      	lsls	r2, r2, #6
10000962:	615a      	str	r2, [r3, #20]
10000964:	e7de      	b.n	10000924 <timer_callback_us+0x8c>
10000966:	46c0      	nop			; (mov r8, r8)
10000968:	20002b5f 	.word	0x20002b5f
1000096c:	20000338 	.word	0x20000338
10000970:	fffffe70 	.word	0xfffffe70
10000974:	fffffeed 	.word	0xfffffeed
10000978:	20000f08 	.word	0x20000f08
1000097c:	20002b43 	.word	0x20002b43
10000980:	10009324 	.word	0x10009324

10000984 <get_ads1015>:
10000984:	4b0a      	ldr	r3, [pc, #40]	; (100009b0 <get_ads1015+0x2c>)
10000986:	681b      	ldr	r3, [r3, #0]
10000988:	22e0      	movs	r2, #224	; 0xe0
1000098a:	01d2      	lsls	r2, r2, #7
1000098c:	4013      	ands	r3, r2
1000098e:	4a09      	ldr	r2, [pc, #36]	; (100009b4 <get_ads1015+0x30>)
10000990:	6013      	str	r3, [r2, #0]
10000992:	4b09      	ldr	r3, [pc, #36]	; (100009b8 <get_ads1015+0x34>)
10000994:	2204      	movs	r2, #4
10000996:	601a      	str	r2, [r3, #0]
10000998:	4b05      	ldr	r3, [pc, #20]	; (100009b0 <get_ads1015+0x2c>)
1000099a:	681b      	ldr	r3, [r3, #0]
1000099c:	05db      	lsls	r3, r3, #23
1000099e:	d5fb      	bpl.n	10000998 <get_ads1015+0x14>
100009a0:	4b03      	ldr	r3, [pc, #12]	; (100009b0 <get_ads1015+0x2c>)
100009a2:	685b      	ldr	r3, [r3, #4]
100009a4:	b29b      	uxth	r3, r3
100009a6:	4805      	ldr	r0, [pc, #20]	; (100009bc <get_ads1015+0x38>)
100009a8:	1ac0      	subs	r0, r0, r3
100009aa:	b280      	uxth	r0, r0
100009ac:	4770      	bx	lr
100009ae:	46c0      	nop			; (mov r8, r8)
100009b0:	4004c000 	.word	0x4004c000
100009b4:	4004d000 	.word	0x4004d000
100009b8:	4004e000 	.word	0x4004e000
100009bc:	00000fff 	.word	0x00000fff

100009c0 <adc_show_count>:
100009c0:	b5f8      	push	{r3, r4, r5, r6, r7, lr}
100009c2:	4b27      	ldr	r3, [pc, #156]	; (10000a60 <adc_show_count+0xa0>)
100009c4:	781b      	ldrb	r3, [r3, #0]
100009c6:	2bff      	cmp	r3, #255	; 0xff
100009c8:	d000      	beq.n	100009cc <adc_show_count+0xc>
100009ca:	bdf8      	pop	{r3, r4, r5, r6, r7, pc}
100009cc:	4e25      	ldr	r6, [pc, #148]	; (10000a64 <adc_show_count+0xa4>)
100009ce:	8833      	ldrh	r3, [r6, #0]
100009d0:	3301      	adds	r3, #1
100009d2:	8033      	strh	r3, [r6, #0]
100009d4:	f7ff ffd6 	bl	10000984 <get_ads1015>
100009d8:	0002      	movs	r2, r0
100009da:	2300      	movs	r3, #0
100009dc:	4f22      	ldr	r7, [pc, #136]	; (10000a68 <adc_show_count+0xa8>)
100009de:	6838      	ldr	r0, [r7, #0]
100009e0:	6879      	ldr	r1, [r7, #4]
100009e2:	1880      	adds	r0, r0, r2
100009e4:	4159      	adcs	r1, r3
100009e6:	6038      	str	r0, [r7, #0]
100009e8:	6079      	str	r1, [r7, #4]
100009ea:	8832      	ldrh	r2, [r6, #0]
100009ec:	4b1f      	ldr	r3, [pc, #124]	; (10000a6c <adc_show_count+0xac>)
100009ee:	429a      	cmp	r2, r3
100009f0:	d9eb      	bls.n	100009ca <adc_show_count+0xa>
100009f2:	4b1c      	ldr	r3, [pc, #112]	; (10000a64 <adc_show_count+0xa4>)
100009f4:	2200      	movs	r2, #0
100009f6:	801a      	strh	r2, [r3, #0]
100009f8:	4a1d      	ldr	r2, [pc, #116]	; (10000a70 <adc_show_count+0xb0>)
100009fa:	2300      	movs	r3, #0
100009fc:	f007 fb8c 	bl	10008118 <__wrap___aeabi_uldivmod>
10000a00:	491c      	ldr	r1, [pc, #112]	; (10000a74 <adc_show_count+0xb4>)
10000a02:	680b      	ldr	r3, [r1, #0]
10000a04:	1c5a      	adds	r2, r3, #1
10000a06:	600a      	str	r2, [r1, #0]
10000a08:	005b      	lsls	r3, r3, #1
10000a0a:	491b      	ldr	r1, [pc, #108]	; (10000a78 <adc_show_count+0xb8>)
10000a0c:	52c8      	strh	r0, [r1, r3]
10000a0e:	2a0b      	cmp	r2, #11
10000a10:	d902      	bls.n	10000a18 <adc_show_count+0x58>
10000a12:	4b18      	ldr	r3, [pc, #96]	; (10000a74 <adc_show_count+0xb4>)
10000a14:	2200      	movs	r2, #0
10000a16:	601a      	str	r2, [r3, #0]
10000a18:	4b13      	ldr	r3, [pc, #76]	; (10000a68 <adc_show_count+0xa8>)
10000a1a:	2000      	movs	r0, #0
10000a1c:	2100      	movs	r1, #0
10000a1e:	6018      	str	r0, [r3, #0]
10000a20:	6059      	str	r1, [r3, #4]
10000a22:	2300      	movs	r3, #0
10000a24:	e00b      	b.n	10000a3e <adc_show_count+0x7e>
10000a26:	005a      	lsls	r2, r3, #1
10000a28:	4913      	ldr	r1, [pc, #76]	; (10000a78 <adc_show_count+0xb8>)
10000a2a:	5a8c      	ldrh	r4, [r1, r2]
10000a2c:	2500      	movs	r5, #0
10000a2e:	4a0e      	ldr	r2, [pc, #56]	; (10000a68 <adc_show_count+0xa8>)
10000a30:	6810      	ldr	r0, [r2, #0]
10000a32:	6851      	ldr	r1, [r2, #4]
10000a34:	1900      	adds	r0, r0, r4
10000a36:	4169      	adcs	r1, r5
10000a38:	6010      	str	r0, [r2, #0]
10000a3a:	6051      	str	r1, [r2, #4]
10000a3c:	3301      	adds	r3, #1
10000a3e:	2b0b      	cmp	r3, #11
10000a40:	d9f1      	bls.n	10000a26 <adc_show_count+0x66>
10000a42:	4c09      	ldr	r4, [pc, #36]	; (10000a68 <adc_show_count+0xa8>)
10000a44:	220c      	movs	r2, #12
10000a46:	2300      	movs	r3, #0
10000a48:	6820      	ldr	r0, [r4, #0]
10000a4a:	6861      	ldr	r1, [r4, #4]
10000a4c:	f007 fb64 	bl	10008118 <__wrap___aeabi_uldivmod>
10000a50:	4b0a      	ldr	r3, [pc, #40]	; (10000a7c <adc_show_count+0xbc>)
10000a52:	6018      	str	r0, [r3, #0]
10000a54:	6059      	str	r1, [r3, #4]
10000a56:	2200      	movs	r2, #0
10000a58:	2300      	movs	r3, #0
10000a5a:	6022      	str	r2, [r4, #0]
10000a5c:	6063      	str	r3, [r4, #4]
10000a5e:	e7b4      	b.n	100009ca <adc_show_count+0xa>
10000a60:	20000758 	.word	0x20000758
10000a64:	20002b28 	.word	0x20002b28
10000a68:	20000f00 	.word	0x20000f00
10000a6c:	00001387 	.word	0x00001387
10000a70:	00001388 	.word	0x00001388
10000a74:	20001a8c 	.word	0x20001a8c
10000a78:	20000774 	.word	0x20000774
10000a7c:	20000338 	.word	0x20000338

10000a80 <get_date_string>:
10000a80:	b5f0      	push	{r4, r5, r6, r7, lr}
10000a82:	b087      	sub	sp, #28
10000a84:	0004      	movs	r4, r0
10000a86:	2300      	movs	r3, #0
10000a88:	e004      	b.n	10000a94 <get_date_string+0x14>
10000a8a:	18e2      	adds	r2, r4, r3
10000a8c:	2100      	movs	r1, #0
10000a8e:	7011      	strb	r1, [r2, #0]
10000a90:	3301      	adds	r3, #1
10000a92:	b29b      	uxth	r3, r3
10000a94:	2b03      	cmp	r3, #3
10000a96:	d9f8      	bls.n	10000a8a <get_date_string+0xa>
10000a98:	4e52      	ldr	r6, [pc, #328]	; (10000be4 <get_date_string+0x164>)
10000a9a:	a802      	add	r0, sp, #8
10000a9c:	f004 f958 	bl	10004d50 <Read_RTC>
10000aa0:	2207      	movs	r2, #7
10000aa2:	a902      	add	r1, sp, #8
10000aa4:	0030      	movs	r0, r6
10000aa6:	f007 ff65 	bl	10008974 <__wrap___aeabi_memcpy>
10000aaa:	7930      	ldrb	r0, [r6, #4]
10000aac:	f004 f8aa 	bl	10004c04 <bcd_to_byte>
10000ab0:	0005      	movs	r5, r0
10000ab2:	7970      	ldrb	r0, [r6, #5]
10000ab4:	f004 f8a6 	bl	10004c04 <bcd_to_byte>
10000ab8:	0006      	movs	r6, r0
10000aba:	4b4b      	ldr	r3, [pc, #300]	; (10000be8 <get_date_string+0x168>)
10000abc:	781b      	ldrb	r3, [r3, #0]
10000abe:	2b01      	cmp	r3, #1
10000ac0:	d005      	beq.n	10000ace <get_date_string+0x4e>
10000ac2:	4b49      	ldr	r3, [pc, #292]	; (10000be8 <get_date_string+0x168>)
10000ac4:	781b      	ldrb	r3, [r3, #0]
10000ac6:	2b02      	cmp	r3, #2
10000ac8:	d04b      	beq.n	10000b62 <get_date_string+0xe2>
10000aca:	b007      	add	sp, #28
10000acc:	bdf0      	pop	{r4, r5, r6, r7, pc}
10000ace:	4a45      	ldr	r2, [pc, #276]	; (10000be4 <get_date_string+0x164>)
10000ad0:	78d1      	ldrb	r1, [r2, #3]
10000ad2:	008a      	lsls	r2, r1, #2
10000ad4:	1852      	adds	r2, r2, r1
10000ad6:	0052      	lsls	r2, r2, #1
10000ad8:	0099      	lsls	r1, r3, #2
10000ada:	18c9      	adds	r1, r1, r3
10000adc:	0109      	lsls	r1, r1, #4
10000ade:	1852      	adds	r2, r2, r1
10000ae0:	4942      	ldr	r1, [pc, #264]	; (10000bec <get_date_string+0x16c>)
10000ae2:	1852      	adds	r2, r2, r1
10000ae4:	0081      	lsls	r1, r0, #2
10000ae6:	1809      	adds	r1, r1, r0
10000ae8:	0049      	lsls	r1, r1, #1
10000aea:	0198      	lsls	r0, r3, #6
10000aec:	18c3      	adds	r3, r0, r3
10000aee:	005b      	lsls	r3, r3, #1
10000af0:	18cb      	adds	r3, r1, r3
10000af2:	493f      	ldr	r1, [pc, #252]	; (10000bf0 <get_date_string+0x170>)
10000af4:	185b      	adds	r3, r3, r1
10000af6:	493f      	ldr	r1, [pc, #252]	; (10000bf4 <get_date_string+0x174>)
10000af8:	0020      	movs	r0, r4
10000afa:	f007 fa4b 	bl	10007f94 <__wrap_sprintf>
10000afe:	2d1f      	cmp	r5, #31
10000b00:	d828      	bhi.n	10000b54 <get_date_string+0xd4>
10000b02:	00ad      	lsls	r5, r5, #2
10000b04:	4b3c      	ldr	r3, [pc, #240]	; (10000bf8 <get_date_string+0x178>)
10000b06:	595b      	ldr	r3, [r3, r5]
10000b08:	469f      	mov	pc, r3
10000b0a:	ab05      	add	r3, sp, #20
10000b0c:	4a3b      	ldr	r2, [pc, #236]	; (10000bfc <get_date_string+0x17c>)
10000b0e:	8811      	ldrh	r1, [r2, #0]
10000b10:	8019      	strh	r1, [r3, #0]
10000b12:	7892      	ldrb	r2, [r2, #2]
10000b14:	709a      	strb	r2, [r3, #2]
10000b16:	0020      	movs	r0, r4
10000b18:	f008 fb84 	bl	10009224 <strlen>
10000b1c:	1820      	adds	r0, r4, r0
10000b1e:	4b31      	ldr	r3, [pc, #196]	; (10000be4 <get_date_string+0x164>)
10000b20:	791a      	ldrb	r2, [r3, #4]
10000b22:	4b37      	ldr	r3, [pc, #220]	; (10000c00 <get_date_string+0x180>)
10000b24:	781b      	ldrb	r3, [r3, #0]
10000b26:	9301      	str	r3, [sp, #4]
10000b28:	4b36      	ldr	r3, [pc, #216]	; (10000c04 <get_date_string+0x184>)
10000b2a:	781b      	ldrb	r3, [r3, #0]
10000b2c:	9300      	str	r3, [sp, #0]
10000b2e:	ab05      	add	r3, sp, #20
10000b30:	4935      	ldr	r1, [pc, #212]	; (10000c08 <get_date_string+0x188>)
10000b32:	f007 fa2f 	bl	10007f94 <__wrap_sprintf>
10000b36:	e7c4      	b.n	10000ac2 <get_date_string+0x42>
10000b38:	ab05      	add	r3, sp, #20
10000b3a:	4a34      	ldr	r2, [pc, #208]	; (10000c0c <get_date_string+0x18c>)
10000b3c:	8811      	ldrh	r1, [r2, #0]
10000b3e:	8019      	strh	r1, [r3, #0]
10000b40:	7892      	ldrb	r2, [r2, #2]
10000b42:	709a      	strb	r2, [r3, #2]
10000b44:	e7e7      	b.n	10000b16 <get_date_string+0x96>
10000b46:	ab05      	add	r3, sp, #20
10000b48:	4a31      	ldr	r2, [pc, #196]	; (10000c10 <get_date_string+0x190>)
10000b4a:	8811      	ldrh	r1, [r2, #0]
10000b4c:	8019      	strh	r1, [r3, #0]
10000b4e:	7892      	ldrb	r2, [r2, #2]
10000b50:	709a      	strb	r2, [r3, #2]
10000b52:	e7e0      	b.n	10000b16 <get_date_string+0x96>
10000b54:	ab05      	add	r3, sp, #20
10000b56:	4a2f      	ldr	r2, [pc, #188]	; (10000c14 <get_date_string+0x194>)
10000b58:	8811      	ldrh	r1, [r2, #0]
10000b5a:	8019      	strh	r1, [r3, #0]
10000b5c:	7892      	ldrb	r2, [r2, #2]
10000b5e:	709a      	strb	r2, [r3, #2]
10000b60:	e7d9      	b.n	10000b16 <get_date_string+0x96>
10000b62:	4d20      	ldr	r5, [pc, #128]	; (10000be4 <get_date_string+0x164>)
10000b64:	78e9      	ldrb	r1, [r5, #3]
10000b66:	008a      	lsls	r2, r1, #2
10000b68:	1852      	adds	r2, r2, r1
10000b6a:	0052      	lsls	r2, r2, #1
10000b6c:	0099      	lsls	r1, r3, #2
10000b6e:	18cb      	adds	r3, r1, r3
10000b70:	011b      	lsls	r3, r3, #4
10000b72:	18d2      	adds	r2, r2, r3
10000b74:	4b1d      	ldr	r3, [pc, #116]	; (10000bec <get_date_string+0x16c>)
10000b76:	18d2      	adds	r2, r2, r3
10000b78:	4927      	ldr	r1, [pc, #156]	; (10000c18 <get_date_string+0x198>)
10000b7a:	0020      	movs	r0, r4
10000b7c:	f007 fa0a 	bl	10007f94 <__wrap_sprintf>
10000b80:	792d      	ldrb	r5, [r5, #4]
10000b82:	2d01      	cmp	r5, #1
10000b84:	d025      	beq.n	10000bd2 <get_date_string+0x152>
10000b86:	0020      	movs	r0, r4
10000b88:	f008 fb4c 	bl	10009224 <strlen>
10000b8c:	1820      	adds	r0, r4, r0
10000b8e:	002a      	movs	r2, r5
10000b90:	4922      	ldr	r1, [pc, #136]	; (10000c1c <get_date_string+0x19c>)
10000b92:	f007 f9ff 	bl	10007f94 <__wrap_sprintf>
10000b96:	0020      	movs	r0, r4
10000b98:	f008 fb44 	bl	10009224 <strlen>
10000b9c:	1820      	adds	r0, r4, r0
10000b9e:	00b2      	lsls	r2, r6, #2
10000ba0:	1992      	adds	r2, r2, r6
10000ba2:	0052      	lsls	r2, r2, #1
10000ba4:	4b10      	ldr	r3, [pc, #64]	; (10000be8 <get_date_string+0x168>)
10000ba6:	781b      	ldrb	r3, [r3, #0]
10000ba8:	019e      	lsls	r6, r3, #6
10000baa:	18f6      	adds	r6, r6, r3
10000bac:	0076      	lsls	r6, r6, #1
10000bae:	1992      	adds	r2, r2, r6
10000bb0:	4e0f      	ldr	r6, [pc, #60]	; (10000bf0 <get_date_string+0x170>)
10000bb2:	1992      	adds	r2, r2, r6
10000bb4:	4918      	ldr	r1, [pc, #96]	; (10000c18 <get_date_string+0x198>)
10000bb6:	f007 f9ed 	bl	10007f94 <__wrap_sprintf>
10000bba:	0020      	movs	r0, r4
10000bbc:	f008 fb32 	bl	10009224 <strlen>
10000bc0:	1820      	adds	r0, r4, r0
10000bc2:	4b0f      	ldr	r3, [pc, #60]	; (10000c00 <get_date_string+0x180>)
10000bc4:	781b      	ldrb	r3, [r3, #0]
10000bc6:	4a0f      	ldr	r2, [pc, #60]	; (10000c04 <get_date_string+0x184>)
10000bc8:	7812      	ldrb	r2, [r2, #0]
10000bca:	4915      	ldr	r1, [pc, #84]	; (10000c20 <get_date_string+0x1a0>)
10000bcc:	f007 f9e2 	bl	10007f94 <__wrap_sprintf>
10000bd0:	e77b      	b.n	10000aca <get_date_string+0x4a>
10000bd2:	0020      	movs	r0, r4
10000bd4:	f008 fb26 	bl	10009224 <strlen>
10000bd8:	1820      	adds	r0, r4, r0
10000bda:	002a      	movs	r2, r5
10000bdc:	4911      	ldr	r1, [pc, #68]	; (10000c24 <get_date_string+0x1a4>)
10000bde:	f007 f9d9 	bl	10007f94 <__wrap_sprintf>
10000be2:	e7d8      	b.n	10000b96 <get_date_string+0x116>
10000be4:	20002768 	.word	0x20002768
10000be8:	20000771 	.word	0x20000771
10000bec:	20000668 	.word	0x20000668
10000bf0:	200007a4 	.word	0x200007a4
10000bf4:	1000932c 	.word	0x1000932c
10000bf8:	10009378 	.word	0x10009378
10000bfc:	10009334 	.word	0x10009334
10000c00:	20002b4a 	.word	0x20002b4a
10000c04:	20000664 	.word	0x20000664
10000c08:	10009344 	.word	0x10009344
10000c0c:	10009338 	.word	0x10009338
10000c10:	1000933c 	.word	0x1000933c
10000c14:	10009340 	.word	0x10009340
10000c18:	10009358 	.word	0x10009358
10000c1c:	10009364 	.word	0x10009364
10000c20:	10009368 	.word	0x10009368
10000c24:	1000935c 	.word	0x1000935c

10000c28 <get_month_days>:
10000c28:	b570      	push	{r4, r5, r6, lr}
10000c2a:	0005      	movs	r5, r0
10000c2c:	000c      	movs	r4, r1
10000c2e:	0783      	lsls	r3, r0, #30
10000c30:	d105      	bne.n	10000c3e <get_month_days+0x16>
10000c32:	2164      	movs	r1, #100	; 0x64
10000c34:	f007 fa2e 	bl	10008094 <__wrap___aeabi_uidiv>
10000c38:	b289      	uxth	r1, r1
10000c3a:	2900      	cmp	r1, #0
10000c3c:	d107      	bne.n	10000c4e <get_month_days+0x26>
10000c3e:	21c8      	movs	r1, #200	; 0xc8
10000c40:	0049      	lsls	r1, r1, #1
10000c42:	0028      	movs	r0, r5
10000c44:	f007 fa26 	bl	10008094 <__wrap___aeabi_uidiv>
10000c48:	b289      	uxth	r1, r1
10000c4a:	2900      	cmp	r1, #0
10000c4c:	d129      	bne.n	10000ca2 <get_month_days+0x7a>
10000c4e:	2c0c      	cmp	r4, #12
10000c50:	d805      	bhi.n	10000c5e <get_month_days+0x36>
10000c52:	00a4      	lsls	r4, r4, #2
10000c54:	4b28      	ldr	r3, [pc, #160]	; (10000cf8 <get_month_days+0xd0>)
10000c56:	591b      	ldr	r3, [r3, r4]
10000c58:	469f      	mov	pc, r3
10000c5a:	4b28      	ldr	r3, [pc, #160]	; (10000cfc <get_month_days+0xd4>)
10000c5c:	7818      	ldrb	r0, [r3, #0]
10000c5e:	bd70      	pop	{r4, r5, r6, pc}
10000c60:	4b26      	ldr	r3, [pc, #152]	; (10000cfc <get_month_days+0xd4>)
10000c62:	7858      	ldrb	r0, [r3, #1]
10000c64:	e7fb      	b.n	10000c5e <get_month_days+0x36>
10000c66:	4b25      	ldr	r3, [pc, #148]	; (10000cfc <get_month_days+0xd4>)
10000c68:	7898      	ldrb	r0, [r3, #2]
10000c6a:	e7f8      	b.n	10000c5e <get_month_days+0x36>
10000c6c:	4b23      	ldr	r3, [pc, #140]	; (10000cfc <get_month_days+0xd4>)
10000c6e:	78d8      	ldrb	r0, [r3, #3]
10000c70:	e7f5      	b.n	10000c5e <get_month_days+0x36>
10000c72:	4b22      	ldr	r3, [pc, #136]	; (10000cfc <get_month_days+0xd4>)
10000c74:	7918      	ldrb	r0, [r3, #4]
10000c76:	e7f2      	b.n	10000c5e <get_month_days+0x36>
10000c78:	4b20      	ldr	r3, [pc, #128]	; (10000cfc <get_month_days+0xd4>)
10000c7a:	7958      	ldrb	r0, [r3, #5]
10000c7c:	e7ef      	b.n	10000c5e <get_month_days+0x36>
10000c7e:	4b1f      	ldr	r3, [pc, #124]	; (10000cfc <get_month_days+0xd4>)
10000c80:	7998      	ldrb	r0, [r3, #6]
10000c82:	e7ec      	b.n	10000c5e <get_month_days+0x36>
10000c84:	4b1d      	ldr	r3, [pc, #116]	; (10000cfc <get_month_days+0xd4>)
10000c86:	79d8      	ldrb	r0, [r3, #7]
10000c88:	e7e9      	b.n	10000c5e <get_month_days+0x36>
10000c8a:	4b1c      	ldr	r3, [pc, #112]	; (10000cfc <get_month_days+0xd4>)
10000c8c:	7a18      	ldrb	r0, [r3, #8]
10000c8e:	e7e6      	b.n	10000c5e <get_month_days+0x36>
10000c90:	4b1a      	ldr	r3, [pc, #104]	; (10000cfc <get_month_days+0xd4>)
10000c92:	7a58      	ldrb	r0, [r3, #9]
10000c94:	e7e3      	b.n	10000c5e <get_month_days+0x36>
10000c96:	4b19      	ldr	r3, [pc, #100]	; (10000cfc <get_month_days+0xd4>)
10000c98:	7a98      	ldrb	r0, [r3, #10]
10000c9a:	e7e0      	b.n	10000c5e <get_month_days+0x36>
10000c9c:	4b17      	ldr	r3, [pc, #92]	; (10000cfc <get_month_days+0xd4>)
10000c9e:	7ad8      	ldrb	r0, [r3, #11]
10000ca0:	e7dd      	b.n	10000c5e <get_month_days+0x36>
10000ca2:	2c0c      	cmp	r4, #12
10000ca4:	d8db      	bhi.n	10000c5e <get_month_days+0x36>
10000ca6:	00a4      	lsls	r4, r4, #2
10000ca8:	4b15      	ldr	r3, [pc, #84]	; (10000d00 <get_month_days+0xd8>)
10000caa:	591b      	ldr	r3, [r3, r4]
10000cac:	469f      	mov	pc, r3
10000cae:	4b13      	ldr	r3, [pc, #76]	; (10000cfc <get_month_days+0xd4>)
10000cb0:	7b18      	ldrb	r0, [r3, #12]
10000cb2:	e7d4      	b.n	10000c5e <get_month_days+0x36>
10000cb4:	4b11      	ldr	r3, [pc, #68]	; (10000cfc <get_month_days+0xd4>)
10000cb6:	7b58      	ldrb	r0, [r3, #13]
10000cb8:	e7d1      	b.n	10000c5e <get_month_days+0x36>
10000cba:	4b10      	ldr	r3, [pc, #64]	; (10000cfc <get_month_days+0xd4>)
10000cbc:	7b98      	ldrb	r0, [r3, #14]
10000cbe:	e7ce      	b.n	10000c5e <get_month_days+0x36>
10000cc0:	4b0e      	ldr	r3, [pc, #56]	; (10000cfc <get_month_days+0xd4>)
10000cc2:	7bd8      	ldrb	r0, [r3, #15]
10000cc4:	e7cb      	b.n	10000c5e <get_month_days+0x36>
10000cc6:	4b0d      	ldr	r3, [pc, #52]	; (10000cfc <get_month_days+0xd4>)
10000cc8:	7c18      	ldrb	r0, [r3, #16]
10000cca:	e7c8      	b.n	10000c5e <get_month_days+0x36>
10000ccc:	4b0b      	ldr	r3, [pc, #44]	; (10000cfc <get_month_days+0xd4>)
10000cce:	7c58      	ldrb	r0, [r3, #17]
10000cd0:	e7c5      	b.n	10000c5e <get_month_days+0x36>
10000cd2:	4b0a      	ldr	r3, [pc, #40]	; (10000cfc <get_month_days+0xd4>)
10000cd4:	7c98      	ldrb	r0, [r3, #18]
10000cd6:	e7c2      	b.n	10000c5e <get_month_days+0x36>
10000cd8:	4b08      	ldr	r3, [pc, #32]	; (10000cfc <get_month_days+0xd4>)
10000cda:	7cd8      	ldrb	r0, [r3, #19]
10000cdc:	e7bf      	b.n	10000c5e <get_month_days+0x36>
10000cde:	4b07      	ldr	r3, [pc, #28]	; (10000cfc <get_month_days+0xd4>)
10000ce0:	7d18      	ldrb	r0, [r3, #20]
10000ce2:	e7bc      	b.n	10000c5e <get_month_days+0x36>
10000ce4:	4b05      	ldr	r3, [pc, #20]	; (10000cfc <get_month_days+0xd4>)
10000ce6:	7d58      	ldrb	r0, [r3, #21]
10000ce8:	e7b9      	b.n	10000c5e <get_month_days+0x36>
10000cea:	4b04      	ldr	r3, [pc, #16]	; (10000cfc <get_month_days+0xd4>)
10000cec:	7d98      	ldrb	r0, [r3, #22]
10000cee:	e7b6      	b.n	10000c5e <get_month_days+0x36>
10000cf0:	4b02      	ldr	r3, [pc, #8]	; (10000cfc <get_month_days+0xd4>)
10000cf2:	7dd8      	ldrb	r0, [r3, #23]
10000cf4:	e7b3      	b.n	10000c5e <get_month_days+0x36>
10000cf6:	46c0      	nop			; (mov r8, r8)
10000cf8:	100093f8 	.word	0x100093f8
10000cfc:	2000078c 	.word	0x2000078c
10000d00:	1000942c 	.word	0x1000942c

10000d04 <get_pico_temperature>:
10000d04:	b510      	push	{r4, lr}
10000d06:	0004      	movs	r4, r0
10000d08:	4a3b      	ldr	r2, [pc, #236]	; (10000df8 <get_pico_temperature+0xf4>)
10000d0a:	2302      	movs	r3, #2
10000d0c:	6013      	str	r3, [r2, #0]
10000d0e:	4b3b      	ldr	r3, [pc, #236]	; (10000dfc <get_pico_temperature+0xf8>)
10000d10:	6819      	ldr	r1, [r3, #0]
10000d12:	2380      	movs	r3, #128	; 0x80
10000d14:	01db      	lsls	r3, r3, #7
10000d16:	404b      	eors	r3, r1
10000d18:	21e0      	movs	r1, #224	; 0xe0
10000d1a:	01c9      	lsls	r1, r1, #7
10000d1c:	400b      	ands	r3, r1
10000d1e:	4938      	ldr	r1, [pc, #224]	; (10000e00 <get_pico_temperature+0xfc>)
10000d20:	600b      	str	r3, [r1, #0]
10000d22:	2304      	movs	r3, #4
10000d24:	6013      	str	r3, [r2, #0]
10000d26:	4b35      	ldr	r3, [pc, #212]	; (10000dfc <get_pico_temperature+0xf8>)
10000d28:	681b      	ldr	r3, [r3, #0]
10000d2a:	05db      	lsls	r3, r3, #23
10000d2c:	d5fb      	bpl.n	10000d26 <get_pico_temperature+0x22>
10000d2e:	4b33      	ldr	r3, [pc, #204]	; (10000dfc <get_pico_temperature+0xf8>)
10000d30:	6858      	ldr	r0, [r3, #4]
10000d32:	0400      	lsls	r0, r0, #16
10000d34:	0c00      	lsrs	r0, r0, #16
10000d36:	f007 fc81 	bl	1000863c <__wrap___aeabi_i2d>
10000d3a:	2200      	movs	r2, #0
10000d3c:	4b31      	ldr	r3, [pc, #196]	; (10000e04 <get_pico_temperature+0x100>)
10000d3e:	f007 fc10 	bl	10008562 <__wrap___aeabi_dmul>
10000d42:	2200      	movs	r2, #0
10000d44:	4b30      	ldr	r3, [pc, #192]	; (10000e08 <get_pico_temperature+0x104>)
10000d46:	f007 fc0c 	bl	10008562 <__wrap___aeabi_dmul>
10000d4a:	f007 fcbb 	bl	100086c4 <__wrap___aeabi_d2f>
10000d4e:	4b2f      	ldr	r3, [pc, #188]	; (10000e0c <get_pico_temperature+0x108>)
10000d50:	781b      	ldrb	r3, [r3, #0]
10000d52:	2b00      	cmp	r3, #0
10000d54:	d121      	bne.n	10000d9a <get_pico_temperature+0x96>
10000d56:	f007 fdaf 	bl	100088b8 <__wrap___aeabi_f2d>
10000d5a:	4a2d      	ldr	r2, [pc, #180]	; (10000e10 <get_pico_temperature+0x10c>)
10000d5c:	4b2d      	ldr	r3, [pc, #180]	; (10000e14 <get_pico_temperature+0x110>)
10000d5e:	f007 fbdc 	bl	1000851a <__wrap___aeabi_dsub>
10000d62:	4a2d      	ldr	r2, [pc, #180]	; (10000e18 <get_pico_temperature+0x114>)
10000d64:	4b2d      	ldr	r3, [pc, #180]	; (10000e1c <get_pico_temperature+0x118>)
10000d66:	f007 fbe2 	bl	1000852e <__wrap___aeabi_ddiv>
10000d6a:	0002      	movs	r2, r0
10000d6c:	000b      	movs	r3, r1
10000d6e:	2000      	movs	r0, #0
10000d70:	492b      	ldr	r1, [pc, #172]	; (10000e20 <get_pico_temperature+0x11c>)
10000d72:	f007 fbd2 	bl	1000851a <__wrap___aeabi_dsub>
10000d76:	0002      	movs	r2, r0
10000d78:	000b      	movs	r3, r1
10000d7a:	492a      	ldr	r1, [pc, #168]	; (10000e24 <get_pico_temperature+0x120>)
10000d7c:	0020      	movs	r0, r4
10000d7e:	f007 f909 	bl	10007f94 <__wrap_sprintf>
10000d82:	0020      	movs	r0, r4
10000d84:	f008 fa4e 	bl	10009224 <strlen>
10000d88:	23ff      	movs	r3, #255	; 0xff
10000d8a:	4018      	ands	r0, r3
10000d8c:	3b7f      	subs	r3, #127	; 0x7f
10000d8e:	5423      	strb	r3, [r4, r0]
10000d90:	3001      	adds	r0, #1
10000d92:	1824      	adds	r4, r4, r0
10000d94:	2300      	movs	r3, #0
10000d96:	7023      	strb	r3, [r4, #0]
10000d98:	bd10      	pop	{r4, pc}
10000d9a:	f007 fd8d 	bl	100088b8 <__wrap___aeabi_f2d>
10000d9e:	4a1c      	ldr	r2, [pc, #112]	; (10000e10 <get_pico_temperature+0x10c>)
10000da0:	4b1c      	ldr	r3, [pc, #112]	; (10000e14 <get_pico_temperature+0x110>)
10000da2:	f007 fbba 	bl	1000851a <__wrap___aeabi_dsub>
10000da6:	4a1c      	ldr	r2, [pc, #112]	; (10000e18 <get_pico_temperature+0x114>)
10000da8:	4b1c      	ldr	r3, [pc, #112]	; (10000e1c <get_pico_temperature+0x118>)
10000daa:	f007 fbc0 	bl	1000852e <__wrap___aeabi_ddiv>
10000dae:	0002      	movs	r2, r0
10000db0:	000b      	movs	r3, r1
10000db2:	2000      	movs	r0, #0
10000db4:	491a      	ldr	r1, [pc, #104]	; (10000e20 <get_pico_temperature+0x11c>)
10000db6:	f007 fbb0 	bl	1000851a <__wrap___aeabi_dsub>
10000dba:	2200      	movs	r2, #0
10000dbc:	4b1a      	ldr	r3, [pc, #104]	; (10000e28 <get_pico_temperature+0x124>)
10000dbe:	f007 fbd0 	bl	10008562 <__wrap___aeabi_dmul>
10000dc2:	2200      	movs	r2, #0
10000dc4:	4b19      	ldr	r3, [pc, #100]	; (10000e2c <get_pico_temperature+0x128>)
10000dc6:	f007 fbb2 	bl	1000852e <__wrap___aeabi_ddiv>
10000dca:	2200      	movs	r2, #0
10000dcc:	4b18      	ldr	r3, [pc, #96]	; (10000e30 <get_pico_temperature+0x12c>)
10000dce:	f007 fba9 	bl	10008524 <__wrap___aeabi_dadd>
10000dd2:	0002      	movs	r2, r0
10000dd4:	000b      	movs	r3, r1
10000dd6:	4913      	ldr	r1, [pc, #76]	; (10000e24 <get_pico_temperature+0x120>)
10000dd8:	0020      	movs	r0, r4
10000dda:	f007 f8db 	bl	10007f94 <__wrap_sprintf>
10000dde:	0020      	movs	r0, r4
10000de0:	f008 fa20 	bl	10009224 <strlen>
10000de4:	23ff      	movs	r3, #255	; 0xff
10000de6:	4018      	ands	r0, r3
10000de8:	3b7e      	subs	r3, #126	; 0x7e
10000dea:	5423      	strb	r3, [r4, r0]
10000dec:	3001      	adds	r0, #1
10000dee:	1824      	adds	r4, r4, r0
10000df0:	2300      	movs	r3, #0
10000df2:	7023      	strb	r3, [r4, #0]
10000df4:	e7d0      	b.n	10000d98 <get_pico_temperature+0x94>
10000df6:	46c0      	nop			; (mov r8, r8)
10000df8:	4004e000 	.word	0x4004e000
10000dfc:	4004c000 	.word	0x4004c000
10000e00:	4004d000 	.word	0x4004d000
10000e04:	400a0000 	.word	0x400a0000
10000e08:	3f300000 	.word	0x3f300000
10000e0c:	20002b6d 	.word	0x20002b6d
10000e10:	4fdf3b64 	.word	0x4fdf3b64
10000e14:	3fe6978d 	.word	0x3fe6978d
10000e18:	add9c27f 	.word	0xadd9c27f
10000e1c:	3f5c3265 	.word	0x3f5c3265
10000e20:	403b0000 	.word	0x403b0000
10000e24:	10009460 	.word	0x10009460
10000e28:	40220000 	.word	0x40220000
10000e2c:	40140000 	.word	0x40140000
10000e30:	40400000 	.word	0x40400000

10000e34 <get_voltage>:
10000e34:	b510      	push	{r4, lr}
10000e36:	0004      	movs	r4, r0
10000e38:	4b14      	ldr	r3, [pc, #80]	; (10000e8c <get_voltage+0x58>)
10000e3a:	681a      	ldr	r2, [r3, #0]
10000e3c:	23c0      	movs	r3, #192	; 0xc0
10000e3e:	019b      	lsls	r3, r3, #6
10000e40:	4053      	eors	r3, r2
10000e42:	22e0      	movs	r2, #224	; 0xe0
10000e44:	01d2      	lsls	r2, r2, #7
10000e46:	4013      	ands	r3, r2
10000e48:	4a11      	ldr	r2, [pc, #68]	; (10000e90 <get_voltage+0x5c>)
10000e4a:	6013      	str	r3, [r2, #0]
10000e4c:	4b11      	ldr	r3, [pc, #68]	; (10000e94 <get_voltage+0x60>)
10000e4e:	2204      	movs	r2, #4
10000e50:	601a      	str	r2, [r3, #0]
10000e52:	4b0e      	ldr	r3, [pc, #56]	; (10000e8c <get_voltage+0x58>)
10000e54:	681b      	ldr	r3, [r3, #0]
10000e56:	05db      	lsls	r3, r3, #23
10000e58:	d5fb      	bpl.n	10000e52 <get_voltage+0x1e>
10000e5a:	4b0c      	ldr	r3, [pc, #48]	; (10000e8c <get_voltage+0x58>)
10000e5c:	685b      	ldr	r3, [r3, #4]
10000e5e:	041b      	lsls	r3, r3, #16
10000e60:	0c18      	lsrs	r0, r3, #16
10000e62:	f007 fd01 	bl	10008868 <__wrap___aeabi_i2f>
10000e66:	490c      	ldr	r1, [pc, #48]	; (10000e98 <get_voltage+0x64>)
10000e68:	f007 fcf1 	bl	1000884e <__wrap___aeabi_fmul>
10000e6c:	21e6      	movs	r1, #230	; 0xe6
10000e6e:	0589      	lsls	r1, r1, #22
10000e70:	f007 fced 	bl	1000884e <__wrap___aeabi_fmul>
10000e74:	4909      	ldr	r1, [pc, #36]	; (10000e9c <get_voltage+0x68>)
10000e76:	f007 fcea 	bl	1000884e <__wrap___aeabi_fmul>
10000e7a:	f007 fd1d 	bl	100088b8 <__wrap___aeabi_f2d>
10000e7e:	0002      	movs	r2, r0
10000e80:	000b      	movs	r3, r1
10000e82:	4907      	ldr	r1, [pc, #28]	; (10000ea0 <get_voltage+0x6c>)
10000e84:	0020      	movs	r0, r4
10000e86:	f007 f885 	bl	10007f94 <__wrap_sprintf>
10000e8a:	bd10      	pop	{r4, pc}
10000e8c:	4004c000 	.word	0x4004c000
10000e90:	4004d000 	.word	0x4004d000
10000e94:	4004e000 	.word	0x4004e000
10000e98:	40500000 	.word	0x40500000
10000e9c:	40400000 	.word	0x40400000
10000ea0:	10009474 	.word	0x10009474

10000ea4 <get_weekday>:
10000ea4:	b570      	push	{r4, r5, r6, lr}
10000ea6:	0005      	movs	r5, r0
10000ea8:	0014      	movs	r4, r2
10000eaa:	1e4b      	subs	r3, r1, #1
10000eac:	b2db      	uxtb	r3, r3
10000eae:	2b01      	cmp	r3, #1
10000eb0:	d924      	bls.n	10000efc <get_weekday+0x58>
10000eb2:	3401      	adds	r4, #1
10000eb4:	004a      	lsls	r2, r1, #1
10000eb6:	18a4      	adds	r4, r4, r2
10000eb8:	3101      	adds	r1, #1
10000eba:	0048      	lsls	r0, r1, #1
10000ebc:	1840      	adds	r0, r0, r1
10000ebe:	2105      	movs	r1, #5
10000ec0:	f007 f8c0 	bl	10008044 <__wrap___aeabi_idiv>
10000ec4:	1824      	adds	r4, r4, r0
10000ec6:	192c      	adds	r4, r5, r4
10000ec8:	08a8      	lsrs	r0, r5, #2
10000eca:	1824      	adds	r4, r4, r0
10000ecc:	2164      	movs	r1, #100	; 0x64
10000ece:	0028      	movs	r0, r5
10000ed0:	f007 f8e0 	bl	10008094 <__wrap___aeabi_uidiv>
10000ed4:	b280      	uxth	r0, r0
10000ed6:	1a24      	subs	r4, r4, r0
10000ed8:	21c8      	movs	r1, #200	; 0xc8
10000eda:	0049      	lsls	r1, r1, #1
10000edc:	0028      	movs	r0, r5
10000ede:	f007 f8d9 	bl	10008094 <__wrap___aeabi_uidiv>
10000ee2:	b280      	uxth	r0, r0
10000ee4:	1820      	adds	r0, r4, r0
10000ee6:	2107      	movs	r1, #7
10000ee8:	f007 f8ac 	bl	10008044 <__wrap___aeabi_idiv>
10000eec:	23ff      	movs	r3, #255	; 0xff
10000eee:	4019      	ands	r1, r3
10000ef0:	2906      	cmp	r1, #6
10000ef2:	d813      	bhi.n	10000f1c <get_weekday+0x78>
10000ef4:	0089      	lsls	r1, r1, #2
10000ef6:	4b0b      	ldr	r3, [pc, #44]	; (10000f24 <get_weekday+0x80>)
10000ef8:	585b      	ldr	r3, [r3, r1]
10000efa:	469f      	mov	pc, r3
10000efc:	310c      	adds	r1, #12
10000efe:	b2c9      	uxtb	r1, r1
10000f00:	3d01      	subs	r5, #1
10000f02:	b2ad      	uxth	r5, r5
10000f04:	e7d5      	b.n	10000eb2 <get_weekday+0xe>
10000f06:	2002      	movs	r0, #2
10000f08:	e008      	b.n	10000f1c <get_weekday+0x78>
10000f0a:	2003      	movs	r0, #3
10000f0c:	e006      	b.n	10000f1c <get_weekday+0x78>
10000f0e:	2004      	movs	r0, #4
10000f10:	e004      	b.n	10000f1c <get_weekday+0x78>
10000f12:	2005      	movs	r0, #5
10000f14:	e002      	b.n	10000f1c <get_weekday+0x78>
10000f16:	2006      	movs	r0, #6
10000f18:	e000      	b.n	10000f1c <get_weekday+0x78>
10000f1a:	2007      	movs	r0, #7
10000f1c:	bd70      	pop	{r4, r5, r6, pc}
10000f1e:	2001      	movs	r0, #1
10000f20:	e7fc      	b.n	10000f1c <get_weekday+0x78>
10000f22:	46c0      	nop			; (mov r8, r8)
10000f24:	10009480 	.word	0x10009480

10000f28 <init_gpio>:
10000f28:	b510      	push	{r4, lr}
10000f2a:	f007 fe73 	bl	10008c14 <stdio_init_all>
10000f2e:	2010      	movs	r0, #16
10000f30:	f004 f8d8 	bl	100050e4 <gpio_init>
10000f34:	2012      	movs	r0, #18
10000f36:	f004 f8d5 	bl	100050e4 <gpio_init>
10000f3a:	2016      	movs	r0, #22
10000f3c:	f004 f8d2 	bl	100050e4 <gpio_init>
10000f40:	200a      	movs	r0, #10
10000f42:	f004 f8cf 	bl	100050e4 <gpio_init>
10000f46:	200c      	movs	r0, #12
10000f48:	f004 f8cc 	bl	100050e4 <gpio_init>
10000f4c:	200d      	movs	r0, #13
10000f4e:	f004 f8c9 	bl	100050e4 <gpio_init>
10000f52:	200b      	movs	r0, #11
10000f54:	f004 f8c6 	bl	100050e4 <gpio_init>
10000f58:	2003      	movs	r0, #3
10000f5a:	f004 f8c3 	bl	100050e4 <gpio_init>
10000f5e:	2009      	movs	r0, #9
10000f60:	f004 f8c0 	bl	100050e4 <gpio_init>
10000f64:	2002      	movs	r0, #2
10000f66:	f004 f8bd 	bl	100050e4 <gpio_init>
10000f6a:	2011      	movs	r0, #17
10000f6c:	f004 f8ba 	bl	100050e4 <gpio_init>
10000f70:	200f      	movs	r0, #15
10000f72:	f004 f8b7 	bl	100050e4 <gpio_init>
10000f76:	2196      	movs	r1, #150	; 0x96
10000f78:	4c33      	ldr	r4, [pc, #204]	; (10001048 <init_gpio+0x120>)
10000f7a:	0209      	lsls	r1, r1, #8
10000f7c:	0020      	movs	r0, r4
10000f7e:	f005 fcb9 	bl	100068f4 <uart_init>
10000f82:	2102      	movs	r1, #2
10000f84:	2005      	movs	r0, #5
10000f86:	f004 f863 	bl	10005050 <gpio_set_function>
10000f8a:	2102      	movs	r1, #2
10000f8c:	2004      	movs	r0, #4
10000f8e:	f004 f85f 	bl	10005050 <gpio_set_function>
10000f92:	6ae2      	ldr	r2, [r4, #44]	; 0x2c
10000f94:	2360      	movs	r3, #96	; 0x60
10000f96:	4053      	eors	r3, r2
10000f98:	226e      	movs	r2, #110	; 0x6e
10000f9a:	401a      	ands	r2, r3
10000f9c:	2480      	movs	r4, #128	; 0x80
10000f9e:	0164      	lsls	r4, r4, #5
10000fa0:	4b2a      	ldr	r3, [pc, #168]	; (1000104c <init_gpio+0x124>)
10000fa2:	4323      	orrs	r3, r4
10000fa4:	601a      	str	r2, [r3, #0]
10000fa6:	200e      	movs	r0, #14
10000fa8:	f004 f89c 	bl	100050e4 <gpio_init>
10000fac:	23d0      	movs	r3, #208	; 0xd0
10000fae:	061b      	lsls	r3, r3, #24
10000fb0:	2280      	movs	r2, #128	; 0x80
10000fb2:	01d2      	lsls	r2, r2, #7
10000fb4:	625a      	str	r2, [r3, #36]	; 0x24
10000fb6:	2280      	movs	r2, #128	; 0x80
10000fb8:	0252      	lsls	r2, r2, #9
10000fba:	625a      	str	r2, [r3, #36]	; 0x24
10000fbc:	2280      	movs	r2, #128	; 0x80
10000fbe:	02d2      	lsls	r2, r2, #11
10000fc0:	625a      	str	r2, [r3, #36]	; 0x24
10000fc2:	2280      	movs	r2, #128	; 0x80
10000fc4:	03d2      	lsls	r2, r2, #15
10000fc6:	625a      	str	r2, [r3, #36]	; 0x24
10000fc8:	2280      	movs	r2, #128	; 0x80
10000fca:	00d2      	lsls	r2, r2, #3
10000fcc:	625a      	str	r2, [r3, #36]	; 0x24
10000fce:	625c      	str	r4, [r3, #36]	; 0x24
10000fd0:	2280      	movs	r2, #128	; 0x80
10000fd2:	0192      	lsls	r2, r2, #6
10000fd4:	625a      	str	r2, [r3, #36]	; 0x24
10000fd6:	2280      	movs	r2, #128	; 0x80
10000fd8:	0112      	lsls	r2, r2, #4
10000fda:	625a      	str	r2, [r3, #36]	; 0x24
10000fdc:	2208      	movs	r2, #8
10000fde:	629a      	str	r2, [r3, #40]	; 0x28
10000fe0:	491b      	ldr	r1, [pc, #108]	; (10001050 <init_gpio+0x128>)
10000fe2:	481c      	ldr	r0, [pc, #112]	; (10001054 <init_gpio+0x12c>)
10000fe4:	f008 f83e 	bl	10009064 <i2c_init>
10000fe8:	2103      	movs	r1, #3
10000fea:	2006      	movs	r0, #6
10000fec:	f004 f830 	bl	10005050 <gpio_set_function>
10000ff0:	2103      	movs	r1, #3
10000ff2:	2007      	movs	r0, #7
10000ff4:	f004 f82c 	bl	10005050 <gpio_set_function>
10000ff8:	2200      	movs	r2, #0
10000ffa:	2101      	movs	r1, #1
10000ffc:	2006      	movs	r0, #6
10000ffe:	f004 f83f 	bl	10005080 <gpio_set_pulls>
10001002:	2200      	movs	r2, #0
10001004:	2101      	movs	r1, #1
10001006:	2007      	movs	r0, #7
10001008:	f004 f83a 	bl	10005080 <gpio_set_pulls>
1000100c:	f008 f86e 	bl	100090ec <adc_init>
10001010:	211f      	movs	r1, #31
10001012:	201a      	movs	r0, #26
10001014:	f004 f81c 	bl	10005050 <gpio_set_function>
10001018:	2200      	movs	r2, #0
1000101a:	2100      	movs	r1, #0
1000101c:	201a      	movs	r0, #26
1000101e:	f004 f82f 	bl	10005080 <gpio_set_pulls>
10001022:	2100      	movs	r1, #0
10001024:	201a      	movs	r0, #26
10001026:	f004 f845 	bl	100050b4 <gpio_set_input_enabled>
1000102a:	211f      	movs	r1, #31
1000102c:	201d      	movs	r0, #29
1000102e:	f004 f80f 	bl	10005050 <gpio_set_function>
10001032:	2200      	movs	r2, #0
10001034:	2100      	movs	r1, #0
10001036:	201d      	movs	r0, #29
10001038:	f004 f822 	bl	10005080 <gpio_set_pulls>
1000103c:	2100      	movs	r1, #0
1000103e:	201d      	movs	r0, #29
10001040:	f004 f838 	bl	100050b4 <gpio_set_input_enabled>
10001044:	2000      	movs	r0, #0
10001046:	bd10      	pop	{r4, pc}
10001048:	40038000 	.word	0x40038000
1000104c:	4003802c 	.word	0x4003802c
10001050:	000186a0 	.word	0x000186a0
10001054:	20000aac 	.word	0x20000aac

10001058 <reverse_bits>:
10001058:	2300      	movs	r3, #0
1000105a:	2201      	movs	r2, #1
1000105c:	e001      	b.n	10001062 <reverse_bits+0xa>
1000105e:	0052      	lsls	r2, r2, #1
10001060:	b2d2      	uxtb	r2, r2
10001062:	2a00      	cmp	r2, #0
10001064:	d007      	beq.n	10001076 <reverse_bits+0x1e>
10001066:	005b      	lsls	r3, r3, #1
10001068:	b2db      	uxtb	r3, r3
1000106a:	4210      	tst	r0, r2
1000106c:	d0f7      	beq.n	1000105e <reverse_bits+0x6>
1000106e:	2101      	movs	r1, #1
10001070:	430b      	orrs	r3, r1
10001072:	b2db      	uxtb	r3, r3
10001074:	e7f3      	b.n	1000105e <reverse_bits+0x6>
10001076:	08d8      	lsrs	r0, r3, #3
10001078:	4770      	bx	lr
	...

1000107c <fill_display_buffer_5X7>:
1000107c:	b5f0      	push	{r4, r5, r6, r7, lr}
1000107e:	46de      	mov	lr, fp
10001080:	4657      	mov	r7, sl
10001082:	464e      	mov	r6, r9
10001084:	4645      	mov	r5, r8
10001086:	b5e0      	push	{r5, r6, r7, lr}
10001088:	b083      	sub	sp, #12
1000108a:	9000      	str	r0, [sp, #0]
1000108c:	2801      	cmp	r0, #1
1000108e:	d917      	bls.n	100010c0 <fill_display_buffer_5X7+0x44>
10001090:	9b00      	ldr	r3, [sp, #0]
10001092:	08da      	lsrs	r2, r3, #3
10001094:	4693      	mov	fp, r2
10001096:	2707      	movs	r7, #7
10001098:	401f      	ands	r7, r3
1000109a:	2900      	cmp	r1, #0
1000109c:	d100      	bne.n	100010a0 <fill_display_buffer_5X7+0x24>
1000109e:	3120      	adds	r1, #32
100010a0:	000b      	movs	r3, r1
100010a2:	3b1e      	subs	r3, #30
100010a4:	b2db      	uxtb	r3, r3
100010a6:	2b63      	cmp	r3, #99	; 0x63
100010a8:	d80d      	bhi.n	100010c6 <fill_display_buffer_5X7+0x4a>
100010aa:	391e      	subs	r1, #30
100010ac:	b28a      	uxth	r2, r1
100010ae:	00d3      	lsls	r3, r2, #3
100010b0:	1a9b      	subs	r3, r3, r2
100010b2:	b29b      	uxth	r3, r3
100010b4:	469a      	mov	sl, r3
100010b6:	4b2b      	ldr	r3, [pc, #172]	; (10001164 <fill_display_buffer_5X7+0xe8>)
100010b8:	5c5b      	ldrb	r3, [r3, r1]
100010ba:	9301      	str	r3, [sp, #4]
100010bc:	2401      	movs	r4, #1
100010be:	e017      	b.n	100010f0 <fill_display_buffer_5X7+0x74>
100010c0:	2302      	movs	r3, #2
100010c2:	9300      	str	r3, [sp, #0]
100010c4:	e7e4      	b.n	10001090 <fill_display_buffer_5X7+0x14>
100010c6:	393f      	subs	r1, #63	; 0x3f
100010c8:	4b26      	ldr	r3, [pc, #152]	; (10001164 <fill_display_buffer_5X7+0xe8>)
100010ca:	5c5b      	ldrb	r3, [r3, r1]
100010cc:	9301      	str	r3, [sp, #4]
100010ce:	23e7      	movs	r3, #231	; 0xe7
100010d0:	469a      	mov	sl, r3
100010d2:	e7f3      	b.n	100010bc <fill_display_buffer_5X7+0x40>
100010d4:	4653      	mov	r3, sl
100010d6:	191b      	adds	r3, r3, r4
100010d8:	3b01      	subs	r3, #1
100010da:	465a      	mov	r2, fp
100010dc:	00d5      	lsls	r5, r2, #3
100010de:	1965      	adds	r5, r4, r5
100010e0:	4a21      	ldr	r2, [pc, #132]	; (10001168 <fill_display_buffer_5X7+0xec>)
100010e2:	5cd0      	ldrb	r0, [r2, r3]
100010e4:	f7ff ffb8 	bl	10001058 <reverse_bits>
100010e8:	4b20      	ldr	r3, [pc, #128]	; (1000116c <fill_display_buffer_5X7+0xf0>)
100010ea:	5558      	strb	r0, [r3, r5]
100010ec:	3401      	adds	r4, #1
100010ee:	b2e4      	uxtb	r4, r4
100010f0:	2c07      	cmp	r4, #7
100010f2:	d82c      	bhi.n	1000114e <fill_display_buffer_5X7+0xd2>
100010f4:	2f00      	cmp	r7, #0
100010f6:	d0ed      	beq.n	100010d4 <fill_display_buffer_5X7+0x58>
100010f8:	465b      	mov	r3, fp
100010fa:	00dd      	lsls	r5, r3, #3
100010fc:	192d      	adds	r5, r5, r4
100010fe:	4b1b      	ldr	r3, [pc, #108]	; (1000116c <fill_display_buffer_5X7+0xf0>)
10001100:	4699      	mov	r9, r3
10001102:	575a      	ldrsb	r2, [r3, r5]
10001104:	2608      	movs	r6, #8
10001106:	1bf6      	subs	r6, r6, r7
10001108:	23ff      	movs	r3, #255	; 0xff
1000110a:	4133      	asrs	r3, r6
1000110c:	4013      	ands	r3, r2
1000110e:	b25b      	sxtb	r3, r3
10001110:	4698      	mov	r8, r3
10001112:	4653      	mov	r3, sl
10001114:	191b      	adds	r3, r3, r4
10001116:	3b01      	subs	r3, #1
10001118:	4a13      	ldr	r2, [pc, #76]	; (10001168 <fill_display_buffer_5X7+0xec>)
1000111a:	5cd0      	ldrb	r0, [r2, r3]
1000111c:	f7ff ff9c 	bl	10001058 <reverse_bits>
10001120:	0003      	movs	r3, r0
10001122:	40bb      	lsls	r3, r7
10001124:	4642      	mov	r2, r8
10001126:	4313      	orrs	r3, r2
10001128:	464a      	mov	r2, r9
1000112a:	5553      	strb	r3, [r2, r5]
1000112c:	9b00      	ldr	r3, [sp, #0]
1000112e:	2bef      	cmp	r3, #239	; 0xef
10001130:	d8dc      	bhi.n	100010ec <fill_display_buffer_5X7+0x70>
10001132:	465b      	mov	r3, fp
10001134:	1c5a      	adds	r2, r3, #1
10001136:	00d2      	lsls	r2, r2, #3
10001138:	18a2      	adds	r2, r4, r2
1000113a:	490c      	ldr	r1, [pc, #48]	; (1000116c <fill_display_buffer_5X7+0xf0>)
1000113c:	568d      	ldrsb	r5, [r1, r2]
1000113e:	23ff      	movs	r3, #255	; 0xff
10001140:	40b3      	lsls	r3, r6
10001142:	402b      	ands	r3, r5
10001144:	b25b      	sxtb	r3, r3
10001146:	4130      	asrs	r0, r6
10001148:	4318      	orrs	r0, r3
1000114a:	5488      	strb	r0, [r1, r2]
1000114c:	e7ce      	b.n	100010ec <fill_display_buffer_5X7+0x70>
1000114e:	9801      	ldr	r0, [sp, #4]
10001150:	9b00      	ldr	r3, [sp, #0]
10001152:	469c      	mov	ip, r3
10001154:	4460      	add	r0, ip
10001156:	b003      	add	sp, #12
10001158:	bcf0      	pop	{r4, r5, r6, r7}
1000115a:	46bb      	mov	fp, r7
1000115c:	46b2      	mov	sl, r6
1000115e:	46a9      	mov	r9, r5
10001160:	46a0      	mov	r8, r4
10001162:	bdf0      	pop	{r4, r5, r6, r7, pc}
10001164:	200005fc 	.word	0x200005fc
10001168:	20000340 	.word	0x20000340
1000116c:	2000195c 	.word	0x2000195c

10001170 <scroll_one_dot>:
10001170:	b5f0      	push	{r4, r5, r6, r7, lr}
10001172:	2701      	movs	r7, #1
10001174:	e020      	b.n	100011b8 <scroll_one_dot+0x48>
10001176:	00da      	lsls	r2, r3, #3
10001178:	18b2      	adds	r2, r6, r2
1000117a:	4815      	ldr	r0, [pc, #84]	; (100011d0 <scroll_one_dot+0x60>)
1000117c:	5c81      	ldrb	r1, [r0, r2]
1000117e:	0849      	lsrs	r1, r1, #1
10001180:	5481      	strb	r1, [r0, r2]
10001182:	3301      	adds	r3, #1
10001184:	b2db      	uxtb	r3, r3
10001186:	2b1e      	cmp	r3, #30
10001188:	d80d      	bhi.n	100011a6 <scroll_one_dot+0x36>
1000118a:	2b1d      	cmp	r3, #29
1000118c:	d8f3      	bhi.n	10001176 <scroll_one_dot+0x6>
1000118e:	00da      	lsls	r2, r3, #3
10001190:	18b2      	adds	r2, r6, r2
10001192:	4c0f      	ldr	r4, [pc, #60]	; (100011d0 <scroll_one_dot+0x60>)
10001194:	5ca0      	ldrb	r0, [r4, r2]
10001196:	0011      	movs	r1, r2
10001198:	3108      	adds	r1, #8
1000119a:	5c65      	ldrb	r5, [r4, r1]
1000119c:	01ed      	lsls	r5, r5, #7
1000119e:	0841      	lsrs	r1, r0, #1
100011a0:	4329      	orrs	r1, r5
100011a2:	54a1      	strb	r1, [r4, r2]
100011a4:	e7ed      	b.n	10001182 <scroll_one_dot+0x12>
100011a6:	4a0a      	ldr	r2, [pc, #40]	; (100011d0 <scroll_one_dot+0x60>)
100011a8:	5793      	ldrsb	r3, [r2, r6]
100011aa:	2103      	movs	r1, #3
100011ac:	438b      	bics	r3, r1
100011ae:	4661      	mov	r1, ip
100011b0:	430b      	orrs	r3, r1
100011b2:	5593      	strb	r3, [r2, r6]
100011b4:	3701      	adds	r7, #1
100011b6:	b2ff      	uxtb	r7, r7
100011b8:	2f07      	cmp	r7, #7
100011ba:	d807      	bhi.n	100011cc <scroll_one_dot+0x5c>
100011bc:	003e      	movs	r6, r7
100011be:	4b04      	ldr	r3, [pc, #16]	; (100011d0 <scroll_one_dot+0x60>)
100011c0:	5ddb      	ldrb	r3, [r3, r7]
100011c2:	2203      	movs	r2, #3
100011c4:	401a      	ands	r2, r3
100011c6:	4694      	mov	ip, r2
100011c8:	2300      	movs	r3, #0
100011ca:	e7dc      	b.n	10001186 <scroll_one_dot+0x16>
100011cc:	bdf0      	pop	{r4, r5, r6, r7, pc}
100011ce:	46c0      	nop			; (mov r8, r8)
100011d0:	2000195c 	.word	0x2000195c

100011d4 <evaluate_scroll_time>:
100011d4:	b510      	push	{r4, lr}
100011d6:	4b13      	ldr	r3, [pc, #76]	; (10001224 <evaluate_scroll_time+0x50>)
100011d8:	781b      	ldrb	r3, [r3, #0]
100011da:	2bff      	cmp	r3, #255	; 0xff
100011dc:	d004      	beq.n	100011e8 <evaluate_scroll_time+0x14>
100011de:	4b12      	ldr	r3, [pc, #72]	; (10001228 <evaluate_scroll_time+0x54>)
100011e0:	781b      	ldrb	r3, [r3, #0]
100011e2:	2b5a      	cmp	r3, #90	; 0x5a
100011e4:	d005      	beq.n	100011f2 <evaluate_scroll_time+0x1e>
100011e6:	bd10      	pop	{r4, pc}
100011e8:	4a0f      	ldr	r2, [pc, #60]	; (10001228 <evaluate_scroll_time+0x54>)
100011ea:	7813      	ldrb	r3, [r2, #0]
100011ec:	3301      	adds	r3, #1
100011ee:	7013      	strb	r3, [r2, #0]
100011f0:	e7f5      	b.n	100011de <evaluate_scroll_time+0xa>
100011f2:	4b0e      	ldr	r3, [pc, #56]	; (1000122c <evaluate_scroll_time+0x58>)
100011f4:	781b      	ldrb	r3, [r3, #0]
100011f6:	2b00      	cmp	r3, #0
100011f8:	d009      	beq.n	1000120e <evaluate_scroll_time+0x3a>
100011fa:	f7ff ffb9 	bl	10001170 <scroll_one_dot>
100011fe:	4a0b      	ldr	r2, [pc, #44]	; (1000122c <evaluate_scroll_time+0x58>)
10001200:	7813      	ldrb	r3, [r2, #0]
10001202:	3b01      	subs	r3, #1
10001204:	7013      	strb	r3, [r2, #0]
10001206:	4b08      	ldr	r3, [pc, #32]	; (10001228 <evaluate_scroll_time+0x54>)
10001208:	2200      	movs	r2, #0
1000120a:	701a      	strb	r2, [r3, #0]
1000120c:	e7eb      	b.n	100011e6 <evaluate_scroll_time+0x12>
1000120e:	2120      	movs	r1, #32
10001210:	2018      	movs	r0, #24
10001212:	f7ff fad1 	bl	100007b8 <fill_display_buffer_4X7>
10001216:	4b03      	ldr	r3, [pc, #12]	; (10001224 <evaluate_scroll_time+0x50>)
10001218:	2200      	movs	r2, #0
1000121a:	701a      	strb	r2, [r3, #0]
1000121c:	4b04      	ldr	r3, [pc, #16]	; (10001230 <evaluate_scroll_time+0x5c>)
1000121e:	32ff      	adds	r2, #255	; 0xff
10001220:	701a      	strb	r2, [r3, #0]
10001222:	e7f0      	b.n	10001206 <evaluate_scroll_time+0x32>
10001224:	20002b52 	.word	0x20002b52
10001228:	20002b69 	.word	0x20002b69
1000122c:	20002b65 	.word	0x20002b65
10001230:	20002b5c 	.word	0x20002b5c

10001234 <scroll_queue>:
10001234:	4b11      	ldr	r3, [pc, #68]	; (1000127c <scroll_queue+0x48>)
10001236:	781b      	ldrb	r3, [r3, #0]
10001238:	2b00      	cmp	r3, #0
1000123a:	d004      	beq.n	10001246 <scroll_queue+0x12>
1000123c:	4a10      	ldr	r2, [pc, #64]	; (10001280 <scroll_queue+0x4c>)
1000123e:	7811      	ldrb	r1, [r2, #0]
10001240:	1e5a      	subs	r2, r3, #1
10001242:	4291      	cmp	r1, r2
10001244:	d013      	beq.n	1000126e <scroll_queue+0x3a>
10001246:	2b00      	cmp	r3, #0
10001248:	d103      	bne.n	10001252 <scroll_queue+0x1e>
1000124a:	4b0d      	ldr	r3, [pc, #52]	; (10001280 <scroll_queue+0x4c>)
1000124c:	781b      	ldrb	r3, [r3, #0]
1000124e:	2b4a      	cmp	r3, #74	; 0x4a
10001250:	d00f      	beq.n	10001272 <scroll_queue+0x3e>
10001252:	4a0b      	ldr	r2, [pc, #44]	; (10001280 <scroll_queue+0x4c>)
10001254:	7813      	ldrb	r3, [r2, #0]
10001256:	490b      	ldr	r1, [pc, #44]	; (10001284 <scroll_queue+0x50>)
10001258:	54c8      	strb	r0, [r1, r3]
1000125a:	3301      	adds	r3, #1
1000125c:	b2db      	uxtb	r3, r3
1000125e:	7013      	strb	r3, [r2, #0]
10001260:	2b4a      	cmp	r3, #74	; 0x4a
10001262:	d908      	bls.n	10001276 <scroll_queue+0x42>
10001264:	0013      	movs	r3, r2
10001266:	2200      	movs	r2, #0
10001268:	701a      	strb	r2, [r3, #0]
1000126a:	2000      	movs	r0, #0
1000126c:	e004      	b.n	10001278 <scroll_queue+0x44>
1000126e:	204b      	movs	r0, #75	; 0x4b
10001270:	e002      	b.n	10001278 <scroll_queue+0x44>
10001272:	204b      	movs	r0, #75	; 0x4b
10001274:	e000      	b.n	10001278 <scroll_queue+0x44>
10001276:	2000      	movs	r0, #0
10001278:	4770      	bx	lr
1000127a:	46c0      	nop			; (mov r8, r8)
1000127c:	20002b67 	.word	0x20002b67
10001280:	20002b66 	.word	0x20002b66
10001284:	20001a90 	.word	0x20001a90

10001288 <scroll_string>:
10001288:	b5f8      	push	{r3, r4, r5, r6, r7, lr}
1000128a:	0004      	movs	r4, r0
1000128c:	000e      	movs	r6, r1
1000128e:	4b24      	ldr	r3, [pc, #144]	; (10001320 <scroll_string+0x98>)
10001290:	781b      	ldrb	r3, [r3, #0]
10001292:	2b03      	cmp	r3, #3
10001294:	d101      	bne.n	1000129a <scroll_string+0x12>
10001296:	2400      	movs	r4, #0
10001298:	e019      	b.n	100012ce <scroll_string+0x46>
1000129a:	2000      	movs	r0, #0
1000129c:	f7ff faf0 	bl	10000880 <clear_framebuffer>
100012a0:	2c00      	cmp	r4, #0
100012a2:	d104      	bne.n	100012ae <scroll_string+0x26>
100012a4:	4b1f      	ldr	r3, [pc, #124]	; (10001324 <scroll_string+0x9c>)
100012a6:	2201      	movs	r2, #1
100012a8:	701a      	strb	r2, [r3, #0]
100012aa:	2400      	movs	r4, #0
100012ac:	e031      	b.n	10001312 <scroll_string+0x8a>
100012ae:	4b1d      	ldr	r3, [pc, #116]	; (10001324 <scroll_string+0x9c>)
100012b0:	701c      	strb	r4, [r3, #0]
100012b2:	e7fa      	b.n	100012aa <scroll_string+0x22>
100012b4:	4d1b      	ldr	r5, [pc, #108]	; (10001324 <scroll_string+0x9c>)
100012b6:	7828      	ldrb	r0, [r5, #0]
100012b8:	2120      	movs	r1, #32
100012ba:	f7ff fedf 	bl	1000107c <fill_display_buffer_5X7>
100012be:	b2c0      	uxtb	r0, r0
100012c0:	7028      	strb	r0, [r5, #0]
100012c2:	2120      	movs	r1, #32
100012c4:	f7ff feda 	bl	1000107c <fill_display_buffer_5X7>
100012c8:	7028      	strb	r0, [r5, #0]
100012ca:	3401      	adds	r4, #1
100012cc:	b2a4      	uxth	r4, r4
100012ce:	2c01      	cmp	r4, #1
100012d0:	d8eb      	bhi.n	100012aa <scroll_string+0x22>
100012d2:	4b14      	ldr	r3, [pc, #80]	; (10001324 <scroll_string+0x9c>)
100012d4:	781b      	ldrb	r3, [r3, #0]
100012d6:	2bee      	cmp	r3, #238	; 0xee
100012d8:	d9ec      	bls.n	100012b4 <scroll_string+0x2c>
100012da:	20e1      	movs	r0, #225	; 0xe1
100012dc:	00c0      	lsls	r0, r0, #3
100012de:	f004 ff43 	bl	10006168 <sleep_ms>
100012e2:	e7e7      	b.n	100012b4 <scroll_string+0x2c>
100012e4:	4810      	ldr	r0, [pc, #64]	; (10001328 <scroll_string+0xa0>)
100012e6:	f004 ff3f 	bl	10006168 <sleep_ms>
100012ea:	4b0e      	ldr	r3, [pc, #56]	; (10001324 <scroll_string+0x9c>)
100012ec:	7818      	ldrb	r0, [r3, #0]
100012ee:	28f1      	cmp	r0, #241	; 0xf1
100012f0:	d8f8      	bhi.n	100012e4 <scroll_string+0x5c>
100012f2:	3001      	adds	r0, #1
100012f4:	b2c0      	uxtb	r0, r0
100012f6:	001d      	movs	r5, r3
100012f8:	7018      	strb	r0, [r3, #0]
100012fa:	5df1      	ldrb	r1, [r6, r7]
100012fc:	f7ff febe 	bl	1000107c <fill_display_buffer_5X7>
10001300:	7028      	strb	r0, [r5, #0]
10001302:	4b07      	ldr	r3, [pc, #28]	; (10001320 <scroll_string+0x98>)
10001304:	2203      	movs	r2, #3
10001306:	701a      	strb	r2, [r3, #0]
10001308:	4b08      	ldr	r3, [pc, #32]	; (1000132c <scroll_string+0xa4>)
1000130a:	32fc      	adds	r2, #252	; 0xfc
1000130c:	701a      	strb	r2, [r3, #0]
1000130e:	3401      	adds	r4, #1
10001310:	b2a4      	uxth	r4, r4
10001312:	0027      	movs	r7, r4
10001314:	0030      	movs	r0, r6
10001316:	f007 ff85 	bl	10009224 <strlen>
1000131a:	4284      	cmp	r4, r0
1000131c:	d3e5      	bcc.n	100012ea <scroll_string+0x62>
1000131e:	bdf8      	pop	{r3, r4, r5, r6, r7, pc}
10001320:	20002b43 	.word	0x20002b43
10001324:	20002b65 	.word	0x20002b65
10001328:	00001518 	.word	0x00001518
1000132c:	20002b52 	.word	0x20002b52

10001330 <scroll_unqueue>:
10001330:	4b0a      	ldr	r3, [pc, #40]	; (1000135c <scroll_unqueue+0x2c>)
10001332:	781a      	ldrb	r2, [r3, #0]
10001334:	4b0a      	ldr	r3, [pc, #40]	; (10001360 <scroll_unqueue+0x30>)
10001336:	781b      	ldrb	r3, [r3, #0]
10001338:	429a      	cmp	r2, r3
1000133a:	d00d      	beq.n	10001358 <scroll_unqueue+0x28>
1000133c:	4a09      	ldr	r2, [pc, #36]	; (10001364 <scroll_unqueue+0x34>)
1000133e:	5cd0      	ldrb	r0, [r2, r3]
10001340:	21aa      	movs	r1, #170	; 0xaa
10001342:	54d1      	strb	r1, [r2, r3]
10001344:	3301      	adds	r3, #1
10001346:	b2db      	uxtb	r3, r3
10001348:	4a05      	ldr	r2, [pc, #20]	; (10001360 <scroll_unqueue+0x30>)
1000134a:	7013      	strb	r3, [r2, #0]
1000134c:	2b4a      	cmp	r3, #74	; 0x4a
1000134e:	d902      	bls.n	10001356 <scroll_unqueue+0x26>
10001350:	0013      	movs	r3, r2
10001352:	2200      	movs	r2, #0
10001354:	701a      	strb	r2, [r3, #0]
10001356:	4770      	bx	lr
10001358:	2032      	movs	r0, #50	; 0x32
1000135a:	e7fc      	b.n	10001356 <scroll_unqueue+0x26>
1000135c:	20002b66 	.word	0x20002b66
10001360:	20002b67 	.word	0x20002b67
10001364:	20001a90 	.word	0x20001a90

10001368 <process_scroll_queue>:
10001368:	b5f0      	push	{r4, r5, r6, r7, lr}
1000136a:	46c6      	mov	lr, r8
1000136c:	b500      	push	{lr}
1000136e:	b0cc      	sub	sp, #304	; 0x130
10001370:	4b95      	ldr	r3, [pc, #596]	; (100015c8 <process_scroll_queue+0x260>)
10001372:	781a      	ldrb	r2, [r3, #0]
10001374:	4b95      	ldr	r3, [pc, #596]	; (100015cc <process_scroll_queue+0x264>)
10001376:	781b      	ldrb	r3, [r3, #0]
10001378:	429a      	cmp	r2, r3
1000137a:	d100      	bne.n	1000137e <process_scroll_queue+0x16>
1000137c:	e11f      	b.n	100015be <process_scroll_queue+0x256>
1000137e:	4b93      	ldr	r3, [pc, #588]	; (100015cc <process_scroll_queue+0x264>)
10001380:	781a      	ldrb	r2, [r3, #0]
10001382:	4b91      	ldr	r3, [pc, #580]	; (100015c8 <process_scroll_queue+0x260>)
10001384:	781b      	ldrb	r3, [r3, #0]
10001386:	429a      	cmp	r2, r3
10001388:	d100      	bne.n	1000138c <process_scroll_queue+0x24>
1000138a:	e118      	b.n	100015be <process_scroll_queue+0x256>
1000138c:	f7ff ffd0 	bl	10001330 <scroll_unqueue>
10001390:	0004      	movs	r4, r0
10001392:	252e      	movs	r5, #46	; 0x2e
10001394:	4345      	muls	r5, r0
10001396:	488e      	ldr	r0, [pc, #568]	; (100015d0 <process_scroll_queue+0x268>)
10001398:	182d      	adds	r5, r5, r0
1000139a:	3504      	adds	r5, #4
1000139c:	498d      	ldr	r1, [pc, #564]	; (100015d4 <process_scroll_queue+0x26c>)
1000139e:	0028      	movs	r0, r5
100013a0:	f007 fefc 	bl	1000919c <strcmp>
100013a4:	2800      	cmp	r0, #0
100013a6:	d00e      	beq.n	100013c6 <process_scroll_queue+0x5e>
100013a8:	2c31      	cmp	r4, #49	; 0x31
100013aa:	d80d      	bhi.n	100013c8 <process_scroll_queue+0x60>
100013ac:	0029      	movs	r1, r5
100013ae:	2018      	movs	r0, #24
100013b0:	f7ff ff6a 	bl	10001288 <scroll_string>
100013b4:	e002      	b.n	100013bc <process_scroll_queue+0x54>
100013b6:	2064      	movs	r0, #100	; 0x64
100013b8:	f004 fed6 	bl	10006168 <sleep_ms>
100013bc:	4b86      	ldr	r3, [pc, #536]	; (100015d8 <process_scroll_queue+0x270>)
100013be:	781b      	ldrb	r3, [r3, #0]
100013c0:	2b00      	cmp	r3, #0
100013c2:	d1f8      	bne.n	100013b6 <process_scroll_queue+0x4e>
100013c4:	e7db      	b.n	1000137e <process_scroll_queue+0x16>
100013c6:	24ff      	movs	r4, #255	; 0xff
100013c8:	340d      	adds	r4, #13
100013ca:	b2e3      	uxtb	r3, r4
100013cc:	2b0c      	cmp	r3, #12
100013ce:	d900      	bls.n	100013d2 <process_scroll_queue+0x6a>
100013d0:	e0f5      	b.n	100015be <process_scroll_queue+0x256>
100013d2:	009c      	lsls	r4, r3, #2
100013d4:	4b81      	ldr	r3, [pc, #516]	; (100015dc <process_scroll_queue+0x274>)
100013d6:	591b      	ldr	r3, [r3, r4]
100013d8:	469f      	mov	pc, r3
100013da:	f003 fca5 	bl	10004d28 <byte_data>
100013de:	4b80      	ldr	r3, [pc, #512]	; (100015e0 <process_scroll_queue+0x278>)
100013e0:	781b      	ldrb	r3, [r3, #0]
100013e2:	2b00      	cmp	r3, #0
100013e4:	d020      	beq.n	10001428 <process_scroll_queue+0xc0>
100013e6:	4a7f      	ldr	r2, [pc, #508]	; (100015e4 <process_scroll_queue+0x27c>)
100013e8:	497f      	ldr	r1, [pc, #508]	; (100015e8 <process_scroll_queue+0x280>)
100013ea:	7a8b      	ldrb	r3, [r1, #10]
100013ec:	4698      	mov	r8, r3
100013ee:	7a48      	ldrb	r0, [r1, #9]
100013f0:	7a0c      	ldrb	r4, [r1, #8]
100013f2:	79cd      	ldrb	r5, [r1, #7]
100013f4:	497a      	ldr	r1, [pc, #488]	; (100015e0 <process_scroll_queue+0x278>)
100013f6:	7949      	ldrb	r1, [r1, #5]
100013f8:	2900      	cmp	r1, #0
100013fa:	d017      	beq.n	1000142c <process_scroll_queue+0xc4>
100013fc:	4e79      	ldr	r6, [pc, #484]	; (100015e4 <process_scroll_queue+0x27c>)
100013fe:	497a      	ldr	r1, [pc, #488]	; (100015e8 <process_scroll_queue+0x280>)
10001400:	7b4f      	ldrb	r7, [r1, #13]
10001402:	7b0b      	ldrb	r3, [r1, #12]
10001404:	7ac9      	ldrb	r1, [r1, #11]
10001406:	9106      	str	r1, [sp, #24]
10001408:	9305      	str	r3, [sp, #20]
1000140a:	9704      	str	r7, [sp, #16]
1000140c:	9603      	str	r6, [sp, #12]
1000140e:	9502      	str	r5, [sp, #8]
10001410:	9401      	str	r4, [sp, #4]
10001412:	9000      	str	r0, [sp, #0]
10001414:	4643      	mov	r3, r8
10001416:	4975      	ldr	r1, [pc, #468]	; (100015ec <process_scroll_queue+0x284>)
10001418:	a80e      	add	r0, sp, #56	; 0x38
1000141a:	f006 fdbb 	bl	10007f94 <__wrap_sprintf>
1000141e:	a90e      	add	r1, sp, #56	; 0x38
10001420:	2018      	movs	r0, #24
10001422:	f7ff ff31 	bl	10001288 <scroll_string>
10001426:	e7aa      	b.n	1000137e <process_scroll_queue+0x16>
10001428:	4a71      	ldr	r2, [pc, #452]	; (100015f0 <process_scroll_queue+0x288>)
1000142a:	e7dd      	b.n	100013e8 <process_scroll_queue+0x80>
1000142c:	4e70      	ldr	r6, [pc, #448]	; (100015f0 <process_scroll_queue+0x288>)
1000142e:	e7e6      	b.n	100013fe <process_scroll_queue+0x96>
10001430:	4b70      	ldr	r3, [pc, #448]	; (100015f4 <process_scroll_queue+0x28c>)
10001432:	781b      	ldrb	r3, [r3, #0]
10001434:	2b01      	cmp	r3, #1
10001436:	d010      	beq.n	1000145a <process_scroll_queue+0xf2>
10001438:	2b02      	cmp	r3, #2
1000143a:	d1a0      	bne.n	1000137e <process_scroll_queue+0x16>
1000143c:	f7ff faa2 	bl	10000984 <get_ads1015>
10001440:	0002      	movs	r2, r0
10001442:	ac0e      	add	r4, sp, #56	; 0x38
10001444:	496c      	ldr	r1, [pc, #432]	; (100015f8 <process_scroll_queue+0x290>)
10001446:	0020      	movs	r0, r4
10001448:	f006 fda4 	bl	10007f94 <__wrap_sprintf>
1000144c:	231f      	movs	r3, #31
1000144e:	7263      	strb	r3, [r4, #9]
10001450:	0021      	movs	r1, r4
10001452:	2018      	movs	r0, #24
10001454:	f7ff ff18 	bl	10001288 <scroll_string>
10001458:	e791      	b.n	1000137e <process_scroll_queue+0x16>
1000145a:	f7ff fa93 	bl	10000984 <get_ads1015>
1000145e:	0002      	movs	r2, r0
10001460:	4966      	ldr	r1, [pc, #408]	; (100015fc <process_scroll_queue+0x294>)
10001462:	a80e      	add	r0, sp, #56	; 0x38
10001464:	f006 fd96 	bl	10007f94 <__wrap_sprintf>
10001468:	a90e      	add	r1, sp, #56	; 0x38
1000146a:	2018      	movs	r0, #24
1000146c:	f7ff ff0c 	bl	10001288 <scroll_string>
10001470:	e785      	b.n	1000137e <process_scroll_queue+0x16>
10001472:	a80e      	add	r0, sp, #56	; 0x38
10001474:	f7ff fb04 	bl	10000a80 <get_date_string>
10001478:	a90e      	add	r1, sp, #56	; 0x38
1000147a:	2018      	movs	r0, #24
1000147c:	f7ff ff04 	bl	10001288 <scroll_string>
10001480:	e77d      	b.n	1000137e <process_scroll_queue+0x16>
10001482:	4a5f      	ldr	r2, [pc, #380]	; (10001600 <process_scroll_queue+0x298>)
10001484:	4b5f      	ldr	r3, [pc, #380]	; (10001604 <process_scroll_queue+0x29c>)
10001486:	781b      	ldrb	r3, [r3, #0]
10001488:	5cd3      	ldrb	r3, [r2, r3]
1000148a:	495f      	ldr	r1, [pc, #380]	; (10001608 <process_scroll_queue+0x2a0>)
1000148c:	7809      	ldrb	r1, [r1, #0]
1000148e:	5c51      	ldrb	r1, [r2, r1]
10001490:	4a58      	ldr	r2, [pc, #352]	; (100015f4 <process_scroll_queue+0x28c>)
10001492:	7812      	ldrb	r2, [r2, #0]
10001494:	9100      	str	r1, [sp, #0]
10001496:	495d      	ldr	r1, [pc, #372]	; (1000160c <process_scroll_queue+0x2a4>)
10001498:	a80e      	add	r0, sp, #56	; 0x38
1000149a:	f006 fd7b 	bl	10007f94 <__wrap_sprintf>
1000149e:	a90e      	add	r1, sp, #56	; 0x38
100014a0:	200f      	movs	r0, #15
100014a2:	f7ff fef1 	bl	10001288 <scroll_string>
100014a6:	e76a      	b.n	1000137e <process_scroll_queue+0x16>
100014a8:	4b52      	ldr	r3, [pc, #328]	; (100015f4 <process_scroll_queue+0x28c>)
100014aa:	781b      	ldrb	r3, [r3, #0]
100014ac:	2b01      	cmp	r3, #1
100014ae:	d012      	beq.n	100014d6 <process_scroll_queue+0x16e>
100014b0:	2b02      	cmp	r3, #2
100014b2:	d000      	beq.n	100014b6 <process_scroll_queue+0x14e>
100014b4:	e763      	b.n	1000137e <process_scroll_queue+0x16>
100014b6:	a90e      	add	r1, sp, #56	; 0x38
100014b8:	4b55      	ldr	r3, [pc, #340]	; (10001610 <process_scroll_queue+0x2a8>)
100014ba:	000a      	movs	r2, r1
100014bc:	cb31      	ldmia	r3!, {r0, r4, r5}
100014be:	c231      	stmia	r2!, {r0, r4, r5}
100014c0:	cb31      	ldmia	r3!, {r0, r4, r5}
100014c2:	c231      	stmia	r2!, {r0, r4, r5}
100014c4:	681b      	ldr	r3, [r3, #0]
100014c6:	6013      	str	r3, [r2, #0]
100014c8:	231f      	movs	r3, #31
100014ca:	72cb      	strb	r3, [r1, #11]
100014cc:	764b      	strb	r3, [r1, #25]
100014ce:	2018      	movs	r0, #24
100014d0:	f7ff feda 	bl	10001288 <scroll_string>
100014d4:	e753      	b.n	1000137e <process_scroll_queue+0x16>
100014d6:	494f      	ldr	r1, [pc, #316]	; (10001614 <process_scroll_queue+0x2ac>)
100014d8:	2018      	movs	r0, #24
100014da:	f7ff fed5 	bl	10001288 <scroll_string>
100014de:	e74e      	b.n	1000137e <process_scroll_queue+0x16>
100014e0:	4a4d      	ldr	r2, [pc, #308]	; (10001618 <process_scroll_queue+0x2b0>)
100014e2:	494e      	ldr	r1, [pc, #312]	; (1000161c <process_scroll_queue+0x2b4>)
100014e4:	a80e      	add	r0, sp, #56	; 0x38
100014e6:	f006 fd55 	bl	10007f94 <__wrap_sprintf>
100014ea:	a90e      	add	r1, sp, #56	; 0x38
100014ec:	2018      	movs	r0, #24
100014ee:	f7ff fecb 	bl	10001288 <scroll_string>
100014f2:	e744      	b.n	1000137e <process_scroll_queue+0x16>
100014f4:	a80e      	add	r0, sp, #56	; 0x38
100014f6:	f7ff fc05 	bl	10000d04 <get_pico_temperature>
100014fa:	a90e      	add	r1, sp, #56	; 0x38
100014fc:	2018      	movs	r0, #24
100014fe:	f7ff fec3 	bl	10001288 <scroll_string>
10001502:	e73c      	b.n	1000137e <process_scroll_queue+0x16>
10001504:	a809      	add	r0, sp, #36	; 0x24
10001506:	f007 fe13 	bl	10009130 <pico_get_unique_board_id>
1000150a:	aa0e      	add	r2, sp, #56	; 0x38
1000150c:	4b44      	ldr	r3, [pc, #272]	; (10001620 <process_scroll_queue+0x2b8>)
1000150e:	cb03      	ldmia	r3!, {r0, r1}
10001510:	c203      	stmia	r2!, {r0, r1}
10001512:	881b      	ldrh	r3, [r3, #0]
10001514:	8013      	strh	r3, [r2, #0]
10001516:	2400      	movs	r4, #0
10001518:	e001      	b.n	1000151e <process_scroll_queue+0x1b6>
1000151a:	3401      	adds	r4, #1
1000151c:	b2e4      	uxtb	r4, r4
1000151e:	2c07      	cmp	r4, #7
10001520:	d817      	bhi.n	10001552 <process_scroll_queue+0x1ea>
10001522:	a80e      	add	r0, sp, #56	; 0x38
10001524:	f007 fe7e 	bl	10009224 <strlen>
10001528:	ab0e      	add	r3, sp, #56	; 0x38
1000152a:	469c      	mov	ip, r3
1000152c:	4460      	add	r0, ip
1000152e:	ab09      	add	r3, sp, #36	; 0x24
10001530:	5d1a      	ldrb	r2, [r3, r4]
10001532:	493c      	ldr	r1, [pc, #240]	; (10001624 <process_scroll_queue+0x2bc>)
10001534:	f006 fd2e 	bl	10007f94 <__wrap_sprintf>
10001538:	07e3      	lsls	r3, r4, #31
1000153a:	d5ee      	bpl.n	1000151a <process_scroll_queue+0x1b2>
1000153c:	a80e      	add	r0, sp, #56	; 0x38
1000153e:	f007 fe71 	bl	10009224 <strlen>
10001542:	ab0e      	add	r3, sp, #56	; 0x38
10001544:	469c      	mov	ip, r3
10001546:	4460      	add	r0, ip
10001548:	2202      	movs	r2, #2
1000154a:	4937      	ldr	r1, [pc, #220]	; (10001628 <process_scroll_queue+0x2c0>)
1000154c:	f007 fa12 	bl	10008974 <__wrap___aeabi_memcpy>
10001550:	e7e3      	b.n	1000151a <process_scroll_queue+0x1b2>
10001552:	a90e      	add	r1, sp, #56	; 0x38
10001554:	2018      	movs	r0, #24
10001556:	f7ff fe97 	bl	10001288 <scroll_string>
1000155a:	e710      	b.n	1000137e <process_scroll_queue+0x16>
1000155c:	4b1a      	ldr	r3, [pc, #104]	; (100015c8 <process_scroll_queue+0x260>)
1000155e:	781a      	ldrb	r2, [r3, #0]
10001560:	4b1a      	ldr	r3, [pc, #104]	; (100015cc <process_scroll_queue+0x264>)
10001562:	781c      	ldrb	r4, [r3, #0]
10001564:	42a2      	cmp	r2, r4
10001566:	d10e      	bne.n	10001586 <process_scroll_queue+0x21e>
10001568:	0023      	movs	r3, r4
1000156a:	4930      	ldr	r1, [pc, #192]	; (1000162c <process_scroll_queue+0x2c4>)
1000156c:	a80e      	add	r0, sp, #56	; 0x38
1000156e:	f006 fd11 	bl	10007f94 <__wrap_sprintf>
10001572:	a90e      	add	r1, sp, #56	; 0x38
10001574:	2018      	movs	r0, #24
10001576:	f7ff fe87 	bl	10001288 <scroll_string>
1000157a:	e700      	b.n	1000137e <process_scroll_queue+0x16>
1000157c:	4b12      	ldr	r3, [pc, #72]	; (100015c8 <process_scroll_queue+0x260>)
1000157e:	781b      	ldrb	r3, [r3, #0]
10001580:	429c      	cmp	r4, r3
10001582:	d100      	bne.n	10001586 <process_scroll_queue+0x21e>
10001584:	e6fb      	b.n	1000137e <process_scroll_queue+0x16>
10001586:	4b2a      	ldr	r3, [pc, #168]	; (10001630 <process_scroll_queue+0x2c8>)
10001588:	5d1b      	ldrb	r3, [r3, r4]
1000158a:	4a0f      	ldr	r2, [pc, #60]	; (100015c8 <process_scroll_queue+0x260>)
1000158c:	7812      	ldrb	r2, [r2, #0]
1000158e:	9300      	str	r3, [sp, #0]
10001590:	0023      	movs	r3, r4
10001592:	4928      	ldr	r1, [pc, #160]	; (10001634 <process_scroll_queue+0x2cc>)
10001594:	a80e      	add	r0, sp, #56	; 0x38
10001596:	f006 fcfd 	bl	10007f94 <__wrap_sprintf>
1000159a:	a90e      	add	r1, sp, #56	; 0x38
1000159c:	2018      	movs	r0, #24
1000159e:	f7ff fe73 	bl	10001288 <scroll_string>
100015a2:	3401      	adds	r4, #1
100015a4:	b2e4      	uxtb	r4, r4
100015a6:	2c4a      	cmp	r4, #74	; 0x4a
100015a8:	d9e8      	bls.n	1000157c <process_scroll_queue+0x214>
100015aa:	2400      	movs	r4, #0
100015ac:	e7e6      	b.n	1000157c <process_scroll_queue+0x214>
100015ae:	a80b      	add	r0, sp, #44	; 0x2c
100015b0:	f7ff fc40 	bl	10000e34 <get_voltage>
100015b4:	a90b      	add	r1, sp, #44	; 0x2c
100015b6:	2018      	movs	r0, #24
100015b8:	f7ff fe66 	bl	10001288 <scroll_string>
100015bc:	e6df      	b.n	1000137e <process_scroll_queue+0x16>
100015be:	b04c      	add	sp, #304	; 0x130
100015c0:	bc80      	pop	{r7}
100015c2:	46b8      	mov	r8, r7
100015c4:	bdf0      	pop	{r4, r5, r6, r7, pc}
100015c6:	46c0      	nop			; (mov r8, r8)
100015c8:	20002b66 	.word	0x20002b66
100015cc:	20002b67 	.word	0x20002b67
100015d0:	20001060 	.word	0x20001060
100015d4:	100094a4 	.word	0x100094a4
100015d8:	20002b65 	.word	0x20002b65
100015dc:	1000962c 	.word	0x1000962c
100015e0:	20001044 	.word	0x20001044
100015e4:	100094a0 	.word	0x100094a0
100015e8:	20001050 	.word	0x20001050
100015ec:	100094ac 	.word	0x100094ac
100015f0:	1000949c 	.word	0x1000949c
100015f4:	20000771 	.word	0x20000771
100015f8:	10009518 	.word	0x10009518
100015fc:	10009528 	.word	0x10009528
10001600:	20001a70 	.word	0x20001a70
10001604:	2000092f 	.word	0x2000092f
10001608:	20000936 	.word	0x20000936
1000160c:	1000953c 	.word	0x1000953c
10001610:	10009588 	.word	0x10009588
10001614:	10009564 	.word	0x10009564
10001618:	100095a4 	.word	0x100095a4
1000161c:	100095ac 	.word	0x100095ac
10001620:	100095d4 	.word	0x100095d4
10001624:	100095e0 	.word	0x100095e0
10001628:	100095dc 	.word	0x100095dc
1000162c:	100095e8 	.word	0x100095e8
10001630:	20001a90 	.word	0x20001a90
10001634:	10009614 	.word	0x10009614

10001638 <select_weekday>:
10001638:	280a      	cmp	r0, #10
1000163a:	d820      	bhi.n	1000167e <select_weekday+0x46>
1000163c:	0080      	lsls	r0, r0, #2
1000163e:	4b78      	ldr	r3, [pc, #480]	; (10001820 <select_weekday+0x1e8>)
10001640:	581b      	ldr	r3, [r3, r0]
10001642:	469f      	mov	pc, r3
10001644:	4b77      	ldr	r3, [pc, #476]	; (10001824 <select_weekday+0x1ec>)
10001646:	781a      	ldrb	r2, [r3, #0]
10001648:	2118      	movs	r1, #24
1000164a:	430a      	orrs	r2, r1
1000164c:	b2d2      	uxtb	r2, r2
1000164e:	701a      	strb	r2, [r3, #0]
10001650:	213f      	movs	r1, #63	; 0x3f
10001652:	400a      	ands	r2, r1
10001654:	701a      	strb	r2, [r3, #0]
10001656:	7a1a      	ldrb	r2, [r3, #8]
10001658:	3939      	subs	r1, #57	; 0x39
1000165a:	438a      	bics	r2, r1
1000165c:	721a      	strb	r2, [r3, #8]
1000165e:	312a      	adds	r1, #42	; 0x2a
10001660:	438a      	bics	r2, r1
10001662:	721a      	strb	r2, [r3, #8]
10001664:	314f      	adds	r1, #79	; 0x4f
10001666:	400a      	ands	r2, r1
10001668:	721a      	strb	r2, [r3, #8]
1000166a:	7c1a      	ldrb	r2, [r3, #16]
1000166c:	397e      	subs	r1, #126	; 0x7e
1000166e:	438a      	bics	r2, r1
10001670:	741a      	strb	r2, [r3, #16]
10001672:	310b      	adds	r1, #11
10001674:	438a      	bics	r2, r1
10001676:	741a      	strb	r2, [r3, #16]
10001678:	3154      	adds	r1, #84	; 0x54
1000167a:	438a      	bics	r2, r1
1000167c:	741a      	strb	r2, [r3, #16]
1000167e:	4770      	bx	lr
10001680:	4b68      	ldr	r3, [pc, #416]	; (10001824 <select_weekday+0x1ec>)
10001682:	781a      	ldrb	r2, [r3, #0]
10001684:	2118      	movs	r1, #24
10001686:	438a      	bics	r2, r1
10001688:	701a      	strb	r2, [r3, #0]
1000168a:	3958      	subs	r1, #88	; 0x58
1000168c:	430a      	orrs	r2, r1
1000168e:	701a      	strb	r2, [r3, #0]
10001690:	7a1a      	ldrb	r2, [r3, #8]
10001692:	3146      	adds	r1, #70	; 0x46
10001694:	438a      	bics	r2, r1
10001696:	721a      	strb	r2, [r3, #8]
10001698:	312a      	adds	r1, #42	; 0x2a
1000169a:	438a      	bics	r2, r1
1000169c:	721a      	strb	r2, [r3, #8]
1000169e:	314f      	adds	r1, #79	; 0x4f
100016a0:	400a      	ands	r2, r1
100016a2:	721a      	strb	r2, [r3, #8]
100016a4:	7c1a      	ldrb	r2, [r3, #16]
100016a6:	397e      	subs	r1, #126	; 0x7e
100016a8:	438a      	bics	r2, r1
100016aa:	741a      	strb	r2, [r3, #16]
100016ac:	310b      	adds	r1, #11
100016ae:	438a      	bics	r2, r1
100016b0:	741a      	strb	r2, [r3, #16]
100016b2:	3154      	adds	r1, #84	; 0x54
100016b4:	438a      	bics	r2, r1
100016b6:	741a      	strb	r2, [r3, #16]
100016b8:	e7e1      	b.n	1000167e <select_weekday+0x46>
100016ba:	4b5a      	ldr	r3, [pc, #360]	; (10001824 <select_weekday+0x1ec>)
100016bc:	781a      	ldrb	r2, [r3, #0]
100016be:	2118      	movs	r1, #24
100016c0:	438a      	bics	r2, r1
100016c2:	701a      	strb	r2, [r3, #0]
100016c4:	3127      	adds	r1, #39	; 0x27
100016c6:	400a      	ands	r2, r1
100016c8:	701a      	strb	r2, [r3, #0]
100016ca:	7a1a      	ldrb	r2, [r3, #8]
100016cc:	2106      	movs	r1, #6
100016ce:	430a      	orrs	r2, r1
100016d0:	b2d2      	uxtb	r2, r2
100016d2:	721a      	strb	r2, [r3, #8]
100016d4:	2130      	movs	r1, #48	; 0x30
100016d6:	438a      	bics	r2, r1
100016d8:	721a      	strb	r2, [r3, #8]
100016da:	314f      	adds	r1, #79	; 0x4f
100016dc:	400a      	ands	r2, r1
100016de:	721a      	strb	r2, [r3, #8]
100016e0:	7c1a      	ldrb	r2, [r3, #16]
100016e2:	397e      	subs	r1, #126	; 0x7e
100016e4:	438a      	bics	r2, r1
100016e6:	741a      	strb	r2, [r3, #16]
100016e8:	310b      	adds	r1, #11
100016ea:	438a      	bics	r2, r1
100016ec:	741a      	strb	r2, [r3, #16]
100016ee:	3154      	adds	r1, #84	; 0x54
100016f0:	438a      	bics	r2, r1
100016f2:	741a      	strb	r2, [r3, #16]
100016f4:	e7c3      	b.n	1000167e <select_weekday+0x46>
100016f6:	4b4b      	ldr	r3, [pc, #300]	; (10001824 <select_weekday+0x1ec>)
100016f8:	781a      	ldrb	r2, [r3, #0]
100016fa:	2118      	movs	r1, #24
100016fc:	438a      	bics	r2, r1
100016fe:	701a      	strb	r2, [r3, #0]
10001700:	3127      	adds	r1, #39	; 0x27
10001702:	400a      	ands	r2, r1
10001704:	701a      	strb	r2, [r3, #0]
10001706:	7a1a      	ldrb	r2, [r3, #8]
10001708:	3939      	subs	r1, #57	; 0x39
1000170a:	438a      	bics	r2, r1
1000170c:	721a      	strb	r2, [r3, #8]
1000170e:	2130      	movs	r1, #48	; 0x30
10001710:	430a      	orrs	r2, r1
10001712:	b2d2      	uxtb	r2, r2
10001714:	721a      	strb	r2, [r3, #8]
10001716:	217f      	movs	r1, #127	; 0x7f
10001718:	400a      	ands	r2, r1
1000171a:	721a      	strb	r2, [r3, #8]
1000171c:	7c1a      	ldrb	r2, [r3, #16]
1000171e:	397e      	subs	r1, #126	; 0x7e
10001720:	438a      	bics	r2, r1
10001722:	741a      	strb	r2, [r3, #16]
10001724:	310b      	adds	r1, #11
10001726:	438a      	bics	r2, r1
10001728:	741a      	strb	r2, [r3, #16]
1000172a:	3154      	adds	r1, #84	; 0x54
1000172c:	438a      	bics	r2, r1
1000172e:	741a      	strb	r2, [r3, #16]
10001730:	e7a5      	b.n	1000167e <select_weekday+0x46>
10001732:	4b3c      	ldr	r3, [pc, #240]	; (10001824 <select_weekday+0x1ec>)
10001734:	781a      	ldrb	r2, [r3, #0]
10001736:	2118      	movs	r1, #24
10001738:	438a      	bics	r2, r1
1000173a:	701a      	strb	r2, [r3, #0]
1000173c:	3127      	adds	r1, #39	; 0x27
1000173e:	400a      	ands	r2, r1
10001740:	701a      	strb	r2, [r3, #0]
10001742:	7a1a      	ldrb	r2, [r3, #8]
10001744:	3939      	subs	r1, #57	; 0x39
10001746:	438a      	bics	r2, r1
10001748:	721a      	strb	r2, [r3, #8]
1000174a:	312a      	adds	r1, #42	; 0x2a
1000174c:	438a      	bics	r2, r1
1000174e:	721a      	strb	r2, [r3, #8]
10001750:	39b0      	subs	r1, #176	; 0xb0
10001752:	430a      	orrs	r2, r1
10001754:	721a      	strb	r2, [r3, #8]
10001756:	7c1a      	ldrb	r2, [r3, #16]
10001758:	2101      	movs	r1, #1
1000175a:	430a      	orrs	r2, r1
1000175c:	b2d2      	uxtb	r2, r2
1000175e:	741a      	strb	r2, [r3, #16]
10001760:	210c      	movs	r1, #12
10001762:	438a      	bics	r2, r1
10001764:	741a      	strb	r2, [r3, #16]
10001766:	3154      	adds	r1, #84	; 0x54
10001768:	438a      	bics	r2, r1
1000176a:	741a      	strb	r2, [r3, #16]
1000176c:	e787      	b.n	1000167e <select_weekday+0x46>
1000176e:	4b2d      	ldr	r3, [pc, #180]	; (10001824 <select_weekday+0x1ec>)
10001770:	781a      	ldrb	r2, [r3, #0]
10001772:	2118      	movs	r1, #24
10001774:	438a      	bics	r2, r1
10001776:	701a      	strb	r2, [r3, #0]
10001778:	3127      	adds	r1, #39	; 0x27
1000177a:	400a      	ands	r2, r1
1000177c:	701a      	strb	r2, [r3, #0]
1000177e:	7a1a      	ldrb	r2, [r3, #8]
10001780:	3939      	subs	r1, #57	; 0x39
10001782:	438a      	bics	r2, r1
10001784:	721a      	strb	r2, [r3, #8]
10001786:	312a      	adds	r1, #42	; 0x2a
10001788:	438a      	bics	r2, r1
1000178a:	721a      	strb	r2, [r3, #8]
1000178c:	314f      	adds	r1, #79	; 0x4f
1000178e:	400a      	ands	r2, r1
10001790:	721a      	strb	r2, [r3, #8]
10001792:	7c1a      	ldrb	r2, [r3, #16]
10001794:	397e      	subs	r1, #126	; 0x7e
10001796:	438a      	bics	r2, r1
10001798:	741a      	strb	r2, [r3, #16]
1000179a:	210c      	movs	r1, #12
1000179c:	430a      	orrs	r2, r1
1000179e:	b2d2      	uxtb	r2, r2
100017a0:	741a      	strb	r2, [r3, #16]
100017a2:	2160      	movs	r1, #96	; 0x60
100017a4:	438a      	bics	r2, r1
100017a6:	741a      	strb	r2, [r3, #16]
100017a8:	e769      	b.n	1000167e <select_weekday+0x46>
100017aa:	4b1e      	ldr	r3, [pc, #120]	; (10001824 <select_weekday+0x1ec>)
100017ac:	781a      	ldrb	r2, [r3, #0]
100017ae:	2118      	movs	r1, #24
100017b0:	438a      	bics	r2, r1
100017b2:	701a      	strb	r2, [r3, #0]
100017b4:	3127      	adds	r1, #39	; 0x27
100017b6:	400a      	ands	r2, r1
100017b8:	701a      	strb	r2, [r3, #0]
100017ba:	7a1a      	ldrb	r2, [r3, #8]
100017bc:	3939      	subs	r1, #57	; 0x39
100017be:	438a      	bics	r2, r1
100017c0:	721a      	strb	r2, [r3, #8]
100017c2:	312a      	adds	r1, #42	; 0x2a
100017c4:	438a      	bics	r2, r1
100017c6:	721a      	strb	r2, [r3, #8]
100017c8:	314f      	adds	r1, #79	; 0x4f
100017ca:	400a      	ands	r2, r1
100017cc:	721a      	strb	r2, [r3, #8]
100017ce:	7c1a      	ldrb	r2, [r3, #16]
100017d0:	397e      	subs	r1, #126	; 0x7e
100017d2:	438a      	bics	r2, r1
100017d4:	741a      	strb	r2, [r3, #16]
100017d6:	310b      	adds	r1, #11
100017d8:	438a      	bics	r2, r1
100017da:	741a      	strb	r2, [r3, #16]
100017dc:	2160      	movs	r1, #96	; 0x60
100017de:	430a      	orrs	r2, r1
100017e0:	741a      	strb	r2, [r3, #16]
100017e2:	e74c      	b.n	1000167e <select_weekday+0x46>
100017e4:	4b0f      	ldr	r3, [pc, #60]	; (10001824 <select_weekday+0x1ec>)
100017e6:	781a      	ldrb	r2, [r3, #0]
100017e8:	2118      	movs	r1, #24
100017ea:	438a      	bics	r2, r1
100017ec:	701a      	strb	r2, [r3, #0]
100017ee:	3127      	adds	r1, #39	; 0x27
100017f0:	400a      	ands	r2, r1
100017f2:	701a      	strb	r2, [r3, #0]
100017f4:	7a1a      	ldrb	r2, [r3, #8]
100017f6:	3939      	subs	r1, #57	; 0x39
100017f8:	438a      	bics	r2, r1
100017fa:	721a      	strb	r2, [r3, #8]
100017fc:	312a      	adds	r1, #42	; 0x2a
100017fe:	438a      	bics	r2, r1
10001800:	721a      	strb	r2, [r3, #8]
10001802:	314f      	adds	r1, #79	; 0x4f
10001804:	400a      	ands	r2, r1
10001806:	721a      	strb	r2, [r3, #8]
10001808:	7c1a      	ldrb	r2, [r3, #16]
1000180a:	397e      	subs	r1, #126	; 0x7e
1000180c:	438a      	bics	r2, r1
1000180e:	741a      	strb	r2, [r3, #16]
10001810:	310b      	adds	r1, #11
10001812:	438a      	bics	r2, r1
10001814:	741a      	strb	r2, [r3, #16]
10001816:	3154      	adds	r1, #84	; 0x54
10001818:	438a      	bics	r2, r1
1000181a:	741a      	strb	r2, [r3, #16]
1000181c:	e72f      	b.n	1000167e <select_weekday+0x46>
1000181e:	46c0      	nop			; (mov r8, r8)
10001820:	10009660 	.word	0x10009660
10001824:	2000195c 	.word	0x2000195c

10001828 <evaluate_blinking_time>:
10001828:	b510      	push	{r4, lr}
1000182a:	4b4f      	ldr	r3, [pc, #316]	; (10001968 <evaluate_blinking_time+0x140>)
1000182c:	781a      	ldrb	r2, [r3, #0]
1000182e:	4b4f      	ldr	r3, [pc, #316]	; (1000196c <evaluate_blinking_time+0x144>)
10001830:	781b      	ldrb	r3, [r3, #0]
10001832:	429a      	cmp	r2, r3
10001834:	d008      	beq.n	10001848 <evaluate_blinking_time+0x20>
10001836:	494e      	ldr	r1, [pc, #312]	; (10001970 <evaluate_blinking_time+0x148>)
10001838:	880b      	ldrh	r3, [r1, #0]
1000183a:	3301      	adds	r3, #1
1000183c:	b29b      	uxth	r3, r3
1000183e:	800b      	strh	r3, [r1, #0]
10001840:	21fa      	movs	r1, #250	; 0xfa
10001842:	0049      	lsls	r1, r1, #1
10001844:	428b      	cmp	r3, r1
10001846:	d004      	beq.n	10001852 <evaluate_blinking_time+0x2a>
10001848:	4b4a      	ldr	r3, [pc, #296]	; (10001974 <evaluate_blinking_time+0x14c>)
1000184a:	781b      	ldrb	r3, [r3, #0]
1000184c:	2b04      	cmp	r3, #4
1000184e:	d036      	beq.n	100018be <evaluate_blinking_time+0x96>
10001850:	bd10      	pop	{r4, pc}
10001852:	4b47      	ldr	r3, [pc, #284]	; (10001970 <evaluate_blinking_time+0x148>)
10001854:	2100      	movs	r1, #0
10001856:	8019      	strh	r1, [r3, #0]
10001858:	4947      	ldr	r1, [pc, #284]	; (10001978 <evaluate_blinking_time+0x150>)
1000185a:	5c8b      	ldrb	r3, [r1, r2]
1000185c:	43db      	mvns	r3, r3
1000185e:	b2db      	uxtb	r3, r3
10001860:	548b      	strb	r3, [r1, r2]
10001862:	4946      	ldr	r1, [pc, #280]	; (1000197c <evaluate_blinking_time+0x154>)
10001864:	7809      	ldrb	r1, [r1, #0]
10001866:	2902      	cmp	r1, #2
10001868:	d01d      	beq.n	100018a6 <evaluate_blinking_time+0x7e>
1000186a:	2903      	cmp	r1, #3
1000186c:	d01f      	beq.n	100018ae <evaluate_blinking_time+0x86>
1000186e:	2901      	cmp	r1, #1
10001870:	d015      	beq.n	1000189e <evaluate_blinking_time+0x76>
10001872:	4940      	ldr	r1, [pc, #256]	; (10001974 <evaluate_blinking_time+0x14c>)
10001874:	7809      	ldrb	r1, [r1, #0]
10001876:	2901      	cmp	r1, #1
10001878:	d1e6      	bne.n	10001848 <evaluate_blinking_time+0x20>
1000187a:	2a05      	cmp	r2, #5
1000187c:	d1e4      	bne.n	10001848 <evaluate_blinking_time+0x20>
1000187e:	2b00      	cmp	r3, #0
10001880:	d019      	beq.n	100018b6 <evaluate_blinking_time+0x8e>
10001882:	4b3f      	ldr	r3, [pc, #252]	; (10001980 <evaluate_blinking_time+0x158>)
10001884:	781a      	ldrb	r2, [r3, #0]
10001886:	0093      	lsls	r3, r2, #2
10001888:	189a      	adds	r2, r3, r2
1000188a:	4b3e      	ldr	r3, [pc, #248]	; (10001984 <evaluate_blinking_time+0x15c>)
1000188c:	189b      	adds	r3, r3, r2
1000188e:	791b      	ldrb	r3, [r3, #4]
10001890:	200f      	movs	r0, #15
10001892:	4018      	ands	r0, r3
10001894:	3801      	subs	r0, #1
10001896:	b2c0      	uxtb	r0, r0
10001898:	f7ff fece 	bl	10001638 <select_weekday>
1000189c:	e7d4      	b.n	10001848 <evaluate_blinking_time+0x20>
1000189e:	493a      	ldr	r1, [pc, #232]	; (10001988 <evaluate_blinking_time+0x160>)
100018a0:	20ff      	movs	r0, #255	; 0xff
100018a2:	7008      	strb	r0, [r1, #0]
100018a4:	e7e5      	b.n	10001872 <evaluate_blinking_time+0x4a>
100018a6:	4939      	ldr	r1, [pc, #228]	; (1000198c <evaluate_blinking_time+0x164>)
100018a8:	20ff      	movs	r0, #255	; 0xff
100018aa:	7008      	strb	r0, [r1, #0]
100018ac:	e7e1      	b.n	10001872 <evaluate_blinking_time+0x4a>
100018ae:	4938      	ldr	r1, [pc, #224]	; (10001990 <evaluate_blinking_time+0x168>)
100018b0:	20ff      	movs	r0, #255	; 0xff
100018b2:	7008      	strb	r0, [r1, #0]
100018b4:	e7dd      	b.n	10001872 <evaluate_blinking_time+0x4a>
100018b6:	200a      	movs	r0, #10
100018b8:	f7ff febe 	bl	10001638 <select_weekday>
100018bc:	e7c4      	b.n	10001848 <evaluate_blinking_time+0x20>
100018be:	4a35      	ldr	r2, [pc, #212]	; (10001994 <evaluate_blinking_time+0x16c>)
100018c0:	8813      	ldrh	r3, [r2, #0]
100018c2:	3301      	adds	r3, #1
100018c4:	b29b      	uxth	r3, r3
100018c6:	8013      	strh	r3, [r2, #0]
100018c8:	22fa      	movs	r2, #250	; 0xfa
100018ca:	0052      	lsls	r2, r2, #1
100018cc:	4293      	cmp	r3, r2
100018ce:	d015      	beq.n	100018fc <evaluate_blinking_time+0xd4>
100018d0:	4b30      	ldr	r3, [pc, #192]	; (10001994 <evaluate_blinking_time+0x16c>)
100018d2:	881a      	ldrh	r2, [r3, #0]
100018d4:	23fa      	movs	r3, #250	; 0xfa
100018d6:	009b      	lsls	r3, r3, #2
100018d8:	429a      	cmp	r2, r3
100018da:	d1b9      	bne.n	10001850 <evaluate_blinking_time+0x28>
100018dc:	482e      	ldr	r0, [pc, #184]	; (10001998 <evaluate_blinking_time+0x170>)
100018de:	f007 fcd3 	bl	10009288 <__sem_release_veneer>
100018e2:	4b2e      	ldr	r3, [pc, #184]	; (1000199c <evaluate_blinking_time+0x174>)
100018e4:	781b      	ldrb	r3, [r3, #0]
100018e6:	2b13      	cmp	r3, #19
100018e8:	d82c      	bhi.n	10001944 <evaluate_blinking_time+0x11c>
100018ea:	4a2d      	ldr	r2, [pc, #180]	; (100019a0 <evaluate_blinking_time+0x178>)
100018ec:	7ad3      	ldrb	r3, [r2, #11]
100018ee:	2110      	movs	r1, #16
100018f0:	430b      	orrs	r3, r1
100018f2:	72d3      	strb	r3, [r2, #11]
100018f4:	4b27      	ldr	r3, [pc, #156]	; (10001994 <evaluate_blinking_time+0x16c>)
100018f6:	2200      	movs	r2, #0
100018f8:	801a      	strh	r2, [r3, #0]
100018fa:	e7a9      	b.n	10001850 <evaluate_blinking_time+0x28>
100018fc:	4826      	ldr	r0, [pc, #152]	; (10001998 <evaluate_blinking_time+0x170>)
100018fe:	f007 fcc3 	bl	10009288 <__sem_release_veneer>
10001902:	4b26      	ldr	r3, [pc, #152]	; (1000199c <evaluate_blinking_time+0x174>)
10001904:	781b      	ldrb	r3, [r3, #0]
10001906:	2b13      	cmp	r3, #19
10001908:	d808      	bhi.n	1000191c <evaluate_blinking_time+0xf4>
1000190a:	4b25      	ldr	r3, [pc, #148]	; (100019a0 <evaluate_blinking_time+0x178>)
1000190c:	7ada      	ldrb	r2, [r3, #11]
1000190e:	2110      	movs	r1, #16
10001910:	438a      	bics	r2, r1
10001912:	72da      	strb	r2, [r3, #11]
10001914:	7b5a      	ldrb	r2, [r3, #13]
10001916:	430a      	orrs	r2, r1
10001918:	735a      	strb	r2, [r3, #13]
1000191a:	e7d9      	b.n	100018d0 <evaluate_blinking_time+0xa8>
1000191c:	2b27      	cmp	r3, #39	; 0x27
1000191e:	d808      	bhi.n	10001932 <evaluate_blinking_time+0x10a>
10001920:	4b1f      	ldr	r3, [pc, #124]	; (100019a0 <evaluate_blinking_time+0x178>)
10001922:	7b5a      	ldrb	r2, [r3, #13]
10001924:	2110      	movs	r1, #16
10001926:	438a      	bics	r2, r1
10001928:	735a      	strb	r2, [r3, #13]
1000192a:	7ada      	ldrb	r2, [r3, #11]
1000192c:	430a      	orrs	r2, r1
1000192e:	72da      	strb	r2, [r3, #11]
10001930:	e7ce      	b.n	100018d0 <evaluate_blinking_time+0xa8>
10001932:	4b1b      	ldr	r3, [pc, #108]	; (100019a0 <evaluate_blinking_time+0x178>)
10001934:	7ada      	ldrb	r2, [r3, #11]
10001936:	2110      	movs	r1, #16
10001938:	438a      	bics	r2, r1
1000193a:	72da      	strb	r2, [r3, #11]
1000193c:	7b5a      	ldrb	r2, [r3, #13]
1000193e:	438a      	bics	r2, r1
10001940:	735a      	strb	r2, [r3, #13]
10001942:	e7c5      	b.n	100018d0 <evaluate_blinking_time+0xa8>
10001944:	2b27      	cmp	r3, #39	; 0x27
10001946:	d805      	bhi.n	10001954 <evaluate_blinking_time+0x12c>
10001948:	4a15      	ldr	r2, [pc, #84]	; (100019a0 <evaluate_blinking_time+0x178>)
1000194a:	7b53      	ldrb	r3, [r2, #13]
1000194c:	2110      	movs	r1, #16
1000194e:	430b      	orrs	r3, r1
10001950:	7353      	strb	r3, [r2, #13]
10001952:	e7cf      	b.n	100018f4 <evaluate_blinking_time+0xcc>
10001954:	4b12      	ldr	r3, [pc, #72]	; (100019a0 <evaluate_blinking_time+0x178>)
10001956:	2010      	movs	r0, #16
10001958:	7ad9      	ldrb	r1, [r3, #11]
1000195a:	4301      	orrs	r1, r0
1000195c:	72d9      	strb	r1, [r3, #11]
1000195e:	7b5a      	ldrb	r2, [r3, #13]
10001960:	4302      	orrs	r2, r0
10001962:	735a      	strb	r2, [r3, #13]
10001964:	e7c6      	b.n	100018f4 <evaluate_blinking_time+0xcc>
10001966:	46c0      	nop			; (mov r8, r8)
10001968:	20002b6c 	.word	0x20002b6c
1000196c:	20002b64 	.word	0x20002b64
10001970:	20002b30 	.word	0x20002b30
10001974:	20002b43 	.word	0x20002b43
10001978:	2000075c 	.word	0x2000075c
1000197c:	20002b6b 	.word	0x20002b6b
10001980:	20002b42 	.word	0x20002b42
10001984:	20001044 	.word	0x20001044
10001988:	20002b53 	.word	0x20002b53
1000198c:	20002b54 	.word	0x20002b54
10001990:	20002b55 	.word	0x20002b55
10001994:	20002b2e 	.word	0x20002b2e
10001998:	20001adc 	.word	0x20001adc
1000199c:	20002b6a 	.word	0x20002b6a
100019a0:	2000195c 	.word	0x2000195c

100019a4 <send_data>:
100019a4:	2300      	movs	r3, #0
100019a6:	e007      	b.n	100019b8 <send_data+0x14>
100019a8:	0840      	lsrs	r0, r0, #1
100019aa:	22d0      	movs	r2, #208	; 0xd0
100019ac:	0612      	lsls	r2, r2, #24
100019ae:	2180      	movs	r1, #128	; 0x80
100019b0:	00c9      	lsls	r1, r1, #3
100019b2:	6151      	str	r1, [r2, #20]
100019b4:	3301      	adds	r3, #1
100019b6:	b2db      	uxtb	r3, r3
100019b8:	2b07      	cmp	r3, #7
100019ba:	d80d      	bhi.n	100019d8 <send_data+0x34>
100019bc:	22d0      	movs	r2, #208	; 0xd0
100019be:	0612      	lsls	r2, r2, #24
100019c0:	2180      	movs	r1, #128	; 0x80
100019c2:	00c9      	lsls	r1, r1, #3
100019c4:	6191      	str	r1, [r2, #24]
100019c6:	2180      	movs	r1, #128	; 0x80
100019c8:	0109      	lsls	r1, r1, #4
100019ca:	6191      	str	r1, [r2, #24]
100019cc:	07c2      	lsls	r2, r0, #31
100019ce:	d5eb      	bpl.n	100019a8 <send_data+0x4>
100019d0:	22d0      	movs	r2, #208	; 0xd0
100019d2:	0612      	lsls	r2, r2, #24
100019d4:	6151      	str	r1, [r2, #20]
100019d6:	e7e7      	b.n	100019a8 <send_data+0x4>
100019d8:	4770      	bx	lr
	...

100019dc <set_mode_out>:
100019dc:	b570      	push	{r4, r5, r6, lr}
100019de:	4b55      	ldr	r3, [pc, #340]	; (10001b34 <set_mode_out+0x158>)
100019e0:	781b      	ldrb	r3, [r3, #0]
100019e2:	2bff      	cmp	r3, #255	; 0xff
100019e4:	d01f      	beq.n	10001a26 <set_mode_out+0x4a>
100019e6:	4b53      	ldr	r3, [pc, #332]	; (10001b34 <set_mode_out+0x158>)
100019e8:	781b      	ldrb	r3, [r3, #0]
100019ea:	2bff      	cmp	r3, #255	; 0xff
100019ec:	d026      	beq.n	10001a3c <set_mode_out+0x60>
100019ee:	4b51      	ldr	r3, [pc, #324]	; (10001b34 <set_mode_out+0x158>)
100019f0:	781b      	ldrb	r3, [r3, #0]
100019f2:	2bff      	cmp	r3, #255	; 0xff
100019f4:	d02d      	beq.n	10001a52 <set_mode_out+0x76>
100019f6:	4b4f      	ldr	r3, [pc, #316]	; (10001b34 <set_mode_out+0x158>)
100019f8:	781b      	ldrb	r3, [r3, #0]
100019fa:	2bff      	cmp	r3, #255	; 0xff
100019fc:	d046      	beq.n	10001a8c <set_mode_out+0xb0>
100019fe:	4b4d      	ldr	r3, [pc, #308]	; (10001b34 <set_mode_out+0x158>)
10001a00:	781b      	ldrb	r3, [r3, #0]
10001a02:	2bff      	cmp	r3, #255	; 0xff
10001a04:	d05f      	beq.n	10001ac6 <set_mode_out+0xea>
10001a06:	4b4c      	ldr	r3, [pc, #304]	; (10001b38 <set_mode_out+0x15c>)
10001a08:	781b      	ldrb	r3, [r3, #0]
10001a0a:	4a4c      	ldr	r2, [pc, #304]	; (10001b3c <set_mode_out+0x160>)
10001a0c:	21ff      	movs	r1, #255	; 0xff
10001a0e:	54d1      	strb	r1, [r2, r3]
10001a10:	2300      	movs	r3, #0
10001a12:	4a4b      	ldr	r2, [pc, #300]	; (10001b40 <set_mode_out+0x164>)
10001a14:	7013      	strb	r3, [r2, #0]
10001a16:	4a4b      	ldr	r2, [pc, #300]	; (10001b44 <set_mode_out+0x168>)
10001a18:	7013      	strb	r3, [r2, #0]
10001a1a:	4a46      	ldr	r2, [pc, #280]	; (10001b34 <set_mode_out+0x158>)
10001a1c:	7013      	strb	r3, [r2, #0]
10001a1e:	4b4a      	ldr	r3, [pc, #296]	; (10001b48 <set_mode_out+0x16c>)
10001a20:	781a      	ldrb	r2, [r3, #0]
10001a22:	0013      	movs	r3, r2
10001a24:	e072      	b.n	10001b0c <set_mode_out+0x130>
10001a26:	4b49      	ldr	r3, [pc, #292]	; (10001b4c <set_mode_out+0x170>)
10001a28:	781b      	ldrb	r3, [r3, #0]
10001a2a:	4a49      	ldr	r2, [pc, #292]	; (10001b50 <set_mode_out+0x174>)
10001a2c:	5cd3      	ldrb	r3, [r2, r3]
10001a2e:	2bff      	cmp	r3, #255	; 0xff
10001a30:	d1d9      	bne.n	100019e6 <set_mode_out+0xa>
10001a32:	4b48      	ldr	r3, [pc, #288]	; (10001b54 <set_mode_out+0x178>)
10001a34:	7818      	ldrb	r0, [r3, #0]
10001a36:	f003 faa9 	bl	10004f8c <set_hour>
10001a3a:	e7d4      	b.n	100019e6 <set_mode_out+0xa>
10001a3c:	4b46      	ldr	r3, [pc, #280]	; (10001b58 <set_mode_out+0x17c>)
10001a3e:	781b      	ldrb	r3, [r3, #0]
10001a40:	4a43      	ldr	r2, [pc, #268]	; (10001b50 <set_mode_out+0x174>)
10001a42:	5cd3      	ldrb	r3, [r2, r3]
10001a44:	2bff      	cmp	r3, #255	; 0xff
10001a46:	d1d2      	bne.n	100019ee <set_mode_out+0x12>
10001a48:	4b44      	ldr	r3, [pc, #272]	; (10001b5c <set_mode_out+0x180>)
10001a4a:	7818      	ldrb	r0, [r3, #0]
10001a4c:	f003 fab4 	bl	10004fb8 <set_minute>
10001a50:	e7cd      	b.n	100019ee <set_mode_out+0x12>
10001a52:	4b43      	ldr	r3, [pc, #268]	; (10001b60 <set_mode_out+0x184>)
10001a54:	781b      	ldrb	r3, [r3, #0]
10001a56:	4a3e      	ldr	r2, [pc, #248]	; (10001b50 <set_mode_out+0x174>)
10001a58:	5cd3      	ldrb	r3, [r2, r3]
10001a5a:	2bff      	cmp	r3, #255	; 0xff
10001a5c:	d1cb      	bne.n	100019f6 <set_mode_out+0x1a>
10001a5e:	4c41      	ldr	r4, [pc, #260]	; (10001b64 <set_mode_out+0x188>)
10001a60:	7820      	ldrb	r0, [r4, #0]
10001a62:	f003 fac9 	bl	10004ff8 <set_month>
10001a66:	4e40      	ldr	r6, [pc, #256]	; (10001b68 <set_mode_out+0x18c>)
10001a68:	7832      	ldrb	r2, [r6, #0]
10001a6a:	7821      	ldrb	r1, [r4, #0]
10001a6c:	4d3f      	ldr	r5, [pc, #252]	; (10001b6c <set_mode_out+0x190>)
10001a6e:	8828      	ldrh	r0, [r5, #0]
10001a70:	f7ff fa18 	bl	10000ea4 <get_weekday>
10001a74:	f003 fa74 	bl	10004f60 <set_day_of_week>
10001a78:	7832      	ldrb	r2, [r6, #0]
10001a7a:	7821      	ldrb	r1, [r4, #0]
10001a7c:	8828      	ldrh	r0, [r5, #0]
10001a7e:	f7ff fa11 	bl	10000ea4 <get_weekday>
10001a82:	3801      	subs	r0, #1
10001a84:	b2c0      	uxtb	r0, r0
10001a86:	f7ff fdd7 	bl	10001638 <select_weekday>
10001a8a:	e7b4      	b.n	100019f6 <set_mode_out+0x1a>
10001a8c:	4b38      	ldr	r3, [pc, #224]	; (10001b70 <set_mode_out+0x194>)
10001a8e:	781b      	ldrb	r3, [r3, #0]
10001a90:	4a2f      	ldr	r2, [pc, #188]	; (10001b50 <set_mode_out+0x174>)
10001a92:	5cd3      	ldrb	r3, [r2, r3]
10001a94:	2bff      	cmp	r3, #255	; 0xff
10001a96:	d1b2      	bne.n	100019fe <set_mode_out+0x22>
10001a98:	4c33      	ldr	r4, [pc, #204]	; (10001b68 <set_mode_out+0x18c>)
10001a9a:	7820      	ldrb	r0, [r4, #0]
10001a9c:	f003 fa4a 	bl	10004f34 <set_day_of_month>
10001aa0:	7822      	ldrb	r2, [r4, #0]
10001aa2:	4e30      	ldr	r6, [pc, #192]	; (10001b64 <set_mode_out+0x188>)
10001aa4:	7831      	ldrb	r1, [r6, #0]
10001aa6:	4d31      	ldr	r5, [pc, #196]	; (10001b6c <set_mode_out+0x190>)
10001aa8:	8828      	ldrh	r0, [r5, #0]
10001aaa:	f7ff f9fb 	bl	10000ea4 <get_weekday>
10001aae:	f003 fa57 	bl	10004f60 <set_day_of_week>
10001ab2:	7822      	ldrb	r2, [r4, #0]
10001ab4:	7831      	ldrb	r1, [r6, #0]
10001ab6:	8828      	ldrh	r0, [r5, #0]
10001ab8:	f7ff f9f4 	bl	10000ea4 <get_weekday>
10001abc:	3801      	subs	r0, #1
10001abe:	b2c0      	uxtb	r0, r0
10001ac0:	f7ff fdba 	bl	10001638 <select_weekday>
10001ac4:	e79b      	b.n	100019fe <set_mode_out+0x22>
10001ac6:	4b2b      	ldr	r3, [pc, #172]	; (10001b74 <set_mode_out+0x198>)
10001ac8:	781b      	ldrb	r3, [r3, #0]
10001aca:	4a21      	ldr	r2, [pc, #132]	; (10001b50 <set_mode_out+0x174>)
10001acc:	5cd3      	ldrb	r3, [r2, r3]
10001ace:	2bff      	cmp	r3, #255	; 0xff
10001ad0:	d199      	bne.n	10001a06 <set_mode_out+0x2a>
10001ad2:	4b29      	ldr	r3, [pc, #164]	; (10001b78 <set_mode_out+0x19c>)
10001ad4:	7818      	ldrb	r0, [r3, #0]
10001ad6:	f003 faa5 	bl	10005024 <set_year>
10001ada:	4e23      	ldr	r6, [pc, #140]	; (10001b68 <set_mode_out+0x18c>)
10001adc:	7832      	ldrb	r2, [r6, #0]
10001ade:	4d21      	ldr	r5, [pc, #132]	; (10001b64 <set_mode_out+0x188>)
10001ae0:	7829      	ldrb	r1, [r5, #0]
10001ae2:	4c22      	ldr	r4, [pc, #136]	; (10001b6c <set_mode_out+0x190>)
10001ae4:	8820      	ldrh	r0, [r4, #0]
10001ae6:	f7ff f9dd 	bl	10000ea4 <get_weekday>
10001aea:	f003 fa39 	bl	10004f60 <set_day_of_week>
10001aee:	7832      	ldrb	r2, [r6, #0]
10001af0:	7829      	ldrb	r1, [r5, #0]
10001af2:	8820      	ldrh	r0, [r4, #0]
10001af4:	f7ff f9d6 	bl	10000ea4 <get_weekday>
10001af8:	3801      	subs	r0, #1
10001afa:	b2c0      	uxtb	r0, r0
10001afc:	f7ff fd9c 	bl	10001638 <select_weekday>
10001b00:	e781      	b.n	10001a06 <set_mode_out+0x2a>
10001b02:	491e      	ldr	r1, [pc, #120]	; (10001b7c <set_mode_out+0x1a0>)
10001b04:	2000      	movs	r0, #0
10001b06:	54c8      	strb	r0, [r1, r3]
10001b08:	3301      	adds	r3, #1
10001b0a:	b2db      	uxtb	r3, r3
10001b0c:	2b05      	cmp	r3, #5
10001b0e:	d9f8      	bls.n	10001b02 <set_mode_out+0x126>
10001b10:	0013      	movs	r3, r2
10001b12:	e004      	b.n	10001b1e <set_mode_out+0x142>
10001b14:	490e      	ldr	r1, [pc, #56]	; (10001b50 <set_mode_out+0x174>)
10001b16:	2000      	movs	r0, #0
10001b18:	54c8      	strb	r0, [r1, r3]
10001b1a:	3301      	adds	r3, #1
10001b1c:	b2db      	uxtb	r3, r3
10001b1e:	2b12      	cmp	r3, #18
10001b20:	d9f8      	bls.n	10001b14 <set_mode_out+0x138>
10001b22:	e004      	b.n	10001b2e <set_mode_out+0x152>
10001b24:	4b16      	ldr	r3, [pc, #88]	; (10001b80 <set_mode_out+0x1a4>)
10001b26:	2100      	movs	r1, #0
10001b28:	5499      	strb	r1, [r3, r2]
10001b2a:	3201      	adds	r2, #1
10001b2c:	b2d2      	uxtb	r2, r2
10001b2e:	2a04      	cmp	r2, #4
10001b30:	d9f8      	bls.n	10001b24 <set_mode_out+0x148>
10001b32:	bd70      	pop	{r4, r5, r6, pc}
10001b34:	20002b58 	.word	0x20002b58
10001b38:	20002b6c 	.word	0x20002b6c
10001b3c:	2000075c 	.word	0x2000075c
10001b40:	20002b5e 	.word	0x20002b5e
10001b44:	20002b5a 	.word	0x20002b5a
10001b48:	20002b64 	.word	0x20002b64
10001b4c:	20000931 	.word	0x20000931
10001b50:	20001a70 	.word	0x20001a70
10001b54:	20002b46 	.word	0x20002b46
10001b58:	20000935 	.word	0x20000935
10001b5c:	20002b48 	.word	0x20002b48
10001b60:	20000936 	.word	0x20000936
10001b64:	20002b49 	.word	0x20002b49
10001b68:	20002b44 	.word	0x20002b44
10001b6c:	20002b40 	.word	0x20002b40
10001b70:	2000092f 	.word	0x2000092f
10001b74:	2000093d 	.word	0x2000093d
10001b78:	20002b4a 	.word	0x20002b4a
10001b7c:	20001a68 	.word	0x20001a68
10001b80:	20001a84 	.word	0x20001a84

10001b84 <set_mode_timeout>:
10001b84:	2300      	movs	r3, #0
10001b86:	4a08      	ldr	r2, [pc, #32]	; (10001ba8 <set_mode_timeout+0x24>)
10001b88:	7013      	strb	r3, [r2, #0]
10001b8a:	4a08      	ldr	r2, [pc, #32]	; (10001bac <set_mode_timeout+0x28>)
10001b8c:	7013      	strb	r3, [r2, #0]
10001b8e:	4a08      	ldr	r2, [pc, #32]	; (10001bb0 <set_mode_timeout+0x2c>)
10001b90:	7013      	strb	r3, [r2, #0]
10001b92:	4a08      	ldr	r2, [pc, #32]	; (10001bb4 <set_mode_timeout+0x30>)
10001b94:	7013      	strb	r3, [r2, #0]
10001b96:	4a08      	ldr	r2, [pc, #32]	; (10001bb8 <set_mode_timeout+0x34>)
10001b98:	7013      	strb	r3, [r2, #0]
10001b9a:	4a08      	ldr	r2, [pc, #32]	; (10001bbc <set_mode_timeout+0x38>)
10001b9c:	7013      	strb	r3, [r2, #0]
10001b9e:	4b08      	ldr	r3, [pc, #32]	; (10001bc0 <set_mode_timeout+0x3c>)
10001ba0:	22ff      	movs	r2, #255	; 0xff
10001ba2:	701a      	strb	r2, [r3, #0]
10001ba4:	4770      	bx	lr
10001ba6:	46c0      	nop			; (mov r8, r8)
10001ba8:	20002b68 	.word	0x20002b68
10001bac:	20002b6b 	.word	0x20002b6b
10001bb0:	20002b4f 	.word	0x20002b4f
10001bb4:	20002b53 	.word	0x20002b53
10001bb8:	20002b54 	.word	0x20002b54
10001bbc:	20002b55 	.word	0x20002b55
10001bc0:	20002b5c 	.word	0x20002b5c

10001bc4 <setup_alarm_frame>:
10001bc4:	b570      	push	{r4, r5, r6, lr}
10001bc6:	b084      	sub	sp, #16
10001bc8:	4ba2      	ldr	r3, [pc, #648]	; (10001e54 <setup_alarm_frame+0x290>)
10001bca:	2201      	movs	r2, #1
10001bcc:	701a      	strb	r2, [r3, #0]
10001bce:	4ba2      	ldr	r3, [pc, #648]	; (10001e58 <setup_alarm_frame+0x294>)
10001bd0:	781a      	ldrb	r2, [r3, #0]
10001bd2:	1e53      	subs	r3, r2, #1
10001bd4:	b2db      	uxtb	r3, r3
10001bd6:	2b01      	cmp	r3, #1
10001bd8:	d930      	bls.n	10001c3c <setup_alarm_frame+0x78>
10001bda:	4b9f      	ldr	r3, [pc, #636]	; (10001e58 <setup_alarm_frame+0x294>)
10001bdc:	781a      	ldrb	r2, [r3, #0]
10001bde:	1ed3      	subs	r3, r2, #3
10001be0:	b2db      	uxtb	r3, r3
10001be2:	2b01      	cmp	r3, #1
10001be4:	d973      	bls.n	10001cce <setup_alarm_frame+0x10a>
10001be6:	4b9c      	ldr	r3, [pc, #624]	; (10001e58 <setup_alarm_frame+0x294>)
10001be8:	781b      	ldrb	r3, [r3, #0]
10001bea:	2b05      	cmp	r3, #5
10001bec:	d100      	bne.n	10001bf0 <setup_alarm_frame+0x2c>
10001bee:	e10d      	b.n	10001e0c <setup_alarm_frame+0x248>
10001bf0:	2b05      	cmp	r3, #5
10001bf2:	d800      	bhi.n	10001bf6 <setup_alarm_frame+0x32>
10001bf4:	e12b      	b.n	10001e4e <setup_alarm_frame+0x28a>
10001bf6:	4b99      	ldr	r3, [pc, #612]	; (10001e5c <setup_alarm_frame+0x298>)
10001bf8:	781b      	ldrb	r3, [r3, #0]
10001bfa:	2b00      	cmp	r3, #0
10001bfc:	d104      	bne.n	10001c08 <setup_alarm_frame+0x44>
10001bfe:	4b98      	ldr	r3, [pc, #608]	; (10001e60 <setup_alarm_frame+0x29c>)
10001c00:	781b      	ldrb	r3, [r3, #0]
10001c02:	2bff      	cmp	r3, #255	; 0xff
10001c04:	d100      	bne.n	10001c08 <setup_alarm_frame+0x44>
10001c06:	e105      	b.n	10001e14 <setup_alarm_frame+0x250>
10001c08:	4b94      	ldr	r3, [pc, #592]	; (10001e5c <setup_alarm_frame+0x298>)
10001c0a:	781b      	ldrb	r3, [r3, #0]
10001c0c:	2b01      	cmp	r3, #1
10001c0e:	d100      	bne.n	10001c12 <setup_alarm_frame+0x4e>
10001c10:	e10a      	b.n	10001e28 <setup_alarm_frame+0x264>
10001c12:	2300      	movs	r3, #0
10001c14:	4a93      	ldr	r2, [pc, #588]	; (10001e64 <setup_alarm_frame+0x2a0>)
10001c16:	7013      	strb	r3, [r2, #0]
10001c18:	4a93      	ldr	r2, [pc, #588]	; (10001e68 <setup_alarm_frame+0x2a4>)
10001c1a:	7013      	strb	r3, [r2, #0]
10001c1c:	4a93      	ldr	r2, [pc, #588]	; (10001e6c <setup_alarm_frame+0x2a8>)
10001c1e:	7013      	strb	r3, [r2, #0]
10001c20:	4a93      	ldr	r2, [pc, #588]	; (10001e70 <setup_alarm_frame+0x2ac>)
10001c22:	21ff      	movs	r1, #255	; 0xff
10001c24:	7011      	strb	r1, [r2, #0]
10001c26:	4a93      	ldr	r2, [pc, #588]	; (10001e74 <setup_alarm_frame+0x2b0>)
10001c28:	7013      	strb	r3, [r2, #0]
10001c2a:	4a93      	ldr	r2, [pc, #588]	; (10001e78 <setup_alarm_frame+0x2b4>)
10001c2c:	7013      	strb	r3, [r2, #0]
10001c2e:	4a93      	ldr	r2, [pc, #588]	; (10001e7c <setup_alarm_frame+0x2b8>)
10001c30:	7013      	strb	r3, [r2, #0]
10001c32:	4b93      	ldr	r3, [pc, #588]	; (10001e80 <setup_alarm_frame+0x2bc>)
10001c34:	781b      	ldrb	r3, [r3, #0]
10001c36:	4a88      	ldr	r2, [pc, #544]	; (10001e58 <setup_alarm_frame+0x294>)
10001c38:	7013      	strb	r3, [r2, #0]
10001c3a:	e106      	b.n	10001e4a <setup_alarm_frame+0x286>
10001c3c:	2a01      	cmp	r2, #1
10001c3e:	d02e      	beq.n	10001c9e <setup_alarm_frame+0xda>
10001c40:	2a02      	cmp	r2, #2
10001c42:	d030      	beq.n	10001ca6 <setup_alarm_frame+0xe2>
10001c44:	2141      	movs	r1, #65	; 0x41
10001c46:	2000      	movs	r0, #0
10001c48:	f7fe fdb6 	bl	100007b8 <fill_display_buffer_4X7>
10001c4c:	4b83      	ldr	r3, [pc, #524]	; (10001e5c <setup_alarm_frame+0x298>)
10001c4e:	781b      	ldrb	r3, [r3, #0]
10001c50:	2b00      	cmp	r3, #0
10001c52:	d12c      	bne.n	10001cae <setup_alarm_frame+0xea>
10001c54:	4b8b      	ldr	r3, [pc, #556]	; (10001e84 <setup_alarm_frame+0x2c0>)
10001c56:	785b      	ldrb	r3, [r3, #1]
10001c58:	2131      	movs	r1, #49	; 0x31
10001c5a:	4019      	ands	r1, r3
10001c5c:	2005      	movs	r0, #5
10001c5e:	f7fe fdab 	bl	100007b8 <fill_display_buffer_4X7>
10001c62:	213a      	movs	r1, #58	; 0x3a
10001c64:	200a      	movs	r0, #10
10001c66:	f7fe fda7 	bl	100007b8 <fill_display_buffer_4X7>
10001c6a:	4b86      	ldr	r3, [pc, #536]	; (10001e84 <setup_alarm_frame+0x2c0>)
10001c6c:	789b      	ldrb	r3, [r3, #2]
10001c6e:	2130      	movs	r1, #48	; 0x30
10001c70:	4019      	ands	r1, r3
10001c72:	200d      	movs	r0, #13
10001c74:	f7fe fda0 	bl	100007b8 <fill_display_buffer_4X7>
10001c78:	4b78      	ldr	r3, [pc, #480]	; (10001e5c <setup_alarm_frame+0x298>)
10001c7a:	781a      	ldrb	r2, [r3, #0]
10001c7c:	0093      	lsls	r3, r2, #2
10001c7e:	189b      	adds	r3, r3, r2
10001c80:	4a77      	ldr	r2, [pc, #476]	; (10001e60 <setup_alarm_frame+0x29c>)
10001c82:	5c9b      	ldrb	r3, [r3, r2]
10001c84:	2bff      	cmp	r3, #255	; 0xff
10001c86:	d01a      	beq.n	10001cbe <setup_alarm_frame+0xfa>
10001c88:	4b7e      	ldr	r3, [pc, #504]	; (10001e84 <setup_alarm_frame+0x2c0>)
10001c8a:	789b      	ldrb	r3, [r3, #2]
10001c8c:	2146      	movs	r1, #70	; 0x46
10001c8e:	4019      	ands	r1, r3
10001c90:	2012      	movs	r0, #18
10001c92:	f7fe fd91 	bl	100007b8 <fill_display_buffer_4X7>
10001c96:	201a      	movs	r0, #26
10001c98:	f7fe fdf2 	bl	10000880 <clear_framebuffer>
10001c9c:	e79d      	b.n	10001bda <setup_alarm_frame+0x16>
10001c9e:	4b7a      	ldr	r3, [pc, #488]	; (10001e88 <setup_alarm_frame+0x2c4>)
10001ca0:	21ff      	movs	r1, #255	; 0xff
10001ca2:	7059      	strb	r1, [r3, #1]
10001ca4:	e7cc      	b.n	10001c40 <setup_alarm_frame+0x7c>
10001ca6:	4b78      	ldr	r3, [pc, #480]	; (10001e88 <setup_alarm_frame+0x2c4>)
10001ca8:	32fd      	adds	r2, #253	; 0xfd
10001caa:	709a      	strb	r2, [r3, #2]
10001cac:	e7ca      	b.n	10001c44 <setup_alarm_frame+0x80>
10001cae:	4b75      	ldr	r3, [pc, #468]	; (10001e84 <setup_alarm_frame+0x2c0>)
10001cb0:	785b      	ldrb	r3, [r3, #1]
10001cb2:	2132      	movs	r1, #50	; 0x32
10001cb4:	4019      	ands	r1, r3
10001cb6:	2005      	movs	r0, #5
10001cb8:	f7fe fd7e 	bl	100007b8 <fill_display_buffer_4X7>
10001cbc:	e7d1      	b.n	10001c62 <setup_alarm_frame+0x9e>
10001cbe:	4b71      	ldr	r3, [pc, #452]	; (10001e84 <setup_alarm_frame+0x2c0>)
10001cc0:	789b      	ldrb	r3, [r3, #2]
10001cc2:	214e      	movs	r1, #78	; 0x4e
10001cc4:	4019      	ands	r1, r3
10001cc6:	2012      	movs	r0, #18
10001cc8:	f7fe fd76 	bl	100007b8 <fill_display_buffer_4X7>
10001ccc:	e7e3      	b.n	10001c96 <setup_alarm_frame+0xd2>
10001cce:	2a03      	cmp	r2, #3
10001cd0:	d05c      	beq.n	10001d8c <setup_alarm_frame+0x1c8>
10001cd2:	2a04      	cmp	r2, #4
10001cd4:	d05e      	beq.n	10001d94 <setup_alarm_frame+0x1d0>
10001cd6:	4b6d      	ldr	r3, [pc, #436]	; (10001e8c <setup_alarm_frame+0x2c8>)
10001cd8:	781b      	ldrb	r3, [r3, #0]
10001cda:	2b00      	cmp	r3, #0
10001cdc:	d05e      	beq.n	10001d9c <setup_alarm_frame+0x1d8>
10001cde:	4b5f      	ldr	r3, [pc, #380]	; (10001e5c <setup_alarm_frame+0x298>)
10001ce0:	781a      	ldrb	r2, [r3, #0]
10001ce2:	0093      	lsls	r3, r2, #2
10001ce4:	189a      	adds	r2, r3, r2
10001ce6:	4b5e      	ldr	r3, [pc, #376]	; (10001e60 <setup_alarm_frame+0x29c>)
10001ce8:	189b      	adds	r3, r3, r2
10001cea:	78dc      	ldrb	r4, [r3, #3]
10001cec:	4b67      	ldr	r3, [pc, #412]	; (10001e8c <setup_alarm_frame+0x2c8>)
10001cee:	781b      	ldrb	r3, [r3, #0]
10001cf0:	2b00      	cmp	r3, #0
10001cf2:	d102      	bne.n	10001cfa <setup_alarm_frame+0x136>
10001cf4:	2c09      	cmp	r4, #9
10001cf6:	d800      	bhi.n	10001cfa <setup_alarm_frame+0x136>
10001cf8:	e07e      	b.n	10001df8 <setup_alarm_frame+0x234>
10001cfa:	210a      	movs	r1, #10
10001cfc:	0020      	movs	r0, r4
10001cfe:	f006 f9c9 	bl	10008094 <__wrap___aeabi_uidiv>
10001d02:	0003      	movs	r3, r0
10001d04:	3330      	adds	r3, #48	; 0x30
10001d06:	b25b      	sxtb	r3, r3
10001d08:	4a5e      	ldr	r2, [pc, #376]	; (10001e84 <setup_alarm_frame+0x2c0>)
10001d0a:	2103      	movs	r1, #3
10001d0c:	5651      	ldrsb	r1, [r2, r1]
10001d0e:	4019      	ands	r1, r3
10001d10:	b2c9      	uxtb	r1, r1
10001d12:	2000      	movs	r0, #0
10001d14:	f7fe fd50 	bl	100007b8 <fill_display_buffer_4X7>
10001d18:	210a      	movs	r1, #10
10001d1a:	0020      	movs	r0, r4
10001d1c:	f006 f9ba 	bl	10008094 <__wrap___aeabi_uidiv>
10001d20:	3130      	adds	r1, #48	; 0x30
10001d22:	b24b      	sxtb	r3, r1
10001d24:	4c57      	ldr	r4, [pc, #348]	; (10001e84 <setup_alarm_frame+0x2c0>)
10001d26:	2103      	movs	r1, #3
10001d28:	5661      	ldrsb	r1, [r4, r1]
10001d2a:	4019      	ands	r1, r3
10001d2c:	b2c9      	uxtb	r1, r1
10001d2e:	2005      	movs	r0, #5
10001d30:	f7fe fd42 	bl	100007b8 <fill_display_buffer_4X7>
10001d34:	213a      	movs	r1, #58	; 0x3a
10001d36:	200a      	movs	r0, #10
10001d38:	f7fe fd3e 	bl	100007b8 <fill_display_buffer_4X7>
10001d3c:	4d48      	ldr	r5, [pc, #288]	; (10001e60 <setup_alarm_frame+0x29c>)
10001d3e:	4e47      	ldr	r6, [pc, #284]	; (10001e5c <setup_alarm_frame+0x298>)
10001d40:	7832      	ldrb	r2, [r6, #0]
10001d42:	0093      	lsls	r3, r2, #2
10001d44:	189b      	adds	r3, r3, r2
10001d46:	18eb      	adds	r3, r5, r3
10001d48:	7898      	ldrb	r0, [r3, #2]
10001d4a:	210a      	movs	r1, #10
10001d4c:	f006 f9a2 	bl	10008094 <__wrap___aeabi_uidiv>
10001d50:	3030      	adds	r0, #48	; 0x30
10001d52:	b240      	sxtb	r0, r0
10001d54:	2104      	movs	r1, #4
10001d56:	5661      	ldrsb	r1, [r4, r1]
10001d58:	4001      	ands	r1, r0
10001d5a:	b2c9      	uxtb	r1, r1
10001d5c:	200d      	movs	r0, #13
10001d5e:	f7fe fd2b 	bl	100007b8 <fill_display_buffer_4X7>
10001d62:	7832      	ldrb	r2, [r6, #0]
10001d64:	0093      	lsls	r3, r2, #2
10001d66:	189b      	adds	r3, r3, r2
10001d68:	18ed      	adds	r5, r5, r3
10001d6a:	78a8      	ldrb	r0, [r5, #2]
10001d6c:	210a      	movs	r1, #10
10001d6e:	f006 f991 	bl	10008094 <__wrap___aeabi_uidiv>
10001d72:	3130      	adds	r1, #48	; 0x30
10001d74:	b24b      	sxtb	r3, r1
10001d76:	2104      	movs	r1, #4
10001d78:	5661      	ldrsb	r1, [r4, r1]
10001d7a:	4019      	ands	r1, r3
10001d7c:	b2c9      	uxtb	r1, r1
10001d7e:	2012      	movs	r0, #18
10001d80:	f7fe fd1a 	bl	100007b8 <fill_display_buffer_4X7>
10001d84:	201a      	movs	r0, #26
10001d86:	f7fe fd7b 	bl	10000880 <clear_framebuffer>
10001d8a:	e72c      	b.n	10001be6 <setup_alarm_frame+0x22>
10001d8c:	4b3e      	ldr	r3, [pc, #248]	; (10001e88 <setup_alarm_frame+0x2c4>)
10001d8e:	21ff      	movs	r1, #255	; 0xff
10001d90:	70d9      	strb	r1, [r3, #3]
10001d92:	e79e      	b.n	10001cd2 <setup_alarm_frame+0x10e>
10001d94:	4b3c      	ldr	r3, [pc, #240]	; (10001e88 <setup_alarm_frame+0x2c4>)
10001d96:	32fb      	adds	r2, #251	; 0xfb
10001d98:	711a      	strb	r2, [r3, #4]
10001d9a:	e79c      	b.n	10001cd6 <setup_alarm_frame+0x112>
10001d9c:	250f      	movs	r5, #15
10001d9e:	446d      	add	r5, sp
10001da0:	4b2e      	ldr	r3, [pc, #184]	; (10001e5c <setup_alarm_frame+0x298>)
10001da2:	781a      	ldrb	r2, [r3, #0]
10001da4:	0093      	lsls	r3, r2, #2
10001da6:	189a      	adds	r2, r3, r2
10001da8:	4b2d      	ldr	r3, [pc, #180]	; (10001e60 <setup_alarm_frame+0x29c>)
10001daa:	189b      	adds	r3, r3, r2
10001dac:	78d8      	ldrb	r0, [r3, #3]
10001dae:	220e      	movs	r2, #14
10001db0:	446a      	add	r2, sp
10001db2:	0029      	movs	r1, r5
10001db4:	f7fe fac8 	bl	10000348 <convert_h24_to_h12>
10001db8:	0004      	movs	r4, r0
10001dba:	782b      	ldrb	r3, [r5, #0]
10001dbc:	2bff      	cmp	r3, #255	; 0xff
10001dbe:	d00f      	beq.n	10001de0 <setup_alarm_frame+0x21c>
10001dc0:	4a33      	ldr	r2, [pc, #204]	; (10001e90 <setup_alarm_frame+0x2cc>)
10001dc2:	7913      	ldrb	r3, [r2, #4]
10001dc4:	2101      	movs	r1, #1
10001dc6:	438b      	bics	r3, r1
10001dc8:	7113      	strb	r3, [r2, #4]
10001dca:	230e      	movs	r3, #14
10001dcc:	446b      	add	r3, sp
10001dce:	781b      	ldrb	r3, [r3, #0]
10001dd0:	2bff      	cmp	r3, #255	; 0xff
10001dd2:	d00b      	beq.n	10001dec <setup_alarm_frame+0x228>
10001dd4:	4a2e      	ldr	r2, [pc, #184]	; (10001e90 <setup_alarm_frame+0x2cc>)
10001dd6:	7913      	ldrb	r3, [r2, #4]
10001dd8:	2102      	movs	r1, #2
10001dda:	438b      	bics	r3, r1
10001ddc:	7113      	strb	r3, [r2, #4]
10001dde:	e785      	b.n	10001cec <setup_alarm_frame+0x128>
10001de0:	4a2b      	ldr	r2, [pc, #172]	; (10001e90 <setup_alarm_frame+0x2cc>)
10001de2:	7913      	ldrb	r3, [r2, #4]
10001de4:	2101      	movs	r1, #1
10001de6:	430b      	orrs	r3, r1
10001de8:	7113      	strb	r3, [r2, #4]
10001dea:	e7ee      	b.n	10001dca <setup_alarm_frame+0x206>
10001dec:	4a28      	ldr	r2, [pc, #160]	; (10001e90 <setup_alarm_frame+0x2cc>)
10001dee:	7913      	ldrb	r3, [r2, #4]
10001df0:	2102      	movs	r1, #2
10001df2:	430b      	orrs	r3, r1
10001df4:	7113      	strb	r3, [r2, #4]
10001df6:	e779      	b.n	10001cec <setup_alarm_frame+0x128>
10001df8:	4b26      	ldr	r3, [pc, #152]	; (10001e94 <setup_alarm_frame+0x2d0>)
10001dfa:	781b      	ldrb	r3, [r3, #0]
10001dfc:	4a21      	ldr	r2, [pc, #132]	; (10001e84 <setup_alarm_frame+0x2c0>)
10001dfe:	5cd3      	ldrb	r3, [r2, r3]
10001e00:	2120      	movs	r1, #32
10001e02:	4019      	ands	r1, r3
10001e04:	2000      	movs	r0, #0
10001e06:	f7fe fcd7 	bl	100007b8 <fill_display_buffer_4X7>
10001e0a:	e785      	b.n	10001d18 <setup_alarm_frame+0x154>
10001e0c:	4a1e      	ldr	r2, [pc, #120]	; (10001e88 <setup_alarm_frame+0x2c4>)
10001e0e:	21ff      	movs	r1, #255	; 0xff
10001e10:	7151      	strb	r1, [r2, #5]
10001e12:	e6ed      	b.n	10001bf0 <setup_alarm_frame+0x2c>
10001e14:	4912      	ldr	r1, [pc, #72]	; (10001e60 <setup_alarm_frame+0x29c>)
10001e16:	78cb      	ldrb	r3, [r1, #3]
10001e18:	788a      	ldrb	r2, [r1, #2]
10001e1a:	7909      	ldrb	r1, [r1, #4]
10001e1c:	9100      	str	r1, [sp, #0]
10001e1e:	2100      	movs	r1, #0
10001e20:	2001      	movs	r0, #1
10001e22:	f002 ffbf 	bl	10004da4 <set_alarm1_clock>
10001e26:	e6ef      	b.n	10001c08 <setup_alarm_frame+0x44>
10001e28:	4b0d      	ldr	r3, [pc, #52]	; (10001e60 <setup_alarm_frame+0x29c>)
10001e2a:	795b      	ldrb	r3, [r3, #5]
10001e2c:	2bff      	cmp	r3, #255	; 0xff
10001e2e:	d000      	beq.n	10001e32 <setup_alarm_frame+0x26e>
10001e30:	e6ef      	b.n	10001c12 <setup_alarm_frame+0x4e>
10001e32:	4b0b      	ldr	r3, [pc, #44]	; (10001e60 <setup_alarm_frame+0x29c>)
10001e34:	7a5a      	ldrb	r2, [r3, #9]
10001e36:	7a19      	ldrb	r1, [r3, #8]
10001e38:	79d8      	ldrb	r0, [r3, #7]
10001e3a:	f003 f837 	bl	10004eac <set_alarm2_clock>
10001e3e:	e6e8      	b.n	10001c12 <setup_alarm_frame+0x4e>
10001e40:	4a11      	ldr	r2, [pc, #68]	; (10001e88 <setup_alarm_frame+0x2c4>)
10001e42:	2100      	movs	r1, #0
10001e44:	54d1      	strb	r1, [r2, r3]
10001e46:	3301      	adds	r3, #1
10001e48:	b2db      	uxtb	r3, r3
10001e4a:	2b05      	cmp	r3, #5
10001e4c:	d9f8      	bls.n	10001e40 <setup_alarm_frame+0x27c>
10001e4e:	b004      	add	sp, #16
10001e50:	bd70      	pop	{r4, r5, r6, pc}
10001e52:	46c0      	nop			; (mov r8, r8)
10001e54:	20002b43 	.word	0x20002b43
10001e58:	20002b6c 	.word	0x20002b6c
10001e5c:	20002b42 	.word	0x20002b42
10001e60:	20001044 	.word	0x20001044
10001e64:	20002b53 	.word	0x20002b53
10001e68:	20002b4f 	.word	0x20002b4f
10001e6c:	20002b5a 	.word	0x20002b5a
10001e70:	20002b5c 	.word	0x20002b5c
10001e74:	20002b5e 	.word	0x20002b5e
10001e78:	20002b68 	.word	0x20002b68
10001e7c:	20002b6b 	.word	0x20002b6b
10001e80:	20002b64 	.word	0x20002b64
10001e84:	2000075c 	.word	0x2000075c
10001e88:	20001a68 	.word	0x20001a68
10001e8c:	200009dc 	.word	0x200009dc
10001e90:	2000195c 	.word	0x2000195c
10001e94:	20000931 	.word	0x20000931

10001e98 <setup_alarm_variables>:
10001e98:	b510      	push	{r4, lr}
10001e9a:	4b59      	ldr	r3, [pc, #356]	; (10002000 <setup_alarm_variables+0x168>)
10001e9c:	785b      	ldrb	r3, [r3, #1]
10001e9e:	2bff      	cmp	r3, #255	; 0xff
10001ea0:	d011      	beq.n	10001ec6 <setup_alarm_variables+0x2e>
10001ea2:	4b57      	ldr	r3, [pc, #348]	; (10002000 <setup_alarm_variables+0x168>)
10001ea4:	789b      	ldrb	r3, [r3, #2]
10001ea6:	2bff      	cmp	r3, #255	; 0xff
10001ea8:	d019      	beq.n	10001ede <setup_alarm_variables+0x46>
10001eaa:	4b55      	ldr	r3, [pc, #340]	; (10002000 <setup_alarm_variables+0x168>)
10001eac:	78db      	ldrb	r3, [r3, #3]
10001eae:	2bff      	cmp	r3, #255	; 0xff
10001eb0:	d042      	beq.n	10001f38 <setup_alarm_variables+0xa0>
10001eb2:	4b53      	ldr	r3, [pc, #332]	; (10002000 <setup_alarm_variables+0x168>)
10001eb4:	791b      	ldrb	r3, [r3, #4]
10001eb6:	2bff      	cmp	r3, #255	; 0xff
10001eb8:	d05e      	beq.n	10001f78 <setup_alarm_variables+0xe0>
10001eba:	4b51      	ldr	r3, [pc, #324]	; (10002000 <setup_alarm_variables+0x168>)
10001ebc:	795b      	ldrb	r3, [r3, #5]
10001ebe:	2bff      	cmp	r3, #255	; 0xff
10001ec0:	d100      	bne.n	10001ec4 <setup_alarm_variables+0x2c>
10001ec2:	e07b      	b.n	10001fbc <setup_alarm_variables+0x124>
10001ec4:	bd10      	pop	{r4, pc}
10001ec6:	4b4f      	ldr	r3, [pc, #316]	; (10002004 <setup_alarm_variables+0x16c>)
10001ec8:	781b      	ldrb	r3, [r3, #0]
10001eca:	2b00      	cmp	r3, #0
10001ecc:	d103      	bne.n	10001ed6 <setup_alarm_variables+0x3e>
10001ece:	4b4d      	ldr	r3, [pc, #308]	; (10002004 <setup_alarm_variables+0x16c>)
10001ed0:	2201      	movs	r2, #1
10001ed2:	701a      	strb	r2, [r3, #0]
10001ed4:	e7e5      	b.n	10001ea2 <setup_alarm_variables+0xa>
10001ed6:	4b4b      	ldr	r3, [pc, #300]	; (10002004 <setup_alarm_variables+0x16c>)
10001ed8:	2200      	movs	r2, #0
10001eda:	701a      	strb	r2, [r3, #0]
10001edc:	e7e1      	b.n	10001ea2 <setup_alarm_variables+0xa>
10001ede:	4b49      	ldr	r3, [pc, #292]	; (10002004 <setup_alarm_variables+0x16c>)
10001ee0:	781b      	ldrb	r3, [r3, #0]
10001ee2:	009a      	lsls	r2, r3, #2
10001ee4:	18d2      	adds	r2, r2, r3
10001ee6:	4948      	ldr	r1, [pc, #288]	; (10002008 <setup_alarm_variables+0x170>)
10001ee8:	5c52      	ldrb	r2, [r2, r1]
10001eea:	2aff      	cmp	r2, #255	; 0xff
10001eec:	d00c      	beq.n	10001f08 <setup_alarm_variables+0x70>
10001eee:	009a      	lsls	r2, r3, #2
10001ef0:	18d2      	adds	r2, r2, r3
10001ef2:	4945      	ldr	r1, [pc, #276]	; (10002008 <setup_alarm_variables+0x170>)
10001ef4:	24ff      	movs	r4, #255	; 0xff
10001ef6:	5454      	strb	r4, [r2, r1]
10001ef8:	2b00      	cmp	r3, #0
10001efa:	d117      	bne.n	10001f2c <setup_alarm_variables+0x94>
10001efc:	4a43      	ldr	r2, [pc, #268]	; (1000200c <setup_alarm_variables+0x174>)
10001efe:	7853      	ldrb	r3, [r2, #1]
10001f00:	2101      	movs	r1, #1
10001f02:	430b      	orrs	r3, r1
10001f04:	7053      	strb	r3, [r2, #1]
10001f06:	e7d0      	b.n	10001eaa <setup_alarm_variables+0x12>
10001f08:	009a      	lsls	r2, r3, #2
10001f0a:	18d2      	adds	r2, r2, r3
10001f0c:	2400      	movs	r4, #0
10001f0e:	5454      	strb	r4, [r2, r1]
10001f10:	2b00      	cmp	r3, #0
10001f12:	d105      	bne.n	10001f20 <setup_alarm_variables+0x88>
10001f14:	4a3d      	ldr	r2, [pc, #244]	; (1000200c <setup_alarm_variables+0x174>)
10001f16:	7853      	ldrb	r3, [r2, #1]
10001f18:	2101      	movs	r1, #1
10001f1a:	438b      	bics	r3, r1
10001f1c:	7053      	strb	r3, [r2, #1]
10001f1e:	e7c4      	b.n	10001eaa <setup_alarm_variables+0x12>
10001f20:	4a3a      	ldr	r2, [pc, #232]	; (1000200c <setup_alarm_variables+0x174>)
10001f22:	7853      	ldrb	r3, [r2, #1]
10001f24:	2102      	movs	r1, #2
10001f26:	438b      	bics	r3, r1
10001f28:	7053      	strb	r3, [r2, #1]
10001f2a:	e7be      	b.n	10001eaa <setup_alarm_variables+0x12>
10001f2c:	4a37      	ldr	r2, [pc, #220]	; (1000200c <setup_alarm_variables+0x174>)
10001f2e:	7853      	ldrb	r3, [r2, #1]
10001f30:	2102      	movs	r1, #2
10001f32:	430b      	orrs	r3, r1
10001f34:	7053      	strb	r3, [r2, #1]
10001f36:	e7b8      	b.n	10001eaa <setup_alarm_variables+0x12>
10001f38:	28ff      	cmp	r0, #255	; 0xff
10001f3a:	d00e      	beq.n	10001f5a <setup_alarm_variables+0xc2>
10001f3c:	4b31      	ldr	r3, [pc, #196]	; (10002004 <setup_alarm_variables+0x16c>)
10001f3e:	7819      	ldrb	r1, [r3, #0]
10001f40:	008b      	lsls	r3, r1, #2
10001f42:	185b      	adds	r3, r3, r1
10001f44:	4a30      	ldr	r2, [pc, #192]	; (10002008 <setup_alarm_variables+0x170>)
10001f46:	18d2      	adds	r2, r2, r3
10001f48:	78d3      	ldrb	r3, [r2, #3]
10001f4a:	3b01      	subs	r3, #1
10001f4c:	b2db      	uxtb	r3, r3
10001f4e:	70d3      	strb	r3, [r2, #3]
10001f50:	2bff      	cmp	r3, #255	; 0xff
10001f52:	d1ae      	bne.n	10001eb2 <setup_alarm_variables+0x1a>
10001f54:	2317      	movs	r3, #23
10001f56:	70d3      	strb	r3, [r2, #3]
10001f58:	e7ab      	b.n	10001eb2 <setup_alarm_variables+0x1a>
10001f5a:	4b2a      	ldr	r3, [pc, #168]	; (10002004 <setup_alarm_variables+0x16c>)
10001f5c:	7819      	ldrb	r1, [r3, #0]
10001f5e:	008b      	lsls	r3, r1, #2
10001f60:	185b      	adds	r3, r3, r1
10001f62:	4a29      	ldr	r2, [pc, #164]	; (10002008 <setup_alarm_variables+0x170>)
10001f64:	18d2      	adds	r2, r2, r3
10001f66:	78d3      	ldrb	r3, [r2, #3]
10001f68:	3301      	adds	r3, #1
10001f6a:	b2db      	uxtb	r3, r3
10001f6c:	70d3      	strb	r3, [r2, #3]
10001f6e:	2b18      	cmp	r3, #24
10001f70:	d19f      	bne.n	10001eb2 <setup_alarm_variables+0x1a>
10001f72:	2300      	movs	r3, #0
10001f74:	70d3      	strb	r3, [r2, #3]
10001f76:	e79c      	b.n	10001eb2 <setup_alarm_variables+0x1a>
10001f78:	28ff      	cmp	r0, #255	; 0xff
10001f7a:	d00f      	beq.n	10001f9c <setup_alarm_variables+0x104>
10001f7c:	4b21      	ldr	r3, [pc, #132]	; (10002004 <setup_alarm_variables+0x16c>)
10001f7e:	7819      	ldrb	r1, [r3, #0]
10001f80:	008b      	lsls	r3, r1, #2
10001f82:	185b      	adds	r3, r3, r1
10001f84:	4a20      	ldr	r2, [pc, #128]	; (10002008 <setup_alarm_variables+0x170>)
10001f86:	18d2      	adds	r2, r2, r3
10001f88:	7893      	ldrb	r3, [r2, #2]
10001f8a:	3b01      	subs	r3, #1
10001f8c:	b2db      	uxtb	r3, r3
10001f8e:	7093      	strb	r3, [r2, #2]
10001f90:	2bff      	cmp	r3, #255	; 0xff
10001f92:	d000      	beq.n	10001f96 <setup_alarm_variables+0xfe>
10001f94:	e791      	b.n	10001eba <setup_alarm_variables+0x22>
10001f96:	233b      	movs	r3, #59	; 0x3b
10001f98:	7093      	strb	r3, [r2, #2]
10001f9a:	e78e      	b.n	10001eba <setup_alarm_variables+0x22>
10001f9c:	4b19      	ldr	r3, [pc, #100]	; (10002004 <setup_alarm_variables+0x16c>)
10001f9e:	7819      	ldrb	r1, [r3, #0]
10001fa0:	008b      	lsls	r3, r1, #2
10001fa2:	185b      	adds	r3, r3, r1
10001fa4:	4a18      	ldr	r2, [pc, #96]	; (10002008 <setup_alarm_variables+0x170>)
10001fa6:	18d2      	adds	r2, r2, r3
10001fa8:	7893      	ldrb	r3, [r2, #2]
10001faa:	3301      	adds	r3, #1
10001fac:	b2db      	uxtb	r3, r3
10001fae:	7093      	strb	r3, [r2, #2]
10001fb0:	2b3c      	cmp	r3, #60	; 0x3c
10001fb2:	d000      	beq.n	10001fb6 <setup_alarm_variables+0x11e>
10001fb4:	e781      	b.n	10001eba <setup_alarm_variables+0x22>
10001fb6:	2300      	movs	r3, #0
10001fb8:	7093      	strb	r3, [r2, #2]
10001fba:	e77e      	b.n	10001eba <setup_alarm_variables+0x22>
10001fbc:	28ff      	cmp	r0, #255	; 0xff
10001fbe:	d00f      	beq.n	10001fe0 <setup_alarm_variables+0x148>
10001fc0:	4b10      	ldr	r3, [pc, #64]	; (10002004 <setup_alarm_variables+0x16c>)
10001fc2:	7819      	ldrb	r1, [r3, #0]
10001fc4:	008b      	lsls	r3, r1, #2
10001fc6:	185b      	adds	r3, r3, r1
10001fc8:	4a0f      	ldr	r2, [pc, #60]	; (10002008 <setup_alarm_variables+0x170>)
10001fca:	18d2      	adds	r2, r2, r3
10001fcc:	7913      	ldrb	r3, [r2, #4]
10001fce:	3b01      	subs	r3, #1
10001fd0:	b2db      	uxtb	r3, r3
10001fd2:	7113      	strb	r3, [r2, #4]
10001fd4:	2b00      	cmp	r3, #0
10001fd6:	d000      	beq.n	10001fda <setup_alarm_variables+0x142>
10001fd8:	e774      	b.n	10001ec4 <setup_alarm_variables+0x2c>
10001fda:	2307      	movs	r3, #7
10001fdc:	7113      	strb	r3, [r2, #4]
10001fde:	e771      	b.n	10001ec4 <setup_alarm_variables+0x2c>
10001fe0:	4b08      	ldr	r3, [pc, #32]	; (10002004 <setup_alarm_variables+0x16c>)
10001fe2:	7819      	ldrb	r1, [r3, #0]
10001fe4:	008b      	lsls	r3, r1, #2
10001fe6:	185b      	adds	r3, r3, r1
10001fe8:	4a07      	ldr	r2, [pc, #28]	; (10002008 <setup_alarm_variables+0x170>)
10001fea:	18d2      	adds	r2, r2, r3
10001fec:	7913      	ldrb	r3, [r2, #4]
10001fee:	3301      	adds	r3, #1
10001ff0:	b2db      	uxtb	r3, r3
10001ff2:	7113      	strb	r3, [r2, #4]
10001ff4:	2b08      	cmp	r3, #8
10001ff6:	d000      	beq.n	10001ffa <setup_alarm_variables+0x162>
10001ff8:	e764      	b.n	10001ec4 <setup_alarm_variables+0x2c>
10001ffa:	2301      	movs	r3, #1
10001ffc:	7113      	strb	r3, [r2, #4]
10001ffe:	e761      	b.n	10001ec4 <setup_alarm_variables+0x2c>
10002000:	20001a68 	.word	0x20001a68
10002004:	20002b42 	.word	0x20002b42
10002008:	20001044 	.word	0x20001044
1000200c:	2000195c 	.word	0x2000195c

10002010 <setup_clock_frame>:
10002010:	b570      	push	{r4, r5, r6, lr}
10002012:	b084      	sub	sp, #16
10002014:	4bb7      	ldr	r3, [pc, #732]	; (100022f4 <setup_clock_frame+0x2e4>)
10002016:	781a      	ldrb	r2, [r3, #0]
10002018:	4bb7      	ldr	r3, [pc, #732]	; (100022f8 <setup_clock_frame+0x2e8>)
1000201a:	781b      	ldrb	r3, [r3, #0]
1000201c:	429a      	cmp	r2, r3
1000201e:	d101      	bne.n	10002024 <setup_clock_frame+0x14>
10002020:	f000 fe8c 	bl	10002d3c <setup_clock_frame+0xd2c>
10002024:	4bb5      	ldr	r3, [pc, #724]	; (100022fc <setup_clock_frame+0x2ec>)
10002026:	2202      	movs	r2, #2
10002028:	701a      	strb	r2, [r3, #0]
1000202a:	4cb5      	ldr	r4, [pc, #724]	; (10002300 <setup_clock_frame+0x2f0>)
1000202c:	4668      	mov	r0, sp
1000202e:	f002 fe8f 	bl	10004d50 <Read_RTC>
10002032:	2207      	movs	r2, #7
10002034:	4669      	mov	r1, sp
10002036:	0020      	movs	r0, r4
10002038:	f006 fc9c 	bl	10008974 <__wrap___aeabi_memcpy>
1000203c:	7822      	ldrb	r2, [r4, #0]
1000203e:	237f      	movs	r3, #127	; 0x7f
10002040:	401a      	ands	r2, r3
10002042:	7022      	strb	r2, [r4, #0]
10002044:	7862      	ldrb	r2, [r4, #1]
10002046:	4013      	ands	r3, r2
10002048:	7063      	strb	r3, [r4, #1]
1000204a:	78a0      	ldrb	r0, [r4, #2]
1000204c:	233f      	movs	r3, #63	; 0x3f
1000204e:	4018      	ands	r0, r3
10002050:	70a0      	strb	r0, [r4, #2]
10002052:	78e1      	ldrb	r1, [r4, #3]
10002054:	2207      	movs	r2, #7
10002056:	400a      	ands	r2, r1
10002058:	70e2      	strb	r2, [r4, #3]
1000205a:	7922      	ldrb	r2, [r4, #4]
1000205c:	4013      	ands	r3, r2
1000205e:	7123      	strb	r3, [r4, #4]
10002060:	7962      	ldrb	r2, [r4, #5]
10002062:	231f      	movs	r3, #31
10002064:	4013      	ands	r3, r2
10002066:	7163      	strb	r3, [r4, #5]
10002068:	4ba2      	ldr	r3, [pc, #648]	; (100022f4 <setup_clock_frame+0x2e4>)
1000206a:	781b      	ldrb	r3, [r3, #0]
1000206c:	4aa5      	ldr	r2, [pc, #660]	; (10002304 <setup_clock_frame+0x2f4>)
1000206e:	7812      	ldrb	r2, [r2, #0]
10002070:	4293      	cmp	r3, r2
10002072:	d003      	beq.n	1000207c <setup_clock_frame+0x6c>
10002074:	49a4      	ldr	r1, [pc, #656]	; (10002308 <setup_clock_frame+0x2f8>)
10002076:	7809      	ldrb	r1, [r1, #0]
10002078:	428b      	cmp	r3, r1
1000207a:	d15b      	bne.n	10002134 <setup_clock_frame+0x124>
1000207c:	4293      	cmp	r3, r2
1000207e:	d100      	bne.n	10002082 <setup_clock_frame+0x72>
10002080:	e0e4      	b.n	1000224c <setup_clock_frame+0x23c>
10002082:	4b9c      	ldr	r3, [pc, #624]	; (100022f4 <setup_clock_frame+0x2e4>)
10002084:	781a      	ldrb	r2, [r3, #0]
10002086:	4ba0      	ldr	r3, [pc, #640]	; (10002308 <setup_clock_frame+0x2f8>)
10002088:	781b      	ldrb	r3, [r3, #0]
1000208a:	429a      	cmp	r2, r3
1000208c:	d100      	bne.n	10002090 <setup_clock_frame+0x80>
1000208e:	e0ec      	b.n	1000226a <setup_clock_frame+0x25a>
10002090:	4b9e      	ldr	r3, [pc, #632]	; (1000230c <setup_clock_frame+0x2fc>)
10002092:	781b      	ldrb	r3, [r3, #0]
10002094:	2b00      	cmp	r3, #0
10002096:	d100      	bne.n	1000209a <setup_clock_frame+0x8a>
10002098:	e0f8      	b.n	1000228c <setup_clock_frame+0x27c>
1000209a:	4b9d      	ldr	r3, [pc, #628]	; (10002310 <setup_clock_frame+0x300>)
1000209c:	781a      	ldrb	r2, [r3, #0]
1000209e:	4b9d      	ldr	r3, [pc, #628]	; (10002314 <setup_clock_frame+0x304>)
100020a0:	701a      	strb	r2, [r3, #0]
100020a2:	4b9a      	ldr	r3, [pc, #616]	; (1000230c <setup_clock_frame+0x2fc>)
100020a4:	781b      	ldrb	r3, [r3, #0]
100020a6:	2b00      	cmp	r3, #0
100020a8:	d104      	bne.n	100020b4 <setup_clock_frame+0xa4>
100020aa:	4b9a      	ldr	r3, [pc, #616]	; (10002314 <setup_clock_frame+0x304>)
100020ac:	781b      	ldrb	r3, [r3, #0]
100020ae:	2b09      	cmp	r3, #9
100020b0:	d800      	bhi.n	100020b4 <setup_clock_frame+0xa4>
100020b2:	e115      	b.n	100022e0 <setup_clock_frame+0x2d0>
100020b4:	4b97      	ldr	r3, [pc, #604]	; (10002314 <setup_clock_frame+0x304>)
100020b6:	7818      	ldrb	r0, [r3, #0]
100020b8:	210a      	movs	r1, #10
100020ba:	f005 ffeb 	bl	10008094 <__wrap___aeabi_uidiv>
100020be:	3030      	adds	r0, #48	; 0x30
100020c0:	b240      	sxtb	r0, r0
100020c2:	4b90      	ldr	r3, [pc, #576]	; (10002304 <setup_clock_frame+0x2f4>)
100020c4:	781b      	ldrb	r3, [r3, #0]
100020c6:	4a94      	ldr	r2, [pc, #592]	; (10002318 <setup_clock_frame+0x308>)
100020c8:	56d1      	ldrsb	r1, [r2, r3]
100020ca:	4001      	ands	r1, r0
100020cc:	b2c9      	uxtb	r1, r1
100020ce:	2000      	movs	r0, #0
100020d0:	f7fe fb72 	bl	100007b8 <fill_display_buffer_4X7>
100020d4:	4b8f      	ldr	r3, [pc, #572]	; (10002314 <setup_clock_frame+0x304>)
100020d6:	7818      	ldrb	r0, [r3, #0]
100020d8:	210a      	movs	r1, #10
100020da:	f005 ffdb 	bl	10008094 <__wrap___aeabi_uidiv>
100020de:	3130      	adds	r1, #48	; 0x30
100020e0:	b24b      	sxtb	r3, r1
100020e2:	4c8d      	ldr	r4, [pc, #564]	; (10002318 <setup_clock_frame+0x308>)
100020e4:	4a87      	ldr	r2, [pc, #540]	; (10002304 <setup_clock_frame+0x2f4>)
100020e6:	7812      	ldrb	r2, [r2, #0]
100020e8:	56a1      	ldrsb	r1, [r4, r2]
100020ea:	4019      	ands	r1, r3
100020ec:	b2c9      	uxtb	r1, r1
100020ee:	2005      	movs	r0, #5
100020f0:	f7fe fb62 	bl	100007b8 <fill_display_buffer_4X7>
100020f4:	213a      	movs	r1, #58	; 0x3a
100020f6:	200a      	movs	r0, #10
100020f8:	f7fe fb5e 	bl	100007b8 <fill_display_buffer_4X7>
100020fc:	4e87      	ldr	r6, [pc, #540]	; (1000231c <setup_clock_frame+0x30c>)
100020fe:	7830      	ldrb	r0, [r6, #0]
10002100:	210a      	movs	r1, #10
10002102:	f005 ffc7 	bl	10008094 <__wrap___aeabi_uidiv>
10002106:	3030      	adds	r0, #48	; 0x30
10002108:	b240      	sxtb	r0, r0
1000210a:	4d7f      	ldr	r5, [pc, #508]	; (10002308 <setup_clock_frame+0x2f8>)
1000210c:	782b      	ldrb	r3, [r5, #0]
1000210e:	56e1      	ldrsb	r1, [r4, r3]
10002110:	4001      	ands	r1, r0
10002112:	b2c9      	uxtb	r1, r1
10002114:	200c      	movs	r0, #12
10002116:	f7fe fb4f 	bl	100007b8 <fill_display_buffer_4X7>
1000211a:	7830      	ldrb	r0, [r6, #0]
1000211c:	210a      	movs	r1, #10
1000211e:	f005 ffb9 	bl	10008094 <__wrap___aeabi_uidiv>
10002122:	3130      	adds	r1, #48	; 0x30
10002124:	b24b      	sxtb	r3, r1
10002126:	782a      	ldrb	r2, [r5, #0]
10002128:	56a1      	ldrsb	r1, [r4, r2]
1000212a:	4019      	ands	r1, r3
1000212c:	b2c9      	uxtb	r1, r1
1000212e:	2011      	movs	r0, #17
10002130:	f7fe fb42 	bl	100007b8 <fill_display_buffer_4X7>
10002134:	4b6f      	ldr	r3, [pc, #444]	; (100022f4 <setup_clock_frame+0x2e4>)
10002136:	781d      	ldrb	r5, [r3, #0]
10002138:	4b79      	ldr	r3, [pc, #484]	; (10002320 <setup_clock_frame+0x310>)
1000213a:	781c      	ldrb	r4, [r3, #0]
1000213c:	42a5      	cmp	r5, r4
1000213e:	d100      	bne.n	10002142 <setup_clock_frame+0x132>
10002140:	e120      	b.n	10002384 <setup_clock_frame+0x374>
10002142:	4b78      	ldr	r3, [pc, #480]	; (10002324 <setup_clock_frame+0x314>)
10002144:	781b      	ldrb	r3, [r3, #0]
10002146:	429d      	cmp	r5, r3
10002148:	d100      	bne.n	1000214c <setup_clock_frame+0x13c>
1000214a:	e11b      	b.n	10002384 <setup_clock_frame+0x374>
1000214c:	4b69      	ldr	r3, [pc, #420]	; (100022f4 <setup_clock_frame+0x2e4>)
1000214e:	781a      	ldrb	r2, [r3, #0]
10002150:	4b75      	ldr	r3, [pc, #468]	; (10002328 <setup_clock_frame+0x318>)
10002152:	781b      	ldrb	r3, [r3, #0]
10002154:	429a      	cmp	r2, r3
10002156:	d100      	bne.n	1000215a <setup_clock_frame+0x14a>
10002158:	e1b9      	b.n	100024ce <setup_clock_frame+0x4be>
1000215a:	4b66      	ldr	r3, [pc, #408]	; (100022f4 <setup_clock_frame+0x2e4>)
1000215c:	781a      	ldrb	r2, [r3, #0]
1000215e:	4b73      	ldr	r3, [pc, #460]	; (1000232c <setup_clock_frame+0x31c>)
10002160:	781b      	ldrb	r3, [r3, #0]
10002162:	429a      	cmp	r2, r3
10002164:	d100      	bne.n	10002168 <setup_clock_frame+0x158>
10002166:	e1f1      	b.n	1000254c <setup_clock_frame+0x53c>
10002168:	4b62      	ldr	r3, [pc, #392]	; (100022f4 <setup_clock_frame+0x2e4>)
1000216a:	781a      	ldrb	r2, [r3, #0]
1000216c:	4b70      	ldr	r3, [pc, #448]	; (10002330 <setup_clock_frame+0x320>)
1000216e:	781b      	ldrb	r3, [r3, #0]
10002170:	429a      	cmp	r2, r3
10002172:	d100      	bne.n	10002176 <setup_clock_frame+0x166>
10002174:	e217      	b.n	100025a6 <setup_clock_frame+0x596>
10002176:	4b5f      	ldr	r3, [pc, #380]	; (100022f4 <setup_clock_frame+0x2e4>)
10002178:	781a      	ldrb	r2, [r3, #0]
1000217a:	4b6e      	ldr	r3, [pc, #440]	; (10002334 <setup_clock_frame+0x324>)
1000217c:	781b      	ldrb	r3, [r3, #0]
1000217e:	429a      	cmp	r2, r3
10002180:	d100      	bne.n	10002184 <setup_clock_frame+0x174>
10002182:	e245      	b.n	10002610 <setup_clock_frame+0x600>
10002184:	4b5b      	ldr	r3, [pc, #364]	; (100022f4 <setup_clock_frame+0x2e4>)
10002186:	781a      	ldrb	r2, [r3, #0]
10002188:	4b6b      	ldr	r3, [pc, #428]	; (10002338 <setup_clock_frame+0x328>)
1000218a:	781b      	ldrb	r3, [r3, #0]
1000218c:	429a      	cmp	r2, r3
1000218e:	d100      	bne.n	10002192 <setup_clock_frame+0x182>
10002190:	e271      	b.n	10002676 <setup_clock_frame+0x666>
10002192:	4b58      	ldr	r3, [pc, #352]	; (100022f4 <setup_clock_frame+0x2e4>)
10002194:	781a      	ldrb	r2, [r3, #0]
10002196:	4b69      	ldr	r3, [pc, #420]	; (1000233c <setup_clock_frame+0x32c>)
10002198:	781b      	ldrb	r3, [r3, #0]
1000219a:	429a      	cmp	r2, r3
1000219c:	d100      	bne.n	100021a0 <setup_clock_frame+0x190>
1000219e:	e297      	b.n	100026d0 <setup_clock_frame+0x6c0>
100021a0:	4b54      	ldr	r3, [pc, #336]	; (100022f4 <setup_clock_frame+0x2e4>)
100021a2:	781a      	ldrb	r2, [r3, #0]
100021a4:	4b66      	ldr	r3, [pc, #408]	; (10002340 <setup_clock_frame+0x330>)
100021a6:	781b      	ldrb	r3, [r3, #0]
100021a8:	429a      	cmp	r2, r3
100021aa:	d100      	bne.n	100021ae <setup_clock_frame+0x19e>
100021ac:	e2ea      	b.n	10002784 <setup_clock_frame+0x774>
100021ae:	4b51      	ldr	r3, [pc, #324]	; (100022f4 <setup_clock_frame+0x2e4>)
100021b0:	781a      	ldrb	r2, [r3, #0]
100021b2:	4b64      	ldr	r3, [pc, #400]	; (10002344 <setup_clock_frame+0x334>)
100021b4:	781b      	ldrb	r3, [r3, #0]
100021b6:	429a      	cmp	r2, r3
100021b8:	d100      	bne.n	100021bc <setup_clock_frame+0x1ac>
100021ba:	e32d      	b.n	10002818 <setup_clock_frame+0x808>
100021bc:	4b4d      	ldr	r3, [pc, #308]	; (100022f4 <setup_clock_frame+0x2e4>)
100021be:	781a      	ldrb	r2, [r3, #0]
100021c0:	4b61      	ldr	r3, [pc, #388]	; (10002348 <setup_clock_frame+0x338>)
100021c2:	781b      	ldrb	r3, [r3, #0]
100021c4:	429a      	cmp	r2, r3
100021c6:	d100      	bne.n	100021ca <setup_clock_frame+0x1ba>
100021c8:	e37a      	b.n	100028c0 <setup_clock_frame+0x8b0>
100021ca:	4b4a      	ldr	r3, [pc, #296]	; (100022f4 <setup_clock_frame+0x2e4>)
100021cc:	781a      	ldrb	r2, [r3, #0]
100021ce:	4b5f      	ldr	r3, [pc, #380]	; (1000234c <setup_clock_frame+0x33c>)
100021d0:	781b      	ldrb	r3, [r3, #0]
100021d2:	429a      	cmp	r2, r3
100021d4:	d100      	bne.n	100021d8 <setup_clock_frame+0x1c8>
100021d6:	e3d5      	b.n	10002984 <setup_clock_frame+0x974>
100021d8:	4b46      	ldr	r3, [pc, #280]	; (100022f4 <setup_clock_frame+0x2e4>)
100021da:	781a      	ldrb	r2, [r3, #0]
100021dc:	4b5c      	ldr	r3, [pc, #368]	; (10002350 <setup_clock_frame+0x340>)
100021de:	781b      	ldrb	r3, [r3, #0]
100021e0:	429a      	cmp	r2, r3
100021e2:	d101      	bne.n	100021e8 <setup_clock_frame+0x1d8>
100021e4:	f000 fc31 	bl	10002a4a <setup_clock_frame+0xa3a>
100021e8:	4b42      	ldr	r3, [pc, #264]	; (100022f4 <setup_clock_frame+0x2e4>)
100021ea:	781a      	ldrb	r2, [r3, #0]
100021ec:	4b59      	ldr	r3, [pc, #356]	; (10002354 <setup_clock_frame+0x344>)
100021ee:	781b      	ldrb	r3, [r3, #0]
100021f0:	429a      	cmp	r2, r3
100021f2:	d101      	bne.n	100021f8 <setup_clock_frame+0x1e8>
100021f4:	f000 fcbe 	bl	10002b74 <setup_clock_frame+0xb64>
100021f8:	4b3e      	ldr	r3, [pc, #248]	; (100022f4 <setup_clock_frame+0x2e4>)
100021fa:	781a      	ldrb	r2, [r3, #0]
100021fc:	4b56      	ldr	r3, [pc, #344]	; (10002358 <setup_clock_frame+0x348>)
100021fe:	781b      	ldrb	r3, [r3, #0]
10002200:	429a      	cmp	r2, r3
10002202:	d101      	bne.n	10002208 <setup_clock_frame+0x1f8>
10002204:	f000 fd19 	bl	10002c3a <setup_clock_frame+0xc2a>
10002208:	4b3a      	ldr	r3, [pc, #232]	; (100022f4 <setup_clock_frame+0x2e4>)
1000220a:	781a      	ldrb	r2, [r3, #0]
1000220c:	4b53      	ldr	r3, [pc, #332]	; (1000235c <setup_clock_frame+0x34c>)
1000220e:	781b      	ldrb	r3, [r3, #0]
10002210:	429a      	cmp	r2, r3
10002212:	d101      	bne.n	10002218 <setup_clock_frame+0x208>
10002214:	f000 fd74 	bl	10002d00 <setup_clock_frame+0xcf0>
10002218:	4b36      	ldr	r3, [pc, #216]	; (100022f4 <setup_clock_frame+0x2e4>)
1000221a:	781b      	ldrb	r3, [r3, #0]
1000221c:	2b12      	cmp	r3, #18
1000221e:	d801      	bhi.n	10002224 <setup_clock_frame+0x214>
10002220:	f000 fd8c 	bl	10002d3c <setup_clock_frame+0xd2c>
10002224:	2200      	movs	r2, #0
10002226:	4b4e      	ldr	r3, [pc, #312]	; (10002360 <setup_clock_frame+0x350>)
10002228:	701a      	strb	r2, [r3, #0]
1000222a:	4b4e      	ldr	r3, [pc, #312]	; (10002364 <setup_clock_frame+0x354>)
1000222c:	701a      	strb	r2, [r3, #0]
1000222e:	4b32      	ldr	r3, [pc, #200]	; (100022f8 <setup_clock_frame+0x2e8>)
10002230:	781b      	ldrb	r3, [r3, #0]
10002232:	4930      	ldr	r1, [pc, #192]	; (100022f4 <setup_clock_frame+0x2e4>)
10002234:	700b      	strb	r3, [r1, #0]
10002236:	494c      	ldr	r1, [pc, #304]	; (10002368 <setup_clock_frame+0x358>)
10002238:	700a      	strb	r2, [r1, #0]
1000223a:	494c      	ldr	r1, [pc, #304]	; (1000236c <setup_clock_frame+0x35c>)
1000223c:	700a      	strb	r2, [r1, #0]
1000223e:	494c      	ldr	r1, [pc, #304]	; (10002370 <setup_clock_frame+0x360>)
10002240:	700a      	strb	r2, [r1, #0]
10002242:	4a4c      	ldr	r2, [pc, #304]	; (10002374 <setup_clock_frame+0x364>)
10002244:	21ff      	movs	r1, #255	; 0xff
10002246:	7011      	strb	r1, [r2, #0]
10002248:	f000 fd76 	bl	10002d38 <setup_clock_frame+0xd28>
1000224c:	4b4a      	ldr	r3, [pc, #296]	; (10002378 <setup_clock_frame+0x368>)
1000224e:	5c9b      	ldrb	r3, [r3, r2]
10002250:	2b00      	cmp	r3, #0
10002252:	d005      	beq.n	10002260 <setup_clock_frame+0x250>
10002254:	4b2b      	ldr	r3, [pc, #172]	; (10002304 <setup_clock_frame+0x2f4>)
10002256:	781b      	ldrb	r3, [r3, #0]
10002258:	4a47      	ldr	r2, [pc, #284]	; (10002378 <setup_clock_frame+0x368>)
1000225a:	21ff      	movs	r1, #255	; 0xff
1000225c:	54d1      	strb	r1, [r2, r3]
1000225e:	e710      	b.n	10002082 <setup_clock_frame+0x72>
10002260:	f002 fcd0 	bl	10004c04 <bcd_to_byte>
10002264:	4b2a      	ldr	r3, [pc, #168]	; (10002310 <setup_clock_frame+0x300>)
10002266:	7018      	strb	r0, [r3, #0]
10002268:	e7f4      	b.n	10002254 <setup_clock_frame+0x244>
1000226a:	4a43      	ldr	r2, [pc, #268]	; (10002378 <setup_clock_frame+0x368>)
1000226c:	5cd3      	ldrb	r3, [r2, r3]
1000226e:	2b00      	cmp	r3, #0
10002270:	d005      	beq.n	1000227e <setup_clock_frame+0x26e>
10002272:	4b25      	ldr	r3, [pc, #148]	; (10002308 <setup_clock_frame+0x2f8>)
10002274:	781b      	ldrb	r3, [r3, #0]
10002276:	4a40      	ldr	r2, [pc, #256]	; (10002378 <setup_clock_frame+0x368>)
10002278:	21ff      	movs	r1, #255	; 0xff
1000227a:	54d1      	strb	r1, [r2, r3]
1000227c:	e708      	b.n	10002090 <setup_clock_frame+0x80>
1000227e:	4b20      	ldr	r3, [pc, #128]	; (10002300 <setup_clock_frame+0x2f0>)
10002280:	7858      	ldrb	r0, [r3, #1]
10002282:	f002 fcbf 	bl	10004c04 <bcd_to_byte>
10002286:	4b3d      	ldr	r3, [pc, #244]	; (1000237c <setup_clock_frame+0x36c>)
10002288:	7018      	strb	r0, [r3, #0]
1000228a:	e7f2      	b.n	10002272 <setup_clock_frame+0x262>
1000228c:	240f      	movs	r4, #15
1000228e:	446c      	add	r4, sp
10002290:	4b1f      	ldr	r3, [pc, #124]	; (10002310 <setup_clock_frame+0x300>)
10002292:	7818      	ldrb	r0, [r3, #0]
10002294:	220e      	movs	r2, #14
10002296:	446a      	add	r2, sp
10002298:	0021      	movs	r1, r4
1000229a:	f7fe f855 	bl	10000348 <convert_h24_to_h12>
1000229e:	4b1d      	ldr	r3, [pc, #116]	; (10002314 <setup_clock_frame+0x304>)
100022a0:	7018      	strb	r0, [r3, #0]
100022a2:	7823      	ldrb	r3, [r4, #0]
100022a4:	2bff      	cmp	r3, #255	; 0xff
100022a6:	d00f      	beq.n	100022c8 <setup_clock_frame+0x2b8>
100022a8:	4a35      	ldr	r2, [pc, #212]	; (10002380 <setup_clock_frame+0x370>)
100022aa:	7913      	ldrb	r3, [r2, #4]
100022ac:	2101      	movs	r1, #1
100022ae:	438b      	bics	r3, r1
100022b0:	7113      	strb	r3, [r2, #4]
100022b2:	230e      	movs	r3, #14
100022b4:	446b      	add	r3, sp
100022b6:	781b      	ldrb	r3, [r3, #0]
100022b8:	2bff      	cmp	r3, #255	; 0xff
100022ba:	d00b      	beq.n	100022d4 <setup_clock_frame+0x2c4>
100022bc:	4a30      	ldr	r2, [pc, #192]	; (10002380 <setup_clock_frame+0x370>)
100022be:	7913      	ldrb	r3, [r2, #4]
100022c0:	2102      	movs	r1, #2
100022c2:	438b      	bics	r3, r1
100022c4:	7113      	strb	r3, [r2, #4]
100022c6:	e6ec      	b.n	100020a2 <setup_clock_frame+0x92>
100022c8:	4a2d      	ldr	r2, [pc, #180]	; (10002380 <setup_clock_frame+0x370>)
100022ca:	7913      	ldrb	r3, [r2, #4]
100022cc:	2101      	movs	r1, #1
100022ce:	430b      	orrs	r3, r1
100022d0:	7113      	strb	r3, [r2, #4]
100022d2:	e7ee      	b.n	100022b2 <setup_clock_frame+0x2a2>
100022d4:	4a2a      	ldr	r2, [pc, #168]	; (10002380 <setup_clock_frame+0x370>)
100022d6:	7913      	ldrb	r3, [r2, #4]
100022d8:	2102      	movs	r1, #2
100022da:	430b      	orrs	r3, r1
100022dc:	7113      	strb	r3, [r2, #4]
100022de:	e6e0      	b.n	100020a2 <setup_clock_frame+0x92>
100022e0:	4b08      	ldr	r3, [pc, #32]	; (10002304 <setup_clock_frame+0x2f4>)
100022e2:	781b      	ldrb	r3, [r3, #0]
100022e4:	4a0c      	ldr	r2, [pc, #48]	; (10002318 <setup_clock_frame+0x308>)
100022e6:	5cd3      	ldrb	r3, [r2, r3]
100022e8:	2120      	movs	r1, #32
100022ea:	4019      	ands	r1, r3
100022ec:	2000      	movs	r0, #0
100022ee:	f7fe fa63 	bl	100007b8 <fill_display_buffer_4X7>
100022f2:	e6ef      	b.n	100020d4 <setup_clock_frame+0xc4>
100022f4:	20002b6c 	.word	0x20002b6c
100022f8:	20002b64 	.word	0x20002b64
100022fc:	20002b43 	.word	0x20002b43
10002300:	20002768 	.word	0x20002768
10002304:	20000931 	.word	0x20000931
10002308:	20000935 	.word	0x20000935
1000230c:	200009dc 	.word	0x200009dc
10002310:	20002b46 	.word	0x20002b46
10002314:	20002b45 	.word	0x20002b45
10002318:	2000075c 	.word	0x2000075c
1000231c:	20002b47 	.word	0x20002b47
10002320:	2000092f 	.word	0x2000092f
10002324:	20000936 	.word	0x20000936
10002328:	2000093d 	.word	0x2000093d
1000232c:	20000930 	.word	0x20000930
10002330:	20000933 	.word	0x20000933
10002334:	2000093a 	.word	0x2000093a
10002338:	2000093b 	.word	0x2000093b
1000233c:	20000934 	.word	0x20000934
10002340:	2000093c 	.word	0x2000093c
10002344:	20000932 	.word	0x20000932
10002348:	2000092e 	.word	0x2000092e
1000234c:	2000092d 	.word	0x2000092d
10002350:	20000937 	.word	0x20000937
10002354:	20000939 	.word	0x20000939
10002358:	20000938 	.word	0x20000938
1000235c:	2000092c 	.word	0x2000092c
10002360:	20002b5e 	.word	0x20002b5e
10002364:	20002b6b 	.word	0x20002b6b
10002368:	20002b4f 	.word	0x20002b4f
1000236c:	20002b54 	.word	0x20002b54
10002370:	20002b5a 	.word	0x20002b5a
10002374:	20002b5c 	.word	0x20002b5c
10002378:	20001a70 	.word	0x20001a70
1000237c:	20002b48 	.word	0x20002b48
10002380:	2000195c 	.word	0x2000195c
10002384:	4be5      	ldr	r3, [pc, #916]	; (1000271c <setup_clock_frame+0x70c>)
10002386:	7818      	ldrb	r0, [r3, #0]
10002388:	2364      	movs	r3, #100	; 0x64
1000238a:	4343      	muls	r3, r0
1000238c:	4ae4      	ldr	r2, [pc, #912]	; (10002720 <setup_clock_frame+0x710>)
1000238e:	7810      	ldrb	r0, [r2, #0]
10002390:	18c0      	adds	r0, r0, r3
10002392:	b280      	uxth	r0, r0
10002394:	4be3      	ldr	r3, [pc, #908]	; (10002724 <setup_clock_frame+0x714>)
10002396:	8018      	strh	r0, [r3, #0]
10002398:	4be3      	ldr	r3, [pc, #908]	; (10002728 <setup_clock_frame+0x718>)
1000239a:	781e      	ldrb	r6, [r3, #0]
1000239c:	0031      	movs	r1, r6
1000239e:	f7fe fc43 	bl	10000c28 <get_month_days>
100023a2:	4be2      	ldr	r3, [pc, #904]	; (1000272c <setup_clock_frame+0x71c>)
100023a4:	781b      	ldrb	r3, [r3, #0]
100023a6:	4283      	cmp	r3, r0
100023a8:	d901      	bls.n	100023ae <setup_clock_frame+0x39e>
100023aa:	4be0      	ldr	r3, [pc, #896]	; (1000272c <setup_clock_frame+0x71c>)
100023ac:	7018      	strb	r0, [r3, #0]
100023ae:	42a5      	cmp	r5, r4
100023b0:	d048      	beq.n	10002444 <setup_clock_frame+0x434>
100023b2:	4bdf      	ldr	r3, [pc, #892]	; (10002730 <setup_clock_frame+0x720>)
100023b4:	781a      	ldrb	r2, [r3, #0]
100023b6:	4bdf      	ldr	r3, [pc, #892]	; (10002734 <setup_clock_frame+0x724>)
100023b8:	21ff      	movs	r1, #255	; 0xff
100023ba:	5499      	strb	r1, [r3, r2]
100023bc:	2200      	movs	r2, #0
100023be:	551a      	strb	r2, [r3, r4]
100023c0:	4bdd      	ldr	r3, [pc, #884]	; (10002738 <setup_clock_frame+0x728>)
100023c2:	781b      	ldrb	r3, [r3, #0]
100023c4:	2b02      	cmp	r3, #2
100023c6:	d045      	beq.n	10002454 <setup_clock_frame+0x444>
100023c8:	210a      	movs	r1, #10
100023ca:	0030      	movs	r0, r6
100023cc:	f005 fe62 	bl	10008094 <__wrap___aeabi_uidiv>
100023d0:	3030      	adds	r0, #48	; 0x30
100023d2:	b240      	sxtb	r0, r0
100023d4:	4cd9      	ldr	r4, [pc, #868]	; (1000273c <setup_clock_frame+0x72c>)
100023d6:	4dd6      	ldr	r5, [pc, #856]	; (10002730 <setup_clock_frame+0x720>)
100023d8:	782b      	ldrb	r3, [r5, #0]
100023da:	56e1      	ldrsb	r1, [r4, r3]
100023dc:	4001      	ands	r1, r0
100023de:	b2c9      	uxtb	r1, r1
100023e0:	2000      	movs	r0, #0
100023e2:	f7fe f9e9 	bl	100007b8 <fill_display_buffer_4X7>
100023e6:	4bd0      	ldr	r3, [pc, #832]	; (10002728 <setup_clock_frame+0x718>)
100023e8:	7818      	ldrb	r0, [r3, #0]
100023ea:	210a      	movs	r1, #10
100023ec:	f005 fe52 	bl	10008094 <__wrap___aeabi_uidiv>
100023f0:	3130      	adds	r1, #48	; 0x30
100023f2:	b24b      	sxtb	r3, r1
100023f4:	782a      	ldrb	r2, [r5, #0]
100023f6:	56a1      	ldrsb	r1, [r4, r2]
100023f8:	4019      	ands	r1, r3
100023fa:	b2c9      	uxtb	r1, r1
100023fc:	2005      	movs	r0, #5
100023fe:	f7fe f9db 	bl	100007b8 <fill_display_buffer_4X7>
10002402:	212d      	movs	r1, #45	; 0x2d
10002404:	200a      	movs	r0, #10
10002406:	f7fe f9d7 	bl	100007b8 <fill_display_buffer_4X7>
1000240a:	4ec8      	ldr	r6, [pc, #800]	; (1000272c <setup_clock_frame+0x71c>)
1000240c:	7830      	ldrb	r0, [r6, #0]
1000240e:	210a      	movs	r1, #10
10002410:	f005 fe40 	bl	10008094 <__wrap___aeabi_uidiv>
10002414:	3030      	adds	r0, #48	; 0x30
10002416:	b240      	sxtb	r0, r0
10002418:	4dc9      	ldr	r5, [pc, #804]	; (10002740 <setup_clock_frame+0x730>)
1000241a:	782b      	ldrb	r3, [r5, #0]
1000241c:	56e1      	ldrsb	r1, [r4, r3]
1000241e:	4001      	ands	r1, r0
10002420:	b2c9      	uxtb	r1, r1
10002422:	200d      	movs	r0, #13
10002424:	f7fe f9c8 	bl	100007b8 <fill_display_buffer_4X7>
10002428:	7830      	ldrb	r0, [r6, #0]
1000242a:	210a      	movs	r1, #10
1000242c:	f005 fe32 	bl	10008094 <__wrap___aeabi_uidiv>
10002430:	3130      	adds	r1, #48	; 0x30
10002432:	b24b      	sxtb	r3, r1
10002434:	782a      	ldrb	r2, [r5, #0]
10002436:	56a1      	ldrsb	r1, [r4, r2]
10002438:	4019      	ands	r1, r3
1000243a:	b2c9      	uxtb	r1, r1
1000243c:	2012      	movs	r0, #18
1000243e:	f7fe f9bb 	bl	100007b8 <fill_display_buffer_4X7>
10002442:	e683      	b.n	1000214c <setup_clock_frame+0x13c>
10002444:	4bbb      	ldr	r3, [pc, #748]	; (10002734 <setup_clock_frame+0x724>)
10002446:	22ff      	movs	r2, #255	; 0xff
10002448:	551a      	strb	r2, [r3, r4]
1000244a:	4ab9      	ldr	r2, [pc, #740]	; (10002730 <setup_clock_frame+0x720>)
1000244c:	7812      	ldrb	r2, [r2, #0]
1000244e:	2100      	movs	r1, #0
10002450:	5499      	strb	r1, [r3, r2]
10002452:	e7b5      	b.n	100023c0 <setup_clock_frame+0x3b0>
10002454:	4eb5      	ldr	r6, [pc, #724]	; (1000272c <setup_clock_frame+0x71c>)
10002456:	7830      	ldrb	r0, [r6, #0]
10002458:	210a      	movs	r1, #10
1000245a:	f005 fe1b 	bl	10008094 <__wrap___aeabi_uidiv>
1000245e:	3030      	adds	r0, #48	; 0x30
10002460:	b240      	sxtb	r0, r0
10002462:	4db6      	ldr	r5, [pc, #728]	; (1000273c <setup_clock_frame+0x72c>)
10002464:	5729      	ldrsb	r1, [r5, r4]
10002466:	4001      	ands	r1, r0
10002468:	b2c9      	uxtb	r1, r1
1000246a:	2000      	movs	r0, #0
1000246c:	f7fe f9a4 	bl	100007b8 <fill_display_buffer_4X7>
10002470:	7830      	ldrb	r0, [r6, #0]
10002472:	210a      	movs	r1, #10
10002474:	f005 fe0e 	bl	10008094 <__wrap___aeabi_uidiv>
10002478:	3130      	adds	r1, #48	; 0x30
1000247a:	b24b      	sxtb	r3, r1
1000247c:	4ab0      	ldr	r2, [pc, #704]	; (10002740 <setup_clock_frame+0x730>)
1000247e:	7812      	ldrb	r2, [r2, #0]
10002480:	56a9      	ldrsb	r1, [r5, r2]
10002482:	4019      	ands	r1, r3
10002484:	b2c9      	uxtb	r1, r1
10002486:	2005      	movs	r0, #5
10002488:	f7fe f996 	bl	100007b8 <fill_display_buffer_4X7>
1000248c:	212d      	movs	r1, #45	; 0x2d
1000248e:	200a      	movs	r0, #10
10002490:	f7fe f992 	bl	100007b8 <fill_display_buffer_4X7>
10002494:	4ea4      	ldr	r6, [pc, #656]	; (10002728 <setup_clock_frame+0x718>)
10002496:	7830      	ldrb	r0, [r6, #0]
10002498:	210a      	movs	r1, #10
1000249a:	f005 fdfb 	bl	10008094 <__wrap___aeabi_uidiv>
1000249e:	3030      	adds	r0, #48	; 0x30
100024a0:	b240      	sxtb	r0, r0
100024a2:	4ca3      	ldr	r4, [pc, #652]	; (10002730 <setup_clock_frame+0x720>)
100024a4:	7823      	ldrb	r3, [r4, #0]
100024a6:	56e9      	ldrsb	r1, [r5, r3]
100024a8:	4001      	ands	r1, r0
100024aa:	b2c9      	uxtb	r1, r1
100024ac:	200d      	movs	r0, #13
100024ae:	f7fe f983 	bl	100007b8 <fill_display_buffer_4X7>
100024b2:	7830      	ldrb	r0, [r6, #0]
100024b4:	210a      	movs	r1, #10
100024b6:	f005 fded 	bl	10008094 <__wrap___aeabi_uidiv>
100024ba:	3130      	adds	r1, #48	; 0x30
100024bc:	b24b      	sxtb	r3, r1
100024be:	7822      	ldrb	r2, [r4, #0]
100024c0:	56a9      	ldrsb	r1, [r5, r2]
100024c2:	4019      	ands	r1, r3
100024c4:	b2c9      	uxtb	r1, r1
100024c6:	2012      	movs	r0, #18
100024c8:	f7fe f976 	bl	100007b8 <fill_display_buffer_4X7>
100024cc:	e63e      	b.n	1000214c <setup_clock_frame+0x13c>
100024ce:	4a99      	ldr	r2, [pc, #612]	; (10002734 <setup_clock_frame+0x724>)
100024d0:	21ff      	movs	r1, #255	; 0xff
100024d2:	54d1      	strb	r1, [r2, r3]
100024d4:	4c91      	ldr	r4, [pc, #580]	; (1000271c <setup_clock_frame+0x70c>)
100024d6:	7820      	ldrb	r0, [r4, #0]
100024d8:	2264      	movs	r2, #100	; 0x64
100024da:	4342      	muls	r2, r0
100024dc:	4e90      	ldr	r6, [pc, #576]	; (10002720 <setup_clock_frame+0x710>)
100024de:	7833      	ldrb	r3, [r6, #0]
100024e0:	189b      	adds	r3, r3, r2
100024e2:	4a90      	ldr	r2, [pc, #576]	; (10002724 <setup_clock_frame+0x714>)
100024e4:	8013      	strh	r3, [r2, #0]
100024e6:	39f5      	subs	r1, #245	; 0xf5
100024e8:	f005 fdd4 	bl	10008094 <__wrap___aeabi_uidiv>
100024ec:	0001      	movs	r1, r0
100024ee:	3130      	adds	r1, #48	; 0x30
100024f0:	b2c9      	uxtb	r1, r1
100024f2:	2000      	movs	r0, #0
100024f4:	f7fe f960 	bl	100007b8 <fill_display_buffer_4X7>
100024f8:	7820      	ldrb	r0, [r4, #0]
100024fa:	210a      	movs	r1, #10
100024fc:	f005 fdca 	bl	10008094 <__wrap___aeabi_uidiv>
10002500:	3130      	adds	r1, #48	; 0x30
10002502:	b2c9      	uxtb	r1, r1
10002504:	2005      	movs	r0, #5
10002506:	f7fe f957 	bl	100007b8 <fill_display_buffer_4X7>
1000250a:	7830      	ldrb	r0, [r6, #0]
1000250c:	210a      	movs	r1, #10
1000250e:	f005 fdc1 	bl	10008094 <__wrap___aeabi_uidiv>
10002512:	3030      	adds	r0, #48	; 0x30
10002514:	b240      	sxtb	r0, r0
10002516:	4c89      	ldr	r4, [pc, #548]	; (1000273c <setup_clock_frame+0x72c>)
10002518:	4d8a      	ldr	r5, [pc, #552]	; (10002744 <setup_clock_frame+0x734>)
1000251a:	782b      	ldrb	r3, [r5, #0]
1000251c:	56e1      	ldrsb	r1, [r4, r3]
1000251e:	4001      	ands	r1, r0
10002520:	b2c9      	uxtb	r1, r1
10002522:	200a      	movs	r0, #10
10002524:	f7fe f948 	bl	100007b8 <fill_display_buffer_4X7>
10002528:	7830      	ldrb	r0, [r6, #0]
1000252a:	210a      	movs	r1, #10
1000252c:	f005 fdb2 	bl	10008094 <__wrap___aeabi_uidiv>
10002530:	3130      	adds	r1, #48	; 0x30
10002532:	b24b      	sxtb	r3, r1
10002534:	782a      	ldrb	r2, [r5, #0]
10002536:	56a1      	ldrsb	r1, [r4, r2]
10002538:	4019      	ands	r1, r3
1000253a:	b2c9      	uxtb	r1, r1
1000253c:	200f      	movs	r0, #15
1000253e:	f7fe f93b 	bl	100007b8 <fill_display_buffer_4X7>
10002542:	2120      	movs	r1, #32
10002544:	2017      	movs	r0, #23
10002546:	f7fe f937 	bl	100007b8 <fill_display_buffer_4X7>
1000254a:	e606      	b.n	1000215a <setup_clock_frame+0x14a>
1000254c:	4a79      	ldr	r2, [pc, #484]	; (10002734 <setup_clock_frame+0x724>)
1000254e:	21ff      	movs	r1, #255	; 0xff
10002550:	54d1      	strb	r1, [r2, r3]
10002552:	2000      	movs	r0, #0
10002554:	f7fe f994 	bl	10000880 <clear_framebuffer>
10002558:	2144      	movs	r1, #68	; 0x44
1000255a:	2002      	movs	r0, #2
1000255c:	f7fe fd8e 	bl	1000107c <fill_display_buffer_5X7>
10002560:	2153      	movs	r1, #83	; 0x53
10002562:	2008      	movs	r0, #8
10002564:	f7fe fd8a 	bl	1000107c <fill_display_buffer_5X7>
10002568:	2154      	movs	r1, #84	; 0x54
1000256a:	200e      	movs	r0, #14
1000256c:	f7fe fd86 	bl	1000107c <fill_display_buffer_5X7>
10002570:	4b75      	ldr	r3, [pc, #468]	; (10002748 <setup_clock_frame+0x738>)
10002572:	781b      	ldrb	r3, [r3, #0]
10002574:	2b01      	cmp	r3, #1
10002576:	d00c      	beq.n	10002592 <setup_clock_frame+0x582>
10002578:	4b74      	ldr	r3, [pc, #464]	; (1000274c <setup_clock_frame+0x73c>)
1000257a:	781b      	ldrb	r3, [r3, #0]
1000257c:	4a6f      	ldr	r2, [pc, #444]	; (1000273c <setup_clock_frame+0x72c>)
1000257e:	5cd3      	ldrb	r3, [r2, r3]
10002580:	2130      	movs	r1, #48	; 0x30
10002582:	4019      	ands	r1, r3
10002584:	2012      	movs	r0, #18
10002586:	f7fe f917 	bl	100007b8 <fill_display_buffer_4X7>
1000258a:	201a      	movs	r0, #26
1000258c:	f7fe f978 	bl	10000880 <clear_framebuffer>
10002590:	e5ea      	b.n	10002168 <setup_clock_frame+0x158>
10002592:	4b6e      	ldr	r3, [pc, #440]	; (1000274c <setup_clock_frame+0x73c>)
10002594:	781b      	ldrb	r3, [r3, #0]
10002596:	4a69      	ldr	r2, [pc, #420]	; (1000273c <setup_clock_frame+0x72c>)
10002598:	5cd3      	ldrb	r3, [r2, r3]
1000259a:	2131      	movs	r1, #49	; 0x31
1000259c:	4019      	ands	r1, r3
1000259e:	2012      	movs	r0, #18
100025a0:	f7fe f90a 	bl	100007b8 <fill_display_buffer_4X7>
100025a4:	e7f1      	b.n	1000258a <setup_clock_frame+0x57a>
100025a6:	22ff      	movs	r2, #255	; 0xff
100025a8:	4962      	ldr	r1, [pc, #392]	; (10002734 <setup_clock_frame+0x724>)
100025aa:	54ca      	strb	r2, [r1, r3]
100025ac:	4b68      	ldr	r3, [pc, #416]	; (10002750 <setup_clock_frame+0x740>)
100025ae:	701a      	strb	r2, [r3, #0]
100025b0:	2142      	movs	r1, #66	; 0x42
100025b2:	2000      	movs	r0, #0
100025b4:	f7fe f900 	bl	100007b8 <fill_display_buffer_4X7>
100025b8:	2150      	movs	r1, #80	; 0x50
100025ba:	2005      	movs	r0, #5
100025bc:	f7fe f8fc 	bl	100007b8 <fill_display_buffer_4X7>
100025c0:	213a      	movs	r1, #58	; 0x3a
100025c2:	200a      	movs	r0, #10
100025c4:	f7fe f8f8 	bl	100007b8 <fill_display_buffer_4X7>
100025c8:	4b62      	ldr	r3, [pc, #392]	; (10002754 <setup_clock_frame+0x744>)
100025ca:	781b      	ldrb	r3, [r3, #0]
100025cc:	4a5b      	ldr	r2, [pc, #364]	; (1000273c <setup_clock_frame+0x72c>)
100025ce:	5cd3      	ldrb	r3, [r2, r3]
100025d0:	2130      	movs	r1, #48	; 0x30
100025d2:	4019      	ands	r1, r3
100025d4:	200c      	movs	r0, #12
100025d6:	f7fe f8ef 	bl	100007b8 <fill_display_buffer_4X7>
100025da:	4b5f      	ldr	r3, [pc, #380]	; (10002758 <setup_clock_frame+0x748>)
100025dc:	781b      	ldrb	r3, [r3, #0]
100025de:	2bff      	cmp	r3, #255	; 0xff
100025e0:	d00c      	beq.n	100025fc <setup_clock_frame+0x5ec>
100025e2:	4b5c      	ldr	r3, [pc, #368]	; (10002754 <setup_clock_frame+0x744>)
100025e4:	781b      	ldrb	r3, [r3, #0]
100025e6:	4a55      	ldr	r2, [pc, #340]	; (1000273c <setup_clock_frame+0x72c>)
100025e8:	5cd3      	ldrb	r3, [r2, r3]
100025ea:	2146      	movs	r1, #70	; 0x46
100025ec:	4019      	ands	r1, r3
100025ee:	2011      	movs	r0, #17
100025f0:	f7fe f8e2 	bl	100007b8 <fill_display_buffer_4X7>
100025f4:	201a      	movs	r0, #26
100025f6:	f7fe f943 	bl	10000880 <clear_framebuffer>
100025fa:	e5bc      	b.n	10002176 <setup_clock_frame+0x166>
100025fc:	4b55      	ldr	r3, [pc, #340]	; (10002754 <setup_clock_frame+0x744>)
100025fe:	781b      	ldrb	r3, [r3, #0]
10002600:	4a4e      	ldr	r2, [pc, #312]	; (1000273c <setup_clock_frame+0x72c>)
10002602:	5cd3      	ldrb	r3, [r2, r3]
10002604:	214e      	movs	r1, #78	; 0x4e
10002606:	4019      	ands	r1, r3
10002608:	2011      	movs	r0, #17
1000260a:	f7fe f8d5 	bl	100007b8 <fill_display_buffer_4X7>
1000260e:	e7f1      	b.n	100025f4 <setup_clock_frame+0x5e4>
10002610:	4a48      	ldr	r2, [pc, #288]	; (10002734 <setup_clock_frame+0x724>)
10002612:	21ff      	movs	r1, #255	; 0xff
10002614:	54d1      	strb	r1, [r2, r3]
10002616:	39bb      	subs	r1, #187	; 0xbb
10002618:	2000      	movs	r0, #0
1000261a:	f7fe f8cd 	bl	100007b8 <fill_display_buffer_4X7>
1000261e:	2153      	movs	r1, #83	; 0x53
10002620:	2005      	movs	r0, #5
10002622:	f7fe f8c9 	bl	100007b8 <fill_display_buffer_4X7>
10002626:	213a      	movs	r1, #58	; 0x3a
10002628:	200a      	movs	r0, #10
1000262a:	f7fe f8c5 	bl	100007b8 <fill_display_buffer_4X7>
1000262e:	4b4b      	ldr	r3, [pc, #300]	; (1000275c <setup_clock_frame+0x74c>)
10002630:	781b      	ldrb	r3, [r3, #0]
10002632:	4a42      	ldr	r2, [pc, #264]	; (1000273c <setup_clock_frame+0x72c>)
10002634:	5cd3      	ldrb	r3, [r2, r3]
10002636:	2130      	movs	r1, #48	; 0x30
10002638:	4019      	ands	r1, r3
1000263a:	200c      	movs	r0, #12
1000263c:	f7fe f8bc 	bl	100007b8 <fill_display_buffer_4X7>
10002640:	4b47      	ldr	r3, [pc, #284]	; (10002760 <setup_clock_frame+0x750>)
10002642:	781b      	ldrb	r3, [r3, #0]
10002644:	2bff      	cmp	r3, #255	; 0xff
10002646:	d00c      	beq.n	10002662 <setup_clock_frame+0x652>
10002648:	4b44      	ldr	r3, [pc, #272]	; (1000275c <setup_clock_frame+0x74c>)
1000264a:	781b      	ldrb	r3, [r3, #0]
1000264c:	4a3b      	ldr	r2, [pc, #236]	; (1000273c <setup_clock_frame+0x72c>)
1000264e:	5cd3      	ldrb	r3, [r2, r3]
10002650:	2146      	movs	r1, #70	; 0x46
10002652:	4019      	ands	r1, r3
10002654:	2011      	movs	r0, #17
10002656:	f7fe f8af 	bl	100007b8 <fill_display_buffer_4X7>
1000265a:	201a      	movs	r0, #26
1000265c:	f7fe f910 	bl	10000880 <clear_framebuffer>
10002660:	e590      	b.n	10002184 <setup_clock_frame+0x174>
10002662:	4b3e      	ldr	r3, [pc, #248]	; (1000275c <setup_clock_frame+0x74c>)
10002664:	781b      	ldrb	r3, [r3, #0]
10002666:	4a35      	ldr	r2, [pc, #212]	; (1000273c <setup_clock_frame+0x72c>)
10002668:	5cd3      	ldrb	r3, [r2, r3]
1000266a:	214e      	movs	r1, #78	; 0x4e
1000266c:	4019      	ands	r1, r3
1000266e:	2011      	movs	r0, #17
10002670:	f7fe f8a2 	bl	100007b8 <fill_display_buffer_4X7>
10002674:	e7f1      	b.n	1000265a <setup_clock_frame+0x64a>
10002676:	4a2f      	ldr	r2, [pc, #188]	; (10002734 <setup_clock_frame+0x724>)
10002678:	21ff      	movs	r1, #255	; 0xff
1000267a:	54d1      	strb	r1, [r2, r3]
1000267c:	2000      	movs	r0, #0
1000267e:	f7fe f8ff 	bl	10000880 <clear_framebuffer>
10002682:	2154      	movs	r1, #84	; 0x54
10002684:	2002      	movs	r0, #2
10002686:	f7fe fcf9 	bl	1000107c <fill_display_buffer_5X7>
1000268a:	2155      	movs	r1, #85	; 0x55
1000268c:	2008      	movs	r0, #8
1000268e:	f7fe fcf5 	bl	1000107c <fill_display_buffer_5X7>
10002692:	213a      	movs	r1, #58	; 0x3a
10002694:	200c      	movs	r0, #12
10002696:	f7fe f88f 	bl	100007b8 <fill_display_buffer_4X7>
1000269a:	4b32      	ldr	r3, [pc, #200]	; (10002764 <setup_clock_frame+0x754>)
1000269c:	781b      	ldrb	r3, [r3, #0]
1000269e:	2b00      	cmp	r3, #0
100026a0:	d10c      	bne.n	100026bc <setup_clock_frame+0x6ac>
100026a2:	4b31      	ldr	r3, [pc, #196]	; (10002768 <setup_clock_frame+0x758>)
100026a4:	781b      	ldrb	r3, [r3, #0]
100026a6:	4a25      	ldr	r2, [pc, #148]	; (1000273c <setup_clock_frame+0x72c>)
100026a8:	5cd1      	ldrb	r1, [r2, r3]
100026aa:	237f      	movs	r3, #127	; 0x7f
100026ac:	4399      	bics	r1, r3
100026ae:	2011      	movs	r0, #17
100026b0:	f7fe fce4 	bl	1000107c <fill_display_buffer_5X7>
100026b4:	201a      	movs	r0, #26
100026b6:	f7fe f8e3 	bl	10000880 <clear_framebuffer>
100026ba:	e56a      	b.n	10002192 <setup_clock_frame+0x182>
100026bc:	4b2a      	ldr	r3, [pc, #168]	; (10002768 <setup_clock_frame+0x758>)
100026be:	781b      	ldrb	r3, [r3, #0]
100026c0:	4a1e      	ldr	r2, [pc, #120]	; (1000273c <setup_clock_frame+0x72c>)
100026c2:	5cd1      	ldrb	r1, [r2, r3]
100026c4:	237e      	movs	r3, #126	; 0x7e
100026c6:	4399      	bics	r1, r3
100026c8:	2011      	movs	r0, #17
100026ca:	f7fe fcd7 	bl	1000107c <fill_display_buffer_5X7>
100026ce:	e7f1      	b.n	100026b4 <setup_clock_frame+0x6a4>
100026d0:	4a18      	ldr	r2, [pc, #96]	; (10002734 <setup_clock_frame+0x724>)
100026d2:	21ff      	movs	r1, #255	; 0xff
100026d4:	54d1      	strb	r1, [r2, r3]
100026d6:	2000      	movs	r0, #0
100026d8:	f7fe f8d2 	bl	10000880 <clear_framebuffer>
100026dc:	214c      	movs	r1, #76	; 0x4c
100026de:	2002      	movs	r0, #2
100026e0:	f7fe fccc 	bl	1000107c <fill_display_buffer_5X7>
100026e4:	2147      	movs	r1, #71	; 0x47
100026e6:	2007      	movs	r0, #7
100026e8:	f7fe fcc8 	bl	1000107c <fill_display_buffer_5X7>
100026ec:	213a      	movs	r1, #58	; 0x3a
100026ee:	200b      	movs	r0, #11
100026f0:	f7fe f862 	bl	100007b8 <fill_display_buffer_4X7>
100026f4:	4b10      	ldr	r3, [pc, #64]	; (10002738 <setup_clock_frame+0x728>)
100026f6:	781b      	ldrb	r3, [r3, #0]
100026f8:	2b02      	cmp	r3, #2
100026fa:	d039      	beq.n	10002770 <setup_clock_frame+0x760>
100026fc:	2b03      	cmp	r3, #3
100026fe:	d008      	beq.n	10002712 <setup_clock_frame+0x702>
10002700:	4b1a      	ldr	r3, [pc, #104]	; (1000276c <setup_clock_frame+0x75c>)
10002702:	781b      	ldrb	r3, [r3, #0]
10002704:	4a0d      	ldr	r2, [pc, #52]	; (1000273c <setup_clock_frame+0x72c>)
10002706:	5cd3      	ldrb	r3, [r2, r3]
10002708:	2145      	movs	r1, #69	; 0x45
1000270a:	4019      	ands	r1, r3
1000270c:	200f      	movs	r0, #15
1000270e:	f7fe fcb5 	bl	1000107c <fill_display_buffer_5X7>
10002712:	201a      	movs	r0, #26
10002714:	f7fe f8b4 	bl	10000880 <clear_framebuffer>
10002718:	e542      	b.n	100021a0 <setup_clock_frame+0x190>
1000271a:	46c0      	nop			; (mov r8, r8)
1000271c:	20000664 	.word	0x20000664
10002720:	20002b4a 	.word	0x20002b4a
10002724:	20002b40 	.word	0x20002b40
10002728:	20002b49 	.word	0x20002b49
1000272c:	20002b44 	.word	0x20002b44
10002730:	20000936 	.word	0x20000936
10002734:	20001a70 	.word	0x20001a70
10002738:	20000771 	.word	0x20000771
1000273c:	2000075c 	.word	0x2000075c
10002740:	2000092f 	.word	0x2000092f
10002744:	2000093d 	.word	0x2000093d
10002748:	20002b4b 	.word	0x20002b4b
1000274c:	20000930 	.word	0x20000930
10002750:	20002b5a 	.word	0x20002b5a
10002754:	20000933 	.word	0x20000933
10002758:	20002b50 	.word	0x20002b50
1000275c:	2000093a 	.word	0x2000093a
10002760:	20000770 	.word	0x20000770
10002764:	20002b6d 	.word	0x20002b6d
10002768:	2000093b 	.word	0x2000093b
1000276c:	20000934 	.word	0x20000934
10002770:	4bdc      	ldr	r3, [pc, #880]	; (10002ae4 <setup_clock_frame+0xad4>)
10002772:	781b      	ldrb	r3, [r3, #0]
10002774:	4adc      	ldr	r2, [pc, #880]	; (10002ae8 <setup_clock_frame+0xad8>)
10002776:	5cd3      	ldrb	r3, [r2, r3]
10002778:	2146      	movs	r1, #70	; 0x46
1000277a:	4019      	ands	r1, r3
1000277c:	200f      	movs	r0, #15
1000277e:	f7fe fc7d 	bl	1000107c <fill_display_buffer_5X7>
10002782:	e7c6      	b.n	10002712 <setup_clock_frame+0x702>
10002784:	4ad9      	ldr	r2, [pc, #868]	; (10002aec <setup_clock_frame+0xadc>)
10002786:	5cd3      	ldrb	r3, [r2, r3]
10002788:	2b00      	cmp	r3, #0
1000278a:	d028      	beq.n	100027de <setup_clock_frame+0x7ce>
1000278c:	4bd8      	ldr	r3, [pc, #864]	; (10002af0 <setup_clock_frame+0xae0>)
1000278e:	781b      	ldrb	r3, [r3, #0]
10002790:	4ad6      	ldr	r2, [pc, #856]	; (10002aec <setup_clock_frame+0xadc>)
10002792:	21ff      	movs	r1, #255	; 0xff
10002794:	54d1      	strb	r1, [r2, r3]
10002796:	39b7      	subs	r1, #183	; 0xb7
10002798:	2000      	movs	r0, #0
1000279a:	f7fe f80d 	bl	100007b8 <fill_display_buffer_4X7>
1000279e:	2144      	movs	r1, #68	; 0x44
100027a0:	2005      	movs	r0, #5
100027a2:	f7fe f809 	bl	100007b8 <fill_display_buffer_4X7>
100027a6:	213a      	movs	r1, #58	; 0x3a
100027a8:	200a      	movs	r0, #10
100027aa:	f7fe f805 	bl	100007b8 <fill_display_buffer_4X7>
100027ae:	4bd1      	ldr	r3, [pc, #836]	; (10002af4 <setup_clock_frame+0xae4>)
100027b0:	781b      	ldrb	r3, [r3, #0]
100027b2:	2bff      	cmp	r3, #255	; 0xff
100027b4:	d01f      	beq.n	100027f6 <setup_clock_frame+0x7e6>
100027b6:	4ccc      	ldr	r4, [pc, #816]	; (10002ae8 <setup_clock_frame+0xad8>)
100027b8:	4dcd      	ldr	r5, [pc, #820]	; (10002af0 <setup_clock_frame+0xae0>)
100027ba:	782b      	ldrb	r3, [r5, #0]
100027bc:	5ce3      	ldrb	r3, [r4, r3]
100027be:	2131      	movs	r1, #49	; 0x31
100027c0:	4019      	ands	r1, r3
100027c2:	200c      	movs	r0, #12
100027c4:	f7fd fff8 	bl	100007b8 <fill_display_buffer_4X7>
100027c8:	782b      	ldrb	r3, [r5, #0]
100027ca:	5ce3      	ldrb	r3, [r4, r3]
100027cc:	2132      	movs	r1, #50	; 0x32
100027ce:	4019      	ands	r1, r3
100027d0:	2011      	movs	r0, #17
100027d2:	f7fd fff1 	bl	100007b8 <fill_display_buffer_4X7>
100027d6:	2017      	movs	r0, #23
100027d8:	f7fe f852 	bl	10000880 <clear_framebuffer>
100027dc:	e4e7      	b.n	100021ae <setup_clock_frame+0x19e>
100027de:	4cc6      	ldr	r4, [pc, #792]	; (10002af8 <setup_clock_frame+0xae8>)
100027e0:	78a0      	ldrb	r0, [r4, #2]
100027e2:	f002 fa0f 	bl	10004c04 <bcd_to_byte>
100027e6:	4bc5      	ldr	r3, [pc, #788]	; (10002afc <setup_clock_frame+0xaec>)
100027e8:	7018      	strb	r0, [r3, #0]
100027ea:	7860      	ldrb	r0, [r4, #1]
100027ec:	f002 fa0a 	bl	10004c04 <bcd_to_byte>
100027f0:	4bc3      	ldr	r3, [pc, #780]	; (10002b00 <setup_clock_frame+0xaf0>)
100027f2:	7018      	strb	r0, [r3, #0]
100027f4:	e7ca      	b.n	1000278c <setup_clock_frame+0x77c>
100027f6:	4cbc      	ldr	r4, [pc, #752]	; (10002ae8 <setup_clock_frame+0xad8>)
100027f8:	4dbd      	ldr	r5, [pc, #756]	; (10002af0 <setup_clock_frame+0xae0>)
100027fa:	782b      	ldrb	r3, [r5, #0]
100027fc:	5ce3      	ldrb	r3, [r4, r3]
100027fe:	2132      	movs	r1, #50	; 0x32
10002800:	4019      	ands	r1, r3
10002802:	200c      	movs	r0, #12
10002804:	f7fd ffd8 	bl	100007b8 <fill_display_buffer_4X7>
10002808:	782b      	ldrb	r3, [r5, #0]
1000280a:	5ce3      	ldrb	r3, [r4, r3]
1000280c:	2134      	movs	r1, #52	; 0x34
1000280e:	4019      	ands	r1, r3
10002810:	2011      	movs	r0, #17
10002812:	f7fd ffd1 	bl	100007b8 <fill_display_buffer_4X7>
10002816:	e7de      	b.n	100027d6 <setup_clock_frame+0x7c6>
10002818:	4ab4      	ldr	r2, [pc, #720]	; (10002aec <setup_clock_frame+0xadc>)
1000281a:	21ff      	movs	r1, #255	; 0xff
1000281c:	54d1      	strb	r1, [r2, r3]
1000281e:	39b7      	subs	r1, #183	; 0xb7
10002820:	2000      	movs	r0, #0
10002822:	f7fd ffc9 	bl	100007b8 <fill_display_buffer_4X7>
10002826:	2143      	movs	r1, #67	; 0x43
10002828:	2005      	movs	r0, #5
1000282a:	f7fd ffc5 	bl	100007b8 <fill_display_buffer_4X7>
1000282e:	213a      	movs	r1, #58	; 0x3a
10002830:	200a      	movs	r0, #10
10002832:	f7fd ffc1 	bl	100007b8 <fill_display_buffer_4X7>
10002836:	4bb3      	ldr	r3, [pc, #716]	; (10002b04 <setup_clock_frame+0xaf4>)
10002838:	781b      	ldrb	r3, [r3, #0]
1000283a:	4aab      	ldr	r2, [pc, #684]	; (10002ae8 <setup_clock_frame+0xad8>)
1000283c:	5cd3      	ldrb	r3, [r2, r3]
1000283e:	2130      	movs	r1, #48	; 0x30
10002840:	4019      	ands	r1, r3
10002842:	200c      	movs	r0, #12
10002844:	f7fd ffb8 	bl	100007b8 <fill_display_buffer_4X7>
10002848:	4baf      	ldr	r3, [pc, #700]	; (10002b08 <setup_clock_frame+0xaf8>)
1000284a:	781b      	ldrb	r3, [r3, #0]
1000284c:	2b00      	cmp	r3, #0
1000284e:	d007      	beq.n	10002860 <setup_clock_frame+0x850>
10002850:	2b01      	cmp	r3, #1
10002852:	d014      	beq.n	1000287e <setup_clock_frame+0x86e>
10002854:	2b02      	cmp	r3, #2
10002856:	d021      	beq.n	1000289c <setup_clock_frame+0x88c>
10002858:	201a      	movs	r0, #26
1000285a:	f7fe f811 	bl	10000880 <clear_framebuffer>
1000285e:	e4ad      	b.n	100021bc <setup_clock_frame+0x1ac>
10002860:	4ba8      	ldr	r3, [pc, #672]	; (10002b04 <setup_clock_frame+0xaf4>)
10002862:	781b      	ldrb	r3, [r3, #0]
10002864:	4aa0      	ldr	r2, [pc, #640]	; (10002ae8 <setup_clock_frame+0xad8>)
10002866:	5cd3      	ldrb	r3, [r2, r3]
10002868:	2146      	movs	r1, #70	; 0x46
1000286a:	4019      	ands	r1, r3
1000286c:	2011      	movs	r0, #17
1000286e:	f7fd ffa3 	bl	100007b8 <fill_display_buffer_4X7>
10002872:	4aa6      	ldr	r2, [pc, #664]	; (10002b0c <setup_clock_frame+0xafc>)
10002874:	7993      	ldrb	r3, [r2, #6]
10002876:	2103      	movs	r1, #3
10002878:	438b      	bics	r3, r1
1000287a:	7193      	strb	r3, [r2, #6]
1000287c:	e7ec      	b.n	10002858 <setup_clock_frame+0x848>
1000287e:	4ba1      	ldr	r3, [pc, #644]	; (10002b04 <setup_clock_frame+0xaf4>)
10002880:	781b      	ldrb	r3, [r3, #0]
10002882:	4a99      	ldr	r2, [pc, #612]	; (10002ae8 <setup_clock_frame+0xad8>)
10002884:	5cd3      	ldrb	r3, [r2, r3]
10002886:	214e      	movs	r1, #78	; 0x4e
10002888:	4019      	ands	r1, r3
1000288a:	2011      	movs	r0, #17
1000288c:	f7fd ff94 	bl	100007b8 <fill_display_buffer_4X7>
10002890:	4a9e      	ldr	r2, [pc, #632]	; (10002b0c <setup_clock_frame+0xafc>)
10002892:	7993      	ldrb	r3, [r2, #6]
10002894:	2103      	movs	r1, #3
10002896:	430b      	orrs	r3, r1
10002898:	7193      	strb	r3, [r2, #6]
1000289a:	e7dd      	b.n	10002858 <setup_clock_frame+0x848>
1000289c:	4b99      	ldr	r3, [pc, #612]	; (10002b04 <setup_clock_frame+0xaf4>)
1000289e:	781b      	ldrb	r3, [r3, #0]
100028a0:	4a91      	ldr	r2, [pc, #580]	; (10002ae8 <setup_clock_frame+0xad8>)
100028a2:	5cd3      	ldrb	r3, [r2, r3]
100028a4:	2149      	movs	r1, #73	; 0x49
100028a6:	4019      	ands	r1, r3
100028a8:	2012      	movs	r0, #18
100028aa:	f7fd ff85 	bl	100007b8 <fill_display_buffer_4X7>
100028ae:	4a97      	ldr	r2, [pc, #604]	; (10002b0c <setup_clock_frame+0xafc>)
100028b0:	7993      	ldrb	r3, [r2, #6]
100028b2:	2103      	movs	r1, #3
100028b4:	438b      	bics	r3, r1
100028b6:	7193      	strb	r3, [r2, #6]
100028b8:	2101      	movs	r1, #1
100028ba:	430b      	orrs	r3, r1
100028bc:	7193      	strb	r3, [r2, #6]
100028be:	e7cb      	b.n	10002858 <setup_clock_frame+0x848>
100028c0:	4a8a      	ldr	r2, [pc, #552]	; (10002aec <setup_clock_frame+0xadc>)
100028c2:	21ff      	movs	r1, #255	; 0xff
100028c4:	54d1      	strb	r1, [r2, r3]
100028c6:	39b0      	subs	r1, #176	; 0xb0
100028c8:	2000      	movs	r0, #0
100028ca:	f7fd ff75 	bl	100007b8 <fill_display_buffer_4X7>
100028ce:	214e      	movs	r1, #78	; 0x4e
100028d0:	2005      	movs	r0, #5
100028d2:	f7fd ff71 	bl	100007b8 <fill_display_buffer_4X7>
100028d6:	213a      	movs	r1, #58	; 0x3a
100028d8:	200a      	movs	r0, #10
100028da:	f7fd ff6d 	bl	100007b8 <fill_display_buffer_4X7>
100028de:	4b85      	ldr	r3, [pc, #532]	; (10002af4 <setup_clock_frame+0xae4>)
100028e0:	781b      	ldrb	r3, [r3, #0]
100028e2:	2b00      	cmp	r3, #0
100028e4:	d024      	beq.n	10002930 <setup_clock_frame+0x920>
100028e6:	4b8a      	ldr	r3, [pc, #552]	; (10002b10 <setup_clock_frame+0xb00>)
100028e8:	781a      	ldrb	r2, [r3, #0]
100028ea:	4b8a      	ldr	r3, [pc, #552]	; (10002b14 <setup_clock_frame+0xb04>)
100028ec:	701a      	strb	r2, [r3, #0]
100028ee:	4e89      	ldr	r6, [pc, #548]	; (10002b14 <setup_clock_frame+0xb04>)
100028f0:	7830      	ldrb	r0, [r6, #0]
100028f2:	210a      	movs	r1, #10
100028f4:	f005 fbce 	bl	10008094 <__wrap___aeabi_uidiv>
100028f8:	3030      	adds	r0, #48	; 0x30
100028fa:	b240      	sxtb	r0, r0
100028fc:	4c7a      	ldr	r4, [pc, #488]	; (10002ae8 <setup_clock_frame+0xad8>)
100028fe:	4d86      	ldr	r5, [pc, #536]	; (10002b18 <setup_clock_frame+0xb08>)
10002900:	782b      	ldrb	r3, [r5, #0]
10002902:	56e1      	ldrsb	r1, [r4, r3]
10002904:	4001      	ands	r1, r0
10002906:	b2c9      	uxtb	r1, r1
10002908:	200c      	movs	r0, #12
1000290a:	f7fd ff55 	bl	100007b8 <fill_display_buffer_4X7>
1000290e:	7830      	ldrb	r0, [r6, #0]
10002910:	210a      	movs	r1, #10
10002912:	f005 fbbf 	bl	10008094 <__wrap___aeabi_uidiv>
10002916:	3130      	adds	r1, #48	; 0x30
10002918:	b24b      	sxtb	r3, r1
1000291a:	782a      	ldrb	r2, [r5, #0]
1000291c:	56a1      	ldrsb	r1, [r4, r2]
1000291e:	4019      	ands	r1, r3
10002920:	b2c9      	uxtb	r1, r1
10002922:	2011      	movs	r0, #17
10002924:	f7fd ff48 	bl	100007b8 <fill_display_buffer_4X7>
10002928:	201a      	movs	r0, #26
1000292a:	f7fd ffa9 	bl	10000880 <clear_framebuffer>
1000292e:	e44c      	b.n	100021ca <setup_clock_frame+0x1ba>
10002930:	240f      	movs	r4, #15
10002932:	446c      	add	r4, sp
10002934:	4b76      	ldr	r3, [pc, #472]	; (10002b10 <setup_clock_frame+0xb00>)
10002936:	7818      	ldrb	r0, [r3, #0]
10002938:	220e      	movs	r2, #14
1000293a:	446a      	add	r2, sp
1000293c:	0021      	movs	r1, r4
1000293e:	f7fd fd03 	bl	10000348 <convert_h24_to_h12>
10002942:	4b74      	ldr	r3, [pc, #464]	; (10002b14 <setup_clock_frame+0xb04>)
10002944:	7018      	strb	r0, [r3, #0]
10002946:	7823      	ldrb	r3, [r4, #0]
10002948:	2bff      	cmp	r3, #255	; 0xff
1000294a:	d00f      	beq.n	1000296c <setup_clock_frame+0x95c>
1000294c:	4a6f      	ldr	r2, [pc, #444]	; (10002b0c <setup_clock_frame+0xafc>)
1000294e:	7913      	ldrb	r3, [r2, #4]
10002950:	2101      	movs	r1, #1
10002952:	438b      	bics	r3, r1
10002954:	7113      	strb	r3, [r2, #4]
10002956:	230e      	movs	r3, #14
10002958:	446b      	add	r3, sp
1000295a:	781b      	ldrb	r3, [r3, #0]
1000295c:	2bff      	cmp	r3, #255	; 0xff
1000295e:	d00b      	beq.n	10002978 <setup_clock_frame+0x968>
10002960:	4a6a      	ldr	r2, [pc, #424]	; (10002b0c <setup_clock_frame+0xafc>)
10002962:	7913      	ldrb	r3, [r2, #4]
10002964:	2102      	movs	r1, #2
10002966:	438b      	bics	r3, r1
10002968:	7113      	strb	r3, [r2, #4]
1000296a:	e7c0      	b.n	100028ee <setup_clock_frame+0x8de>
1000296c:	4a67      	ldr	r2, [pc, #412]	; (10002b0c <setup_clock_frame+0xafc>)
1000296e:	7913      	ldrb	r3, [r2, #4]
10002970:	2101      	movs	r1, #1
10002972:	430b      	orrs	r3, r1
10002974:	7113      	strb	r3, [r2, #4]
10002976:	e7ee      	b.n	10002956 <setup_clock_frame+0x946>
10002978:	4a64      	ldr	r2, [pc, #400]	; (10002b0c <setup_clock_frame+0xafc>)
1000297a:	7913      	ldrb	r3, [r2, #4]
1000297c:	2102      	movs	r1, #2
1000297e:	430b      	orrs	r3, r1
10002980:	7113      	strb	r3, [r2, #4]
10002982:	e7b4      	b.n	100028ee <setup_clock_frame+0x8de>
10002984:	4a59      	ldr	r2, [pc, #356]	; (10002aec <setup_clock_frame+0xadc>)
10002986:	21ff      	movs	r1, #255	; 0xff
10002988:	54d1      	strb	r1, [r2, r3]
1000298a:	39b0      	subs	r1, #176	; 0xb0
1000298c:	2000      	movs	r0, #0
1000298e:	f7fd ff13 	bl	100007b8 <fill_display_buffer_4X7>
10002992:	2146      	movs	r1, #70	; 0x46
10002994:	2005      	movs	r0, #5
10002996:	f7fd ff0f 	bl	100007b8 <fill_display_buffer_4X7>
1000299a:	213a      	movs	r1, #58	; 0x3a
1000299c:	200a      	movs	r0, #10
1000299e:	f7fd ff0b 	bl	100007b8 <fill_display_buffer_4X7>
100029a2:	4b54      	ldr	r3, [pc, #336]	; (10002af4 <setup_clock_frame+0xae4>)
100029a4:	781b      	ldrb	r3, [r3, #0]
100029a6:	2b00      	cmp	r3, #0
100029a8:	d025      	beq.n	100029f6 <setup_clock_frame+0x9e6>
100029aa:	4b5c      	ldr	r3, [pc, #368]	; (10002b1c <setup_clock_frame+0xb0c>)
100029ac:	781a      	ldrb	r2, [r3, #0]
100029ae:	4b5c      	ldr	r3, [pc, #368]	; (10002b20 <setup_clock_frame+0xb10>)
100029b0:	701a      	strb	r2, [r3, #0]
100029b2:	4e5b      	ldr	r6, [pc, #364]	; (10002b20 <setup_clock_frame+0xb10>)
100029b4:	7830      	ldrb	r0, [r6, #0]
100029b6:	210a      	movs	r1, #10
100029b8:	f005 fb6c 	bl	10008094 <__wrap___aeabi_uidiv>
100029bc:	3030      	adds	r0, #48	; 0x30
100029be:	b240      	sxtb	r0, r0
100029c0:	4c49      	ldr	r4, [pc, #292]	; (10002ae8 <setup_clock_frame+0xad8>)
100029c2:	4d58      	ldr	r5, [pc, #352]	; (10002b24 <setup_clock_frame+0xb14>)
100029c4:	782b      	ldrb	r3, [r5, #0]
100029c6:	56e1      	ldrsb	r1, [r4, r3]
100029c8:	4001      	ands	r1, r0
100029ca:	b2c9      	uxtb	r1, r1
100029cc:	200c      	movs	r0, #12
100029ce:	f7fd fef3 	bl	100007b8 <fill_display_buffer_4X7>
100029d2:	7830      	ldrb	r0, [r6, #0]
100029d4:	210a      	movs	r1, #10
100029d6:	f005 fb5d 	bl	10008094 <__wrap___aeabi_uidiv>
100029da:	3130      	adds	r1, #48	; 0x30
100029dc:	b24b      	sxtb	r3, r1
100029de:	782a      	ldrb	r2, [r5, #0]
100029e0:	56a1      	ldrsb	r1, [r4, r2]
100029e2:	4019      	ands	r1, r3
100029e4:	b2c9      	uxtb	r1, r1
100029e6:	2011      	movs	r0, #17
100029e8:	f7fd fee6 	bl	100007b8 <fill_display_buffer_4X7>
100029ec:	201a      	movs	r0, #26
100029ee:	f7fd ff47 	bl	10000880 <clear_framebuffer>
100029f2:	f7ff fbf1 	bl	100021d8 <setup_clock_frame+0x1c8>
100029f6:	240f      	movs	r4, #15
100029f8:	446c      	add	r4, sp
100029fa:	4b48      	ldr	r3, [pc, #288]	; (10002b1c <setup_clock_frame+0xb0c>)
100029fc:	7818      	ldrb	r0, [r3, #0]
100029fe:	220e      	movs	r2, #14
10002a00:	446a      	add	r2, sp
10002a02:	0021      	movs	r1, r4
10002a04:	f7fd fca0 	bl	10000348 <convert_h24_to_h12>
10002a08:	4b45      	ldr	r3, [pc, #276]	; (10002b20 <setup_clock_frame+0xb10>)
10002a0a:	7018      	strb	r0, [r3, #0]
10002a0c:	7823      	ldrb	r3, [r4, #0]
10002a0e:	2bff      	cmp	r3, #255	; 0xff
10002a10:	d00f      	beq.n	10002a32 <setup_clock_frame+0xa22>
10002a12:	4a3e      	ldr	r2, [pc, #248]	; (10002b0c <setup_clock_frame+0xafc>)
10002a14:	7913      	ldrb	r3, [r2, #4]
10002a16:	2101      	movs	r1, #1
10002a18:	438b      	bics	r3, r1
10002a1a:	7113      	strb	r3, [r2, #4]
10002a1c:	230e      	movs	r3, #14
10002a1e:	446b      	add	r3, sp
10002a20:	781b      	ldrb	r3, [r3, #0]
10002a22:	2bff      	cmp	r3, #255	; 0xff
10002a24:	d00b      	beq.n	10002a3e <setup_clock_frame+0xa2e>
10002a26:	4a39      	ldr	r2, [pc, #228]	; (10002b0c <setup_clock_frame+0xafc>)
10002a28:	7913      	ldrb	r3, [r2, #4]
10002a2a:	2102      	movs	r1, #2
10002a2c:	438b      	bics	r3, r1
10002a2e:	7113      	strb	r3, [r2, #4]
10002a30:	e7bf      	b.n	100029b2 <setup_clock_frame+0x9a2>
10002a32:	4a36      	ldr	r2, [pc, #216]	; (10002b0c <setup_clock_frame+0xafc>)
10002a34:	7913      	ldrb	r3, [r2, #4]
10002a36:	2101      	movs	r1, #1
10002a38:	430b      	orrs	r3, r1
10002a3a:	7113      	strb	r3, [r2, #4]
10002a3c:	e7ee      	b.n	10002a1c <setup_clock_frame+0xa0c>
10002a3e:	4a33      	ldr	r2, [pc, #204]	; (10002b0c <setup_clock_frame+0xafc>)
10002a40:	7913      	ldrb	r3, [r2, #4]
10002a42:	2102      	movs	r1, #2
10002a44:	430b      	orrs	r3, r1
10002a46:	7113      	strb	r3, [r2, #4]
10002a48:	e7b3      	b.n	100029b2 <setup_clock_frame+0x9a2>
10002a4a:	4a28      	ldr	r2, [pc, #160]	; (10002aec <setup_clock_frame+0xadc>)
10002a4c:	21ff      	movs	r1, #255	; 0xff
10002a4e:	54d1      	strb	r1, [r2, r3]
10002a50:	2000      	movs	r0, #0
10002a52:	f7fd ff15 	bl	10000880 <clear_framebuffer>
10002a56:	214e      	movs	r1, #78	; 0x4e
10002a58:	2002      	movs	r0, #2
10002a5a:	f7fe fb0f 	bl	1000107c <fill_display_buffer_5X7>
10002a5e:	214c      	movs	r1, #76	; 0x4c
10002a60:	2008      	movs	r0, #8
10002a62:	f7fe fb0b 	bl	1000107c <fill_display_buffer_5X7>
10002a66:	213a      	movs	r1, #58	; 0x3a
10002a68:	200b      	movs	r0, #11
10002a6a:	f7fd fea5 	bl	100007b8 <fill_display_buffer_4X7>
10002a6e:	4b2e      	ldr	r3, [pc, #184]	; (10002b28 <setup_clock_frame+0xb18>)
10002a70:	781b      	ldrb	r3, [r3, #0]
10002a72:	2b00      	cmp	r3, #0
10002a74:	d00a      	beq.n	10002a8c <setup_clock_frame+0xa7c>
10002a76:	2b01      	cmp	r3, #1
10002a78:	d01e      	beq.n	10002ab8 <setup_clock_frame+0xaa8>
10002a7a:	2b02      	cmp	r3, #2
10002a7c:	d058      	beq.n	10002b30 <setup_clock_frame+0xb20>
10002a7e:	2b03      	cmp	r3, #3
10002a80:	d067      	beq.n	10002b52 <setup_clock_frame+0xb42>
10002a82:	201a      	movs	r0, #26
10002a84:	f7fd fefc 	bl	10000880 <clear_framebuffer>
10002a88:	f7ff fbae 	bl	100021e8 <setup_clock_frame+0x1d8>
10002a8c:	4c16      	ldr	r4, [pc, #88]	; (10002ae8 <setup_clock_frame+0xad8>)
10002a8e:	4d27      	ldr	r5, [pc, #156]	; (10002b2c <setup_clock_frame+0xb1c>)
10002a90:	782b      	ldrb	r3, [r5, #0]
10002a92:	5ce3      	ldrb	r3, [r4, r3]
10002a94:	214f      	movs	r1, #79	; 0x4f
10002a96:	4019      	ands	r1, r3
10002a98:	200d      	movs	r0, #13
10002a9a:	f7fd fe8d 	bl	100007b8 <fill_display_buffer_4X7>
10002a9e:	782b      	ldrb	r3, [r5, #0]
10002aa0:	5ce3      	ldrb	r3, [r4, r3]
10002aa2:	2146      	movs	r1, #70	; 0x46
10002aa4:	4019      	ands	r1, r3
10002aa6:	2012      	movs	r0, #18
10002aa8:	f7fd fe86 	bl	100007b8 <fill_display_buffer_4X7>
10002aac:	4a17      	ldr	r2, [pc, #92]	; (10002b0c <setup_clock_frame+0xafc>)
10002aae:	7813      	ldrb	r3, [r2, #0]
10002ab0:	2124      	movs	r1, #36	; 0x24
10002ab2:	438b      	bics	r3, r1
10002ab4:	7013      	strb	r3, [r2, #0]
10002ab6:	e7e4      	b.n	10002a82 <setup_clock_frame+0xa72>
10002ab8:	4c0b      	ldr	r4, [pc, #44]	; (10002ae8 <setup_clock_frame+0xad8>)
10002aba:	4d1c      	ldr	r5, [pc, #112]	; (10002b2c <setup_clock_frame+0xb1c>)
10002abc:	782b      	ldrb	r3, [r5, #0]
10002abe:	5ce3      	ldrb	r3, [r4, r3]
10002ac0:	214f      	movs	r1, #79	; 0x4f
10002ac2:	4019      	ands	r1, r3
10002ac4:	200d      	movs	r0, #13
10002ac6:	f7fd fe77 	bl	100007b8 <fill_display_buffer_4X7>
10002aca:	782b      	ldrb	r3, [r5, #0]
10002acc:	5ce3      	ldrb	r3, [r4, r3]
10002ace:	214e      	movs	r1, #78	; 0x4e
10002ad0:	4019      	ands	r1, r3
10002ad2:	2012      	movs	r0, #18
10002ad4:	f7fd fe70 	bl	100007b8 <fill_display_buffer_4X7>
10002ad8:	4a0c      	ldr	r2, [pc, #48]	; (10002b0c <setup_clock_frame+0xafc>)
10002ada:	7813      	ldrb	r3, [r2, #0]
10002adc:	2124      	movs	r1, #36	; 0x24
10002ade:	430b      	orrs	r3, r1
10002ae0:	7013      	strb	r3, [r2, #0]
10002ae2:	e7ce      	b.n	10002a82 <setup_clock_frame+0xa72>
10002ae4:	20000934 	.word	0x20000934
10002ae8:	2000075c 	.word	0x2000075c
10002aec:	20001a70 	.word	0x20001a70
10002af0:	2000093c 	.word	0x2000093c
10002af4:	200009dc 	.word	0x200009dc
10002af8:	20002768 	.word	0x20002768
10002afc:	20002b46 	.word	0x20002b46
10002b00:	20002b47 	.word	0x20002b47
10002b04:	20000932 	.word	0x20000932
10002b08:	20002b5d 	.word	0x20002b5d
10002b0c:	2000195c 	.word	0x2000195c
10002b10:	20000662 	.word	0x20000662
10002b14:	20000663 	.word	0x20000663
10002b18:	2000092e 	.word	0x2000092e
10002b1c:	20000660 	.word	0x20000660
10002b20:	20000661 	.word	0x20000661
10002b24:	2000092d 	.word	0x2000092d
10002b28:	20002b60 	.word	0x20002b60
10002b2c:	20000937 	.word	0x20000937
10002b30:	4c83      	ldr	r4, [pc, #524]	; (10002d40 <setup_clock_frame+0xd30>)
10002b32:	4d84      	ldr	r5, [pc, #528]	; (10002d44 <setup_clock_frame+0xd34>)
10002b34:	782b      	ldrb	r3, [r5, #0]
10002b36:	5ce3      	ldrb	r3, [r4, r3]
10002b38:	214f      	movs	r1, #79	; 0x4f
10002b3a:	4019      	ands	r1, r3
10002b3c:	200d      	movs	r0, #13
10002b3e:	f7fd fe3b 	bl	100007b8 <fill_display_buffer_4X7>
10002b42:	782b      	ldrb	r3, [r5, #0]
10002b44:	5ce3      	ldrb	r3, [r4, r3]
10002b46:	2149      	movs	r1, #73	; 0x49
10002b48:	4019      	ands	r1, r3
10002b4a:	2012      	movs	r0, #18
10002b4c:	f7fd fe34 	bl	100007b8 <fill_display_buffer_4X7>
10002b50:	e797      	b.n	10002a82 <setup_clock_frame+0xa72>
10002b52:	4c7b      	ldr	r4, [pc, #492]	; (10002d40 <setup_clock_frame+0xd30>)
10002b54:	4d7b      	ldr	r5, [pc, #492]	; (10002d44 <setup_clock_frame+0xd34>)
10002b56:	782b      	ldrb	r3, [r5, #0]
10002b58:	5ce3      	ldrb	r3, [r4, r3]
10002b5a:	2141      	movs	r1, #65	; 0x41
10002b5c:	4019      	ands	r1, r3
10002b5e:	200d      	movs	r0, #13
10002b60:	f7fd fe2a 	bl	100007b8 <fill_display_buffer_4X7>
10002b64:	782b      	ldrb	r3, [r5, #0]
10002b66:	5ce3      	ldrb	r3, [r4, r3]
10002b68:	2155      	movs	r1, #85	; 0x55
10002b6a:	4019      	ands	r1, r3
10002b6c:	2012      	movs	r0, #18
10002b6e:	f7fd fe23 	bl	100007b8 <fill_display_buffer_4X7>
10002b72:	e786      	b.n	10002a82 <setup_clock_frame+0xa72>
10002b74:	4a74      	ldr	r2, [pc, #464]	; (10002d48 <setup_clock_frame+0xd38>)
10002b76:	21ff      	movs	r1, #255	; 0xff
10002b78:	54d1      	strb	r1, [r2, r3]
10002b7a:	39b0      	subs	r1, #176	; 0xb0
10002b7c:	2000      	movs	r0, #0
10002b7e:	f7fd fe1b 	bl	100007b8 <fill_display_buffer_4X7>
10002b82:	214e      	movs	r1, #78	; 0x4e
10002b84:	2005      	movs	r0, #5
10002b86:	f7fd fe17 	bl	100007b8 <fill_display_buffer_4X7>
10002b8a:	213a      	movs	r1, #58	; 0x3a
10002b8c:	200a      	movs	r0, #10
10002b8e:	f7fd fe13 	bl	100007b8 <fill_display_buffer_4X7>
10002b92:	4b6e      	ldr	r3, [pc, #440]	; (10002d4c <setup_clock_frame+0xd3c>)
10002b94:	781b      	ldrb	r3, [r3, #0]
10002b96:	2b00      	cmp	r3, #0
10002b98:	d025      	beq.n	10002be6 <setup_clock_frame+0xbd6>
10002b9a:	4b6d      	ldr	r3, [pc, #436]	; (10002d50 <setup_clock_frame+0xd40>)
10002b9c:	781a      	ldrb	r2, [r3, #0]
10002b9e:	4b6d      	ldr	r3, [pc, #436]	; (10002d54 <setup_clock_frame+0xd44>)
10002ba0:	701a      	strb	r2, [r3, #0]
10002ba2:	4e6c      	ldr	r6, [pc, #432]	; (10002d54 <setup_clock_frame+0xd44>)
10002ba4:	7830      	ldrb	r0, [r6, #0]
10002ba6:	210a      	movs	r1, #10
10002ba8:	f005 fa74 	bl	10008094 <__wrap___aeabi_uidiv>
10002bac:	3030      	adds	r0, #48	; 0x30
10002bae:	b240      	sxtb	r0, r0
10002bb0:	4c63      	ldr	r4, [pc, #396]	; (10002d40 <setup_clock_frame+0xd30>)
10002bb2:	4d69      	ldr	r5, [pc, #420]	; (10002d58 <setup_clock_frame+0xd48>)
10002bb4:	782b      	ldrb	r3, [r5, #0]
10002bb6:	56e1      	ldrsb	r1, [r4, r3]
10002bb8:	4001      	ands	r1, r0
10002bba:	b2c9      	uxtb	r1, r1
10002bbc:	200c      	movs	r0, #12
10002bbe:	f7fd fdfb 	bl	100007b8 <fill_display_buffer_4X7>
10002bc2:	7830      	ldrb	r0, [r6, #0]
10002bc4:	210a      	movs	r1, #10
10002bc6:	f005 fa65 	bl	10008094 <__wrap___aeabi_uidiv>
10002bca:	3130      	adds	r1, #48	; 0x30
10002bcc:	b24b      	sxtb	r3, r1
10002bce:	782a      	ldrb	r2, [r5, #0]
10002bd0:	56a1      	ldrsb	r1, [r4, r2]
10002bd2:	4019      	ands	r1, r3
10002bd4:	b2c9      	uxtb	r1, r1
10002bd6:	2011      	movs	r0, #17
10002bd8:	f7fd fdee 	bl	100007b8 <fill_display_buffer_4X7>
10002bdc:	201a      	movs	r0, #26
10002bde:	f7fd fe4f 	bl	10000880 <clear_framebuffer>
10002be2:	f7ff fb09 	bl	100021f8 <setup_clock_frame+0x1e8>
10002be6:	240f      	movs	r4, #15
10002be8:	446c      	add	r4, sp
10002bea:	4b59      	ldr	r3, [pc, #356]	; (10002d50 <setup_clock_frame+0xd40>)
10002bec:	7818      	ldrb	r0, [r3, #0]
10002bee:	220e      	movs	r2, #14
10002bf0:	446a      	add	r2, sp
10002bf2:	0021      	movs	r1, r4
10002bf4:	f7fd fba8 	bl	10000348 <convert_h24_to_h12>
10002bf8:	4b56      	ldr	r3, [pc, #344]	; (10002d54 <setup_clock_frame+0xd44>)
10002bfa:	7018      	strb	r0, [r3, #0]
10002bfc:	7823      	ldrb	r3, [r4, #0]
10002bfe:	2bff      	cmp	r3, #255	; 0xff
10002c00:	d00f      	beq.n	10002c22 <setup_clock_frame+0xc12>
10002c02:	4a56      	ldr	r2, [pc, #344]	; (10002d5c <setup_clock_frame+0xd4c>)
10002c04:	7913      	ldrb	r3, [r2, #4]
10002c06:	2101      	movs	r1, #1
10002c08:	438b      	bics	r3, r1
10002c0a:	7113      	strb	r3, [r2, #4]
10002c0c:	230e      	movs	r3, #14
10002c0e:	446b      	add	r3, sp
10002c10:	781b      	ldrb	r3, [r3, #0]
10002c12:	2bff      	cmp	r3, #255	; 0xff
10002c14:	d00b      	beq.n	10002c2e <setup_clock_frame+0xc1e>
10002c16:	4a51      	ldr	r2, [pc, #324]	; (10002d5c <setup_clock_frame+0xd4c>)
10002c18:	7913      	ldrb	r3, [r2, #4]
10002c1a:	2102      	movs	r1, #2
10002c1c:	438b      	bics	r3, r1
10002c1e:	7113      	strb	r3, [r2, #4]
10002c20:	e7bf      	b.n	10002ba2 <setup_clock_frame+0xb92>
10002c22:	4a4e      	ldr	r2, [pc, #312]	; (10002d5c <setup_clock_frame+0xd4c>)
10002c24:	7913      	ldrb	r3, [r2, #4]
10002c26:	2101      	movs	r1, #1
10002c28:	430b      	orrs	r3, r1
10002c2a:	7113      	strb	r3, [r2, #4]
10002c2c:	e7ee      	b.n	10002c0c <setup_clock_frame+0xbfc>
10002c2e:	4a4b      	ldr	r2, [pc, #300]	; (10002d5c <setup_clock_frame+0xd4c>)
10002c30:	7913      	ldrb	r3, [r2, #4]
10002c32:	2102      	movs	r1, #2
10002c34:	430b      	orrs	r3, r1
10002c36:	7113      	strb	r3, [r2, #4]
10002c38:	e7b3      	b.n	10002ba2 <setup_clock_frame+0xb92>
10002c3a:	4a43      	ldr	r2, [pc, #268]	; (10002d48 <setup_clock_frame+0xd38>)
10002c3c:	21ff      	movs	r1, #255	; 0xff
10002c3e:	54d1      	strb	r1, [r2, r3]
10002c40:	39b0      	subs	r1, #176	; 0xb0
10002c42:	2000      	movs	r0, #0
10002c44:	f7fd fdb8 	bl	100007b8 <fill_display_buffer_4X7>
10002c48:	2146      	movs	r1, #70	; 0x46
10002c4a:	2005      	movs	r0, #5
10002c4c:	f7fd fdb4 	bl	100007b8 <fill_display_buffer_4X7>
10002c50:	213a      	movs	r1, #58	; 0x3a
10002c52:	200a      	movs	r0, #10
10002c54:	f7fd fdb0 	bl	100007b8 <fill_display_buffer_4X7>
10002c58:	4b3c      	ldr	r3, [pc, #240]	; (10002d4c <setup_clock_frame+0xd3c>)
10002c5a:	781b      	ldrb	r3, [r3, #0]
10002c5c:	2b00      	cmp	r3, #0
10002c5e:	d025      	beq.n	10002cac <setup_clock_frame+0xc9c>
10002c60:	4b3f      	ldr	r3, [pc, #252]	; (10002d60 <setup_clock_frame+0xd50>)
10002c62:	781a      	ldrb	r2, [r3, #0]
10002c64:	4b3f      	ldr	r3, [pc, #252]	; (10002d64 <setup_clock_frame+0xd54>)
10002c66:	701a      	strb	r2, [r3, #0]
10002c68:	4e3e      	ldr	r6, [pc, #248]	; (10002d64 <setup_clock_frame+0xd54>)
10002c6a:	7830      	ldrb	r0, [r6, #0]
10002c6c:	210a      	movs	r1, #10
10002c6e:	f005 fa11 	bl	10008094 <__wrap___aeabi_uidiv>
10002c72:	3030      	adds	r0, #48	; 0x30
10002c74:	b240      	sxtb	r0, r0
10002c76:	4c32      	ldr	r4, [pc, #200]	; (10002d40 <setup_clock_frame+0xd30>)
10002c78:	4d3b      	ldr	r5, [pc, #236]	; (10002d68 <setup_clock_frame+0xd58>)
10002c7a:	782b      	ldrb	r3, [r5, #0]
10002c7c:	56e1      	ldrsb	r1, [r4, r3]
10002c7e:	4001      	ands	r1, r0
10002c80:	b2c9      	uxtb	r1, r1
10002c82:	200c      	movs	r0, #12
10002c84:	f7fd fd98 	bl	100007b8 <fill_display_buffer_4X7>
10002c88:	7830      	ldrb	r0, [r6, #0]
10002c8a:	210a      	movs	r1, #10
10002c8c:	f005 fa02 	bl	10008094 <__wrap___aeabi_uidiv>
10002c90:	3130      	adds	r1, #48	; 0x30
10002c92:	b24b      	sxtb	r3, r1
10002c94:	782a      	ldrb	r2, [r5, #0]
10002c96:	56a1      	ldrsb	r1, [r4, r2]
10002c98:	4019      	ands	r1, r3
10002c9a:	b2c9      	uxtb	r1, r1
10002c9c:	2011      	movs	r0, #17
10002c9e:	f7fd fd8b 	bl	100007b8 <fill_display_buffer_4X7>
10002ca2:	201a      	movs	r0, #26
10002ca4:	f7fd fdec 	bl	10000880 <clear_framebuffer>
10002ca8:	f7ff faae 	bl	10002208 <setup_clock_frame+0x1f8>
10002cac:	240f      	movs	r4, #15
10002cae:	446c      	add	r4, sp
10002cb0:	4b2b      	ldr	r3, [pc, #172]	; (10002d60 <setup_clock_frame+0xd50>)
10002cb2:	7818      	ldrb	r0, [r3, #0]
10002cb4:	220e      	movs	r2, #14
10002cb6:	446a      	add	r2, sp
10002cb8:	0021      	movs	r1, r4
10002cba:	f7fd fb45 	bl	10000348 <convert_h24_to_h12>
10002cbe:	4b29      	ldr	r3, [pc, #164]	; (10002d64 <setup_clock_frame+0xd54>)
10002cc0:	7018      	strb	r0, [r3, #0]
10002cc2:	7823      	ldrb	r3, [r4, #0]
10002cc4:	2bff      	cmp	r3, #255	; 0xff
10002cc6:	d00f      	beq.n	10002ce8 <setup_clock_frame+0xcd8>
10002cc8:	4a24      	ldr	r2, [pc, #144]	; (10002d5c <setup_clock_frame+0xd4c>)
10002cca:	7913      	ldrb	r3, [r2, #4]
10002ccc:	2101      	movs	r1, #1
10002cce:	438b      	bics	r3, r1
10002cd0:	7113      	strb	r3, [r2, #4]
10002cd2:	230e      	movs	r3, #14
10002cd4:	446b      	add	r3, sp
10002cd6:	781b      	ldrb	r3, [r3, #0]
10002cd8:	2bff      	cmp	r3, #255	; 0xff
10002cda:	d00b      	beq.n	10002cf4 <setup_clock_frame+0xce4>
10002cdc:	4a1f      	ldr	r2, [pc, #124]	; (10002d5c <setup_clock_frame+0xd4c>)
10002cde:	7913      	ldrb	r3, [r2, #4]
10002ce0:	2102      	movs	r1, #2
10002ce2:	438b      	bics	r3, r1
10002ce4:	7113      	strb	r3, [r2, #4]
10002ce6:	e7bf      	b.n	10002c68 <setup_clock_frame+0xc58>
10002ce8:	4a1c      	ldr	r2, [pc, #112]	; (10002d5c <setup_clock_frame+0xd4c>)
10002cea:	7913      	ldrb	r3, [r2, #4]
10002cec:	2101      	movs	r1, #1
10002cee:	430b      	orrs	r3, r1
10002cf0:	7113      	strb	r3, [r2, #4]
10002cf2:	e7ee      	b.n	10002cd2 <setup_clock_frame+0xcc2>
10002cf4:	4a19      	ldr	r2, [pc, #100]	; (10002d5c <setup_clock_frame+0xd4c>)
10002cf6:	7913      	ldrb	r3, [r2, #4]
10002cf8:	2102      	movs	r1, #2
10002cfa:	430b      	orrs	r3, r1
10002cfc:	7113      	strb	r3, [r2, #4]
10002cfe:	e7b3      	b.n	10002c68 <setup_clock_frame+0xc58>
10002d00:	4a11      	ldr	r2, [pc, #68]	; (10002d48 <setup_clock_frame+0xd38>)
10002d02:	21ff      	movs	r1, #255	; 0xff
10002d04:	54d1      	strb	r1, [r2, r3]
10002d06:	2000      	movs	r0, #0
10002d08:	f7fd fdba 	bl	10000880 <clear_framebuffer>
10002d0c:	2144      	movs	r1, #68	; 0x44
10002d0e:	2002      	movs	r0, #2
10002d10:	f7fe f9b4 	bl	1000107c <fill_display_buffer_5X7>
10002d14:	2149      	movs	r1, #73	; 0x49
10002d16:	2008      	movs	r0, #8
10002d18:	f7fe f9b0 	bl	1000107c <fill_display_buffer_5X7>
10002d1c:	214d      	movs	r1, #77	; 0x4d
10002d1e:	200c      	movs	r0, #12
10002d20:	f7fe f9ac 	bl	1000107c <fill_display_buffer_5X7>
10002d24:	201a      	movs	r0, #26
10002d26:	f7fd fdab 	bl	10000880 <clear_framebuffer>
10002d2a:	f7ff fa75 	bl	10002218 <setup_clock_frame+0x208>
10002d2e:	4a06      	ldr	r2, [pc, #24]	; (10002d48 <setup_clock_frame+0xd38>)
10002d30:	2100      	movs	r1, #0
10002d32:	54d1      	strb	r1, [r2, r3]
10002d34:	3301      	adds	r3, #1
10002d36:	b2db      	uxtb	r3, r3
10002d38:	2b12      	cmp	r3, #18
10002d3a:	d9f8      	bls.n	10002d2e <setup_clock_frame+0xd1e>
10002d3c:	b004      	add	sp, #16
10002d3e:	bd70      	pop	{r4, r5, r6, pc}
10002d40:	2000075c 	.word	0x2000075c
10002d44:	20000937 	.word	0x20000937
10002d48:	20001a70 	.word	0x20001a70
10002d4c:	200009dc 	.word	0x200009dc
10002d50:	2000092b 	.word	0x2000092b
10002d54:	20002b62 	.word	0x20002b62
10002d58:	20000939 	.word	0x20000939
10002d5c:	2000195c 	.word	0x2000195c
10002d60:	2000092a 	.word	0x2000092a
10002d64:	20002b61 	.word	0x20002b61
10002d68:	20000938 	.word	0x20000938

10002d6c <setup_clock_variables>:
10002d6c:	b530      	push	{r4, r5, lr}
10002d6e:	b083      	sub	sp, #12
10002d70:	0004      	movs	r4, r0
10002d72:	4bcc      	ldr	r3, [pc, #816]	; (100030a4 <setup_clock_variables+0x338>)
10002d74:	781b      	ldrb	r3, [r3, #0]
10002d76:	4acc      	ldr	r2, [pc, #816]	; (100030a8 <setup_clock_variables+0x33c>)
10002d78:	5cd3      	ldrb	r3, [r2, r3]
10002d7a:	2bff      	cmp	r3, #255	; 0xff
10002d7c:	d100      	bne.n	10002d80 <setup_clock_variables+0x14>
10002d7e:	e078      	b.n	10002e72 <setup_clock_variables+0x106>
10002d80:	4bca      	ldr	r3, [pc, #808]	; (100030ac <setup_clock_variables+0x340>)
10002d82:	781b      	ldrb	r3, [r3, #0]
10002d84:	4ac8      	ldr	r2, [pc, #800]	; (100030a8 <setup_clock_variables+0x33c>)
10002d86:	5cd3      	ldrb	r3, [r2, r3]
10002d88:	2bff      	cmp	r3, #255	; 0xff
10002d8a:	d100      	bne.n	10002d8e <setup_clock_variables+0x22>
10002d8c:	e091      	b.n	10002eb2 <setup_clock_variables+0x146>
10002d8e:	4bc8      	ldr	r3, [pc, #800]	; (100030b0 <setup_clock_variables+0x344>)
10002d90:	781b      	ldrb	r3, [r3, #0]
10002d92:	4ac5      	ldr	r2, [pc, #788]	; (100030a8 <setup_clock_variables+0x33c>)
10002d94:	5cd3      	ldrb	r3, [r2, r3]
10002d96:	2bff      	cmp	r3, #255	; 0xff
10002d98:	d100      	bne.n	10002d9c <setup_clock_variables+0x30>
10002d9a:	e0aa      	b.n	10002ef2 <setup_clock_variables+0x186>
10002d9c:	4bc5      	ldr	r3, [pc, #788]	; (100030b4 <setup_clock_variables+0x348>)
10002d9e:	781b      	ldrb	r3, [r3, #0]
10002da0:	4ac1      	ldr	r2, [pc, #772]	; (100030a8 <setup_clock_variables+0x33c>)
10002da2:	5cd3      	ldrb	r3, [r2, r3]
10002da4:	2bff      	cmp	r3, #255	; 0xff
10002da6:	d100      	bne.n	10002daa <setup_clock_variables+0x3e>
10002da8:	e0d3      	b.n	10002f52 <setup_clock_variables+0x1e6>
10002daa:	4bc3      	ldr	r3, [pc, #780]	; (100030b8 <setup_clock_variables+0x34c>)
10002dac:	781b      	ldrb	r3, [r3, #0]
10002dae:	4abe      	ldr	r2, [pc, #760]	; (100030a8 <setup_clock_variables+0x33c>)
10002db0:	5cd3      	ldrb	r3, [r2, r3]
10002db2:	2bff      	cmp	r3, #255	; 0xff
10002db4:	d100      	bne.n	10002db8 <setup_clock_variables+0x4c>
10002db6:	e0fa      	b.n	10002fae <setup_clock_variables+0x242>
10002db8:	4bc0      	ldr	r3, [pc, #768]	; (100030bc <setup_clock_variables+0x350>)
10002dba:	781b      	ldrb	r3, [r3, #0]
10002dbc:	4aba      	ldr	r2, [pc, #744]	; (100030a8 <setup_clock_variables+0x33c>)
10002dbe:	5cd3      	ldrb	r3, [r2, r3]
10002dc0:	2bff      	cmp	r3, #255	; 0xff
10002dc2:	d100      	bne.n	10002dc6 <setup_clock_variables+0x5a>
10002dc4:	e118      	b.n	10002ff8 <setup_clock_variables+0x28c>
10002dc6:	4bbe      	ldr	r3, [pc, #760]	; (100030c0 <setup_clock_variables+0x354>)
10002dc8:	781b      	ldrb	r3, [r3, #0]
10002dca:	4ab7      	ldr	r2, [pc, #732]	; (100030a8 <setup_clock_variables+0x33c>)
10002dcc:	5cd3      	ldrb	r3, [r2, r3]
10002dce:	2bff      	cmp	r3, #255	; 0xff
10002dd0:	d100      	bne.n	10002dd4 <setup_clock_variables+0x68>
10002dd2:	e12b      	b.n	1000302c <setup_clock_variables+0x2c0>
10002dd4:	4bbb      	ldr	r3, [pc, #748]	; (100030c4 <setup_clock_variables+0x358>)
10002dd6:	781b      	ldrb	r3, [r3, #0]
10002dd8:	4ab3      	ldr	r2, [pc, #716]	; (100030a8 <setup_clock_variables+0x33c>)
10002dda:	5cd3      	ldrb	r3, [r2, r3]
10002ddc:	2bff      	cmp	r3, #255	; 0xff
10002dde:	d100      	bne.n	10002de2 <setup_clock_variables+0x76>
10002de0:	e137      	b.n	10003052 <setup_clock_variables+0x2e6>
10002de2:	4bb9      	ldr	r3, [pc, #740]	; (100030c8 <setup_clock_variables+0x35c>)
10002de4:	781b      	ldrb	r3, [r3, #0]
10002de6:	4ab0      	ldr	r2, [pc, #704]	; (100030a8 <setup_clock_variables+0x33c>)
10002de8:	5cd3      	ldrb	r3, [r2, r3]
10002dea:	2bff      	cmp	r3, #255	; 0xff
10002dec:	d100      	bne.n	10002df0 <setup_clock_variables+0x84>
10002dee:	e14c      	b.n	1000308a <setup_clock_variables+0x31e>
10002df0:	4bb6      	ldr	r3, [pc, #728]	; (100030cc <setup_clock_variables+0x360>)
10002df2:	781b      	ldrb	r3, [r3, #0]
10002df4:	4aac      	ldr	r2, [pc, #688]	; (100030a8 <setup_clock_variables+0x33c>)
10002df6:	5cd3      	ldrb	r3, [r2, r3]
10002df8:	2bff      	cmp	r3, #255	; 0xff
10002dfa:	d100      	bne.n	10002dfe <setup_clock_variables+0x92>
10002dfc:	e1a1      	b.n	10003142 <setup_clock_variables+0x3d6>
10002dfe:	4bb4      	ldr	r3, [pc, #720]	; (100030d0 <setup_clock_variables+0x364>)
10002e00:	781b      	ldrb	r3, [r3, #0]
10002e02:	4aa9      	ldr	r2, [pc, #676]	; (100030a8 <setup_clock_variables+0x33c>)
10002e04:	5cd3      	ldrb	r3, [r2, r3]
10002e06:	2bff      	cmp	r3, #255	; 0xff
10002e08:	d100      	bne.n	10002e0c <setup_clock_variables+0xa0>
10002e0a:	e1c6      	b.n	1000319a <setup_clock_variables+0x42e>
10002e0c:	4bb1      	ldr	r3, [pc, #708]	; (100030d4 <setup_clock_variables+0x368>)
10002e0e:	781b      	ldrb	r3, [r3, #0]
10002e10:	4aa5      	ldr	r2, [pc, #660]	; (100030a8 <setup_clock_variables+0x33c>)
10002e12:	5cd3      	ldrb	r3, [r2, r3]
10002e14:	2bff      	cmp	r3, #255	; 0xff
10002e16:	d100      	bne.n	10002e1a <setup_clock_variables+0xae>
10002e18:	e1fc      	b.n	10003214 <setup_clock_variables+0x4a8>
10002e1a:	4baf      	ldr	r3, [pc, #700]	; (100030d8 <setup_clock_variables+0x36c>)
10002e1c:	781b      	ldrb	r3, [r3, #0]
10002e1e:	4aa2      	ldr	r2, [pc, #648]	; (100030a8 <setup_clock_variables+0x33c>)
10002e20:	5cd3      	ldrb	r3, [r2, r3]
10002e22:	2bff      	cmp	r3, #255	; 0xff
10002e24:	d100      	bne.n	10002e28 <setup_clock_variables+0xbc>
10002e26:	e211      	b.n	1000324c <setup_clock_variables+0x4e0>
10002e28:	4bac      	ldr	r3, [pc, #688]	; (100030dc <setup_clock_variables+0x370>)
10002e2a:	781b      	ldrb	r3, [r3, #0]
10002e2c:	4a9e      	ldr	r2, [pc, #632]	; (100030a8 <setup_clock_variables+0x33c>)
10002e2e:	5cd3      	ldrb	r3, [r2, r3]
10002e30:	2bff      	cmp	r3, #255	; 0xff
10002e32:	d100      	bne.n	10002e36 <setup_clock_variables+0xca>
10002e34:	e224      	b.n	10003280 <setup_clock_variables+0x514>
10002e36:	4baa      	ldr	r3, [pc, #680]	; (100030e0 <setup_clock_variables+0x374>)
10002e38:	781b      	ldrb	r3, [r3, #0]
10002e3a:	4a9b      	ldr	r2, [pc, #620]	; (100030a8 <setup_clock_variables+0x33c>)
10002e3c:	5cd3      	ldrb	r3, [r2, r3]
10002e3e:	2bff      	cmp	r3, #255	; 0xff
10002e40:	d100      	bne.n	10002e44 <setup_clock_variables+0xd8>
10002e42:	e237      	b.n	100032b4 <setup_clock_variables+0x548>
10002e44:	4ba7      	ldr	r3, [pc, #668]	; (100030e4 <setup_clock_variables+0x378>)
10002e46:	781b      	ldrb	r3, [r3, #0]
10002e48:	4a97      	ldr	r2, [pc, #604]	; (100030a8 <setup_clock_variables+0x33c>)
10002e4a:	5cd3      	ldrb	r3, [r2, r3]
10002e4c:	2bff      	cmp	r3, #255	; 0xff
10002e4e:	d100      	bne.n	10002e52 <setup_clock_variables+0xe6>
10002e50:	e24c      	b.n	100032ec <setup_clock_variables+0x580>
10002e52:	4ba5      	ldr	r3, [pc, #660]	; (100030e8 <setup_clock_variables+0x37c>)
10002e54:	781b      	ldrb	r3, [r3, #0]
10002e56:	4a94      	ldr	r2, [pc, #592]	; (100030a8 <setup_clock_variables+0x33c>)
10002e58:	5cd3      	ldrb	r3, [r2, r3]
10002e5a:	2bff      	cmp	r3, #255	; 0xff
10002e5c:	d100      	bne.n	10002e60 <setup_clock_variables+0xf4>
10002e5e:	e25f      	b.n	10003320 <setup_clock_variables+0x5b4>
10002e60:	4ba2      	ldr	r3, [pc, #648]	; (100030ec <setup_clock_variables+0x380>)
10002e62:	781b      	ldrb	r3, [r3, #0]
10002e64:	4a90      	ldr	r2, [pc, #576]	; (100030a8 <setup_clock_variables+0x33c>)
10002e66:	5cd3      	ldrb	r3, [r2, r3]
10002e68:	2bff      	cmp	r3, #255	; 0xff
10002e6a:	d100      	bne.n	10002e6e <setup_clock_variables+0x102>
10002e6c:	e272      	b.n	10003354 <setup_clock_variables+0x5e8>
10002e6e:	b003      	add	sp, #12
10002e70:	bd30      	pop	{r4, r5, pc}
10002e72:	4b9f      	ldr	r3, [pc, #636]	; (100030f0 <setup_clock_variables+0x384>)
10002e74:	22ff      	movs	r2, #255	; 0xff
10002e76:	701a      	strb	r2, [r3, #0]
10002e78:	28ff      	cmp	r0, #255	; 0xff
10002e7a:	d00b      	beq.n	10002e94 <setup_clock_variables+0x128>
10002e7c:	4a9d      	ldr	r2, [pc, #628]	; (100030f4 <setup_clock_variables+0x388>)
10002e7e:	7813      	ldrb	r3, [r2, #0]
10002e80:	3b01      	subs	r3, #1
10002e82:	b2db      	uxtb	r3, r3
10002e84:	7013      	strb	r3, [r2, #0]
10002e86:	2bff      	cmp	r3, #255	; 0xff
10002e88:	d00f      	beq.n	10002eaa <setup_clock_variables+0x13e>
10002e8a:	4b9a      	ldr	r3, [pc, #616]	; (100030f4 <setup_clock_variables+0x388>)
10002e8c:	781a      	ldrb	r2, [r3, #0]
10002e8e:	4b9a      	ldr	r3, [pc, #616]	; (100030f8 <setup_clock_variables+0x38c>)
10002e90:	701a      	strb	r2, [r3, #0]
10002e92:	e775      	b.n	10002d80 <setup_clock_variables+0x14>
10002e94:	4a97      	ldr	r2, [pc, #604]	; (100030f4 <setup_clock_variables+0x388>)
10002e96:	7813      	ldrb	r3, [r2, #0]
10002e98:	3301      	adds	r3, #1
10002e9a:	b2db      	uxtb	r3, r3
10002e9c:	7013      	strb	r3, [r2, #0]
10002e9e:	2b18      	cmp	r3, #24
10002ea0:	d1f3      	bne.n	10002e8a <setup_clock_variables+0x11e>
10002ea2:	0013      	movs	r3, r2
10002ea4:	2200      	movs	r2, #0
10002ea6:	701a      	strb	r2, [r3, #0]
10002ea8:	e7ef      	b.n	10002e8a <setup_clock_variables+0x11e>
10002eaa:	0013      	movs	r3, r2
10002eac:	2217      	movs	r2, #23
10002eae:	701a      	strb	r2, [r3, #0]
10002eb0:	e7eb      	b.n	10002e8a <setup_clock_variables+0x11e>
10002eb2:	4b8f      	ldr	r3, [pc, #572]	; (100030f0 <setup_clock_variables+0x384>)
10002eb4:	22ff      	movs	r2, #255	; 0xff
10002eb6:	701a      	strb	r2, [r3, #0]
10002eb8:	2cff      	cmp	r4, #255	; 0xff
10002eba:	d00b      	beq.n	10002ed4 <setup_clock_variables+0x168>
10002ebc:	4a8f      	ldr	r2, [pc, #572]	; (100030fc <setup_clock_variables+0x390>)
10002ebe:	7813      	ldrb	r3, [r2, #0]
10002ec0:	3b01      	subs	r3, #1
10002ec2:	b2db      	uxtb	r3, r3
10002ec4:	7013      	strb	r3, [r2, #0]
10002ec6:	2bff      	cmp	r3, #255	; 0xff
10002ec8:	d00f      	beq.n	10002eea <setup_clock_variables+0x17e>
10002eca:	4b8c      	ldr	r3, [pc, #560]	; (100030fc <setup_clock_variables+0x390>)
10002ecc:	781a      	ldrb	r2, [r3, #0]
10002ece:	4b8c      	ldr	r3, [pc, #560]	; (10003100 <setup_clock_variables+0x394>)
10002ed0:	701a      	strb	r2, [r3, #0]
10002ed2:	e75c      	b.n	10002d8e <setup_clock_variables+0x22>
10002ed4:	4a89      	ldr	r2, [pc, #548]	; (100030fc <setup_clock_variables+0x390>)
10002ed6:	7813      	ldrb	r3, [r2, #0]
10002ed8:	3301      	adds	r3, #1
10002eda:	b2db      	uxtb	r3, r3
10002edc:	7013      	strb	r3, [r2, #0]
10002ede:	2b3c      	cmp	r3, #60	; 0x3c
10002ee0:	d1f3      	bne.n	10002eca <setup_clock_variables+0x15e>
10002ee2:	0013      	movs	r3, r2
10002ee4:	2200      	movs	r2, #0
10002ee6:	701a      	strb	r2, [r3, #0]
10002ee8:	e7ef      	b.n	10002eca <setup_clock_variables+0x15e>
10002eea:	0013      	movs	r3, r2
10002eec:	223b      	movs	r2, #59	; 0x3b
10002eee:	701a      	strb	r2, [r3, #0]
10002ef0:	e7eb      	b.n	10002eca <setup_clock_variables+0x15e>
10002ef2:	4b7f      	ldr	r3, [pc, #508]	; (100030f0 <setup_clock_variables+0x384>)
10002ef4:	22ff      	movs	r2, #255	; 0xff
10002ef6:	701a      	strb	r2, [r3, #0]
10002ef8:	2cff      	cmp	r4, #255	; 0xff
10002efa:	d01f      	beq.n	10002f3c <setup_clock_variables+0x1d0>
10002efc:	4a81      	ldr	r2, [pc, #516]	; (10003104 <setup_clock_variables+0x398>)
10002efe:	7813      	ldrb	r3, [r2, #0]
10002f00:	3b01      	subs	r3, #1
10002f02:	b2db      	uxtb	r3, r3
10002f04:	7013      	strb	r3, [r2, #0]
10002f06:	2b00      	cmp	r3, #0
10002f08:	d102      	bne.n	10002f10 <setup_clock_variables+0x1a4>
10002f0a:	0013      	movs	r3, r2
10002f0c:	220c      	movs	r2, #12
10002f0e:	701a      	strb	r2, [r3, #0]
10002f10:	4b7d      	ldr	r3, [pc, #500]	; (10003108 <setup_clock_variables+0x39c>)
10002f12:	7818      	ldrb	r0, [r3, #0]
10002f14:	2364      	movs	r3, #100	; 0x64
10002f16:	4343      	muls	r3, r0
10002f18:	4a7c      	ldr	r2, [pc, #496]	; (1000310c <setup_clock_variables+0x3a0>)
10002f1a:	7810      	ldrb	r0, [r2, #0]
10002f1c:	18c0      	adds	r0, r0, r3
10002f1e:	b280      	uxth	r0, r0
10002f20:	4b7b      	ldr	r3, [pc, #492]	; (10003110 <setup_clock_variables+0x3a4>)
10002f22:	8018      	strh	r0, [r3, #0]
10002f24:	4b77      	ldr	r3, [pc, #476]	; (10003104 <setup_clock_variables+0x398>)
10002f26:	7819      	ldrb	r1, [r3, #0]
10002f28:	f7fd fe7e 	bl	10000c28 <get_month_days>
10002f2c:	4b79      	ldr	r3, [pc, #484]	; (10003114 <setup_clock_variables+0x3a8>)
10002f2e:	781b      	ldrb	r3, [r3, #0]
10002f30:	4298      	cmp	r0, r3
10002f32:	d300      	bcc.n	10002f36 <setup_clock_variables+0x1ca>
10002f34:	e732      	b.n	10002d9c <setup_clock_variables+0x30>
10002f36:	4b77      	ldr	r3, [pc, #476]	; (10003114 <setup_clock_variables+0x3a8>)
10002f38:	7018      	strb	r0, [r3, #0]
10002f3a:	e72f      	b.n	10002d9c <setup_clock_variables+0x30>
10002f3c:	4a71      	ldr	r2, [pc, #452]	; (10003104 <setup_clock_variables+0x398>)
10002f3e:	7813      	ldrb	r3, [r2, #0]
10002f40:	3301      	adds	r3, #1
10002f42:	b2db      	uxtb	r3, r3
10002f44:	7013      	strb	r3, [r2, #0]
10002f46:	2b0d      	cmp	r3, #13
10002f48:	d1e2      	bne.n	10002f10 <setup_clock_variables+0x1a4>
10002f4a:	0013      	movs	r3, r2
10002f4c:	2201      	movs	r2, #1
10002f4e:	701a      	strb	r2, [r3, #0]
10002f50:	e7de      	b.n	10002f10 <setup_clock_variables+0x1a4>
10002f52:	4b67      	ldr	r3, [pc, #412]	; (100030f0 <setup_clock_variables+0x384>)
10002f54:	22ff      	movs	r2, #255	; 0xff
10002f56:	701a      	strb	r2, [r3, #0]
10002f58:	4b6b      	ldr	r3, [pc, #428]	; (10003108 <setup_clock_variables+0x39c>)
10002f5a:	7818      	ldrb	r0, [r3, #0]
10002f5c:	2364      	movs	r3, #100	; 0x64
10002f5e:	4343      	muls	r3, r0
10002f60:	4a6a      	ldr	r2, [pc, #424]	; (1000310c <setup_clock_variables+0x3a0>)
10002f62:	7810      	ldrb	r0, [r2, #0]
10002f64:	18c0      	adds	r0, r0, r3
10002f66:	b280      	uxth	r0, r0
10002f68:	4b69      	ldr	r3, [pc, #420]	; (10003110 <setup_clock_variables+0x3a4>)
10002f6a:	8018      	strh	r0, [r3, #0]
10002f6c:	2cff      	cmp	r4, #255	; 0xff
10002f6e:	d00e      	beq.n	10002f8e <setup_clock_variables+0x222>
10002f70:	4a68      	ldr	r2, [pc, #416]	; (10003114 <setup_clock_variables+0x3a8>)
10002f72:	7813      	ldrb	r3, [r2, #0]
10002f74:	3b01      	subs	r3, #1
10002f76:	b2db      	uxtb	r3, r3
10002f78:	7013      	strb	r3, [r2, #0]
10002f7a:	2b00      	cmp	r3, #0
10002f7c:	d000      	beq.n	10002f80 <setup_clock_variables+0x214>
10002f7e:	e714      	b.n	10002daa <setup_clock_variables+0x3e>
10002f80:	4b60      	ldr	r3, [pc, #384]	; (10003104 <setup_clock_variables+0x398>)
10002f82:	7819      	ldrb	r1, [r3, #0]
10002f84:	f7fd fe50 	bl	10000c28 <get_month_days>
10002f88:	4b62      	ldr	r3, [pc, #392]	; (10003114 <setup_clock_variables+0x3a8>)
10002f8a:	7018      	strb	r0, [r3, #0]
10002f8c:	e70d      	b.n	10002daa <setup_clock_variables+0x3e>
10002f8e:	4b61      	ldr	r3, [pc, #388]	; (10003114 <setup_clock_variables+0x3a8>)
10002f90:	781d      	ldrb	r5, [r3, #0]
10002f92:	3501      	adds	r5, #1
10002f94:	b2ed      	uxtb	r5, r5
10002f96:	701d      	strb	r5, [r3, #0]
10002f98:	4b5a      	ldr	r3, [pc, #360]	; (10003104 <setup_clock_variables+0x398>)
10002f9a:	7819      	ldrb	r1, [r3, #0]
10002f9c:	f7fd fe44 	bl	10000c28 <get_month_days>
10002fa0:	4285      	cmp	r5, r0
10002fa2:	d800      	bhi.n	10002fa6 <setup_clock_variables+0x23a>
10002fa4:	e701      	b.n	10002daa <setup_clock_variables+0x3e>
10002fa6:	4b5b      	ldr	r3, [pc, #364]	; (10003114 <setup_clock_variables+0x3a8>)
10002fa8:	2201      	movs	r2, #1
10002faa:	701a      	strb	r2, [r3, #0]
10002fac:	e6fd      	b.n	10002daa <setup_clock_variables+0x3e>
10002fae:	4b50      	ldr	r3, [pc, #320]	; (100030f0 <setup_clock_variables+0x384>)
10002fb0:	22ff      	movs	r2, #255	; 0xff
10002fb2:	701a      	strb	r2, [r3, #0]
10002fb4:	2cff      	cmp	r4, #255	; 0xff
10002fb6:	d00f      	beq.n	10002fd8 <setup_clock_variables+0x26c>
10002fb8:	4a54      	ldr	r2, [pc, #336]	; (1000310c <setup_clock_variables+0x3a0>)
10002fba:	7813      	ldrb	r3, [r2, #0]
10002fbc:	3b01      	subs	r3, #1
10002fbe:	b2db      	uxtb	r3, r3
10002fc0:	7013      	strb	r3, [r2, #0]
10002fc2:	2bff      	cmp	r3, #255	; 0xff
10002fc4:	d000      	beq.n	10002fc8 <setup_clock_variables+0x25c>
10002fc6:	e6f7      	b.n	10002db8 <setup_clock_variables+0x4c>
10002fc8:	0013      	movs	r3, r2
10002fca:	2263      	movs	r2, #99	; 0x63
10002fcc:	701a      	strb	r2, [r3, #0]
10002fce:	4a4e      	ldr	r2, [pc, #312]	; (10003108 <setup_clock_variables+0x39c>)
10002fd0:	7813      	ldrb	r3, [r2, #0]
10002fd2:	3b01      	subs	r3, #1
10002fd4:	7013      	strb	r3, [r2, #0]
10002fd6:	e6ef      	b.n	10002db8 <setup_clock_variables+0x4c>
10002fd8:	4a4c      	ldr	r2, [pc, #304]	; (1000310c <setup_clock_variables+0x3a0>)
10002fda:	7813      	ldrb	r3, [r2, #0]
10002fdc:	3301      	adds	r3, #1
10002fde:	b2db      	uxtb	r3, r3
10002fe0:	7013      	strb	r3, [r2, #0]
10002fe2:	2b64      	cmp	r3, #100	; 0x64
10002fe4:	d000      	beq.n	10002fe8 <setup_clock_variables+0x27c>
10002fe6:	e6e7      	b.n	10002db8 <setup_clock_variables+0x4c>
10002fe8:	0013      	movs	r3, r2
10002fea:	2200      	movs	r2, #0
10002fec:	701a      	strb	r2, [r3, #0]
10002fee:	4a46      	ldr	r2, [pc, #280]	; (10003108 <setup_clock_variables+0x39c>)
10002ff0:	7813      	ldrb	r3, [r2, #0]
10002ff2:	3301      	adds	r3, #1
10002ff4:	7013      	strb	r3, [r2, #0]
10002ff6:	e6df      	b.n	10002db8 <setup_clock_variables+0x4c>
10002ff8:	2cff      	cmp	r4, #255	; 0xff
10002ffa:	d00b      	beq.n	10003014 <setup_clock_variables+0x2a8>
10002ffc:	4a46      	ldr	r2, [pc, #280]	; (10003118 <setup_clock_variables+0x3ac>)
10002ffe:	7813      	ldrb	r3, [r2, #0]
10003000:	3b01      	subs	r3, #1
10003002:	b2db      	uxtb	r3, r3
10003004:	7013      	strb	r3, [r2, #0]
10003006:	2bff      	cmp	r3, #255	; 0xff
10003008:	d000      	beq.n	1000300c <setup_clock_variables+0x2a0>
1000300a:	e6dc      	b.n	10002dc6 <setup_clock_variables+0x5a>
1000300c:	0013      	movs	r3, r2
1000300e:	2201      	movs	r2, #1
10003010:	701a      	strb	r2, [r3, #0]
10003012:	e6d8      	b.n	10002dc6 <setup_clock_variables+0x5a>
10003014:	4a40      	ldr	r2, [pc, #256]	; (10003118 <setup_clock_variables+0x3ac>)
10003016:	7813      	ldrb	r3, [r2, #0]
10003018:	3301      	adds	r3, #1
1000301a:	b2db      	uxtb	r3, r3
1000301c:	7013      	strb	r3, [r2, #0]
1000301e:	2b01      	cmp	r3, #1
10003020:	d800      	bhi.n	10003024 <setup_clock_variables+0x2b8>
10003022:	e6d0      	b.n	10002dc6 <setup_clock_variables+0x5a>
10003024:	0013      	movs	r3, r2
10003026:	2200      	movs	r2, #0
10003028:	701a      	strb	r2, [r3, #0]
1000302a:	e6cc      	b.n	10002dc6 <setup_clock_variables+0x5a>
1000302c:	4b3b      	ldr	r3, [pc, #236]	; (1000311c <setup_clock_variables+0x3b0>)
1000302e:	781b      	ldrb	r3, [r3, #0]
10003030:	2bff      	cmp	r3, #255	; 0xff
10003032:	d002      	beq.n	1000303a <setup_clock_variables+0x2ce>
10003034:	f7fd f9dc 	bl	100003f0 <evaluate_keyclick_start_time>
10003038:	e6cc      	b.n	10002dd4 <setup_clock_variables+0x68>
1000303a:	4b39      	ldr	r3, [pc, #228]	; (10003120 <setup_clock_variables+0x3b4>)
1000303c:	781b      	ldrb	r3, [r3, #0]
1000303e:	2bff      	cmp	r3, #255	; 0xff
10003040:	d003      	beq.n	1000304a <setup_clock_variables+0x2de>
10003042:	4b37      	ldr	r3, [pc, #220]	; (10003120 <setup_clock_variables+0x3b4>)
10003044:	22ff      	movs	r2, #255	; 0xff
10003046:	701a      	strb	r2, [r3, #0]
10003048:	e7f4      	b.n	10003034 <setup_clock_variables+0x2c8>
1000304a:	4b35      	ldr	r3, [pc, #212]	; (10003120 <setup_clock_variables+0x3b4>)
1000304c:	2200      	movs	r2, #0
1000304e:	701a      	strb	r2, [r3, #0]
10003050:	e7f0      	b.n	10003034 <setup_clock_variables+0x2c8>
10003052:	4a34      	ldr	r2, [pc, #208]	; (10003124 <setup_clock_variables+0x3b8>)
10003054:	7813      	ldrb	r3, [r2, #0]
10003056:	4259      	negs	r1, r3
10003058:	414b      	adcs	r3, r1
1000305a:	b2db      	uxtb	r3, r3
1000305c:	7013      	strb	r3, [r2, #0]
1000305e:	2b00      	cmp	r3, #0
10003060:	d109      	bne.n	10003076 <setup_clock_variables+0x30a>
10003062:	4a31      	ldr	r2, [pc, #196]	; (10003128 <setup_clock_variables+0x3bc>)
10003064:	78d3      	ldrb	r3, [r2, #3]
10003066:	2102      	movs	r1, #2
10003068:	430b      	orrs	r3, r1
1000306a:	b2db      	uxtb	r3, r3
1000306c:	70d3      	strb	r3, [r2, #3]
1000306e:	2101      	movs	r1, #1
10003070:	438b      	bics	r3, r1
10003072:	70d3      	strb	r3, [r2, #3]
10003074:	e6b5      	b.n	10002de2 <setup_clock_variables+0x76>
10003076:	4a2c      	ldr	r2, [pc, #176]	; (10003128 <setup_clock_variables+0x3bc>)
10003078:	78d3      	ldrb	r3, [r2, #3]
1000307a:	2101      	movs	r1, #1
1000307c:	430b      	orrs	r3, r1
1000307e:	b2db      	uxtb	r3, r3
10003080:	70d3      	strb	r3, [r2, #3]
10003082:	2102      	movs	r1, #2
10003084:	438b      	bics	r3, r1
10003086:	70d3      	strb	r3, [r2, #3]
10003088:	e6ab      	b.n	10002de2 <setup_clock_variables+0x76>
1000308a:	4b28      	ldr	r3, [pc, #160]	; (1000312c <setup_clock_variables+0x3c0>)
1000308c:	781b      	ldrb	r3, [r3, #0]
1000308e:	2b00      	cmp	r3, #0
10003090:	d14e      	bne.n	10003130 <setup_clock_variables+0x3c4>
10003092:	4b26      	ldr	r3, [pc, #152]	; (1000312c <setup_clock_variables+0x3c0>)
10003094:	22ff      	movs	r2, #255	; 0xff
10003096:	701a      	strb	r2, [r3, #0]
10003098:	4a23      	ldr	r2, [pc, #140]	; (10003128 <setup_clock_variables+0x3bc>)
1000309a:	7813      	ldrb	r3, [r2, #0]
1000309c:	2103      	movs	r1, #3
1000309e:	430b      	orrs	r3, r1
100030a0:	7013      	strb	r3, [r2, #0]
100030a2:	e6a5      	b.n	10002df0 <setup_clock_variables+0x84>
100030a4:	20000931 	.word	0x20000931
100030a8:	20001a70 	.word	0x20001a70
100030ac:	20000935 	.word	0x20000935
100030b0:	20000936 	.word	0x20000936
100030b4:	2000092f 	.word	0x2000092f
100030b8:	2000093d 	.word	0x2000093d
100030bc:	20000930 	.word	0x20000930
100030c0:	20000933 	.word	0x20000933
100030c4:	2000093b 	.word	0x2000093b
100030c8:	2000093a 	.word	0x2000093a
100030cc:	20000934 	.word	0x20000934
100030d0:	2000093c 	.word	0x2000093c
100030d4:	20000932 	.word	0x20000932
100030d8:	2000092e 	.word	0x2000092e
100030dc:	2000092d 	.word	0x2000092d
100030e0:	20000937 	.word	0x20000937
100030e4:	20000939 	.word	0x20000939
100030e8:	20000938 	.word	0x20000938
100030ec:	2000092c 	.word	0x2000092c
100030f0:	20002b58 	.word	0x20002b58
100030f4:	20002b46 	.word	0x20002b46
100030f8:	20002b45 	.word	0x20002b45
100030fc:	20002b48 	.word	0x20002b48
10003100:	20002b47 	.word	0x20002b47
10003104:	20002b49 	.word	0x20002b49
10003108:	20000664 	.word	0x20000664
1000310c:	20002b4a 	.word	0x20002b4a
10003110:	20002b40 	.word	0x20002b40
10003114:	20002b44 	.word	0x20002b44
10003118:	20002b4b 	.word	0x20002b4b
1000311c:	20002b5a 	.word	0x20002b5a
10003120:	20002b50 	.word	0x20002b50
10003124:	20002b6d 	.word	0x20002b6d
10003128:	2000195c 	.word	0x2000195c
1000312c:	20000770 	.word	0x20000770
10003130:	4b95      	ldr	r3, [pc, #596]	; (10003388 <setup_clock_variables+0x61c>)
10003132:	2200      	movs	r2, #0
10003134:	701a      	strb	r2, [r3, #0]
10003136:	4a95      	ldr	r2, [pc, #596]	; (1000338c <setup_clock_variables+0x620>)
10003138:	7813      	ldrb	r3, [r2, #0]
1000313a:	2103      	movs	r1, #3
1000313c:	438b      	bics	r3, r1
1000313e:	7013      	strb	r3, [r2, #0]
10003140:	e656      	b.n	10002df0 <setup_clock_variables+0x84>
10003142:	2cff      	cmp	r4, #255	; 0xff
10003144:	d017      	beq.n	10003176 <setup_clock_variables+0x40a>
10003146:	4a92      	ldr	r2, [pc, #584]	; (10003390 <setup_clock_variables+0x624>)
10003148:	7813      	ldrb	r3, [r2, #0]
1000314a:	3b01      	subs	r3, #1
1000314c:	b2db      	uxtb	r3, r3
1000314e:	7013      	strb	r3, [r2, #0]
10003150:	2b00      	cmp	r3, #0
10003152:	d102      	bne.n	1000315a <setup_clock_variables+0x3ee>
10003154:	0013      	movs	r3, r2
10003156:	2202      	movs	r2, #2
10003158:	701a      	strb	r2, [r3, #0]
1000315a:	4b8d      	ldr	r3, [pc, #564]	; (10003390 <setup_clock_variables+0x624>)
1000315c:	781b      	ldrb	r3, [r3, #0]
1000315e:	2b02      	cmp	r3, #2
10003160:	d014      	beq.n	1000318c <setup_clock_variables+0x420>
10003162:	2b01      	cmp	r3, #1
10003164:	d000      	beq.n	10003168 <setup_clock_variables+0x3fc>
10003166:	e64a      	b.n	10002dfe <setup_clock_variables+0x92>
10003168:	4b8a      	ldr	r3, [pc, #552]	; (10003394 <setup_clock_variables+0x628>)
1000316a:	2203      	movs	r2, #3
1000316c:	701a      	strb	r2, [r3, #0]
1000316e:	4b8a      	ldr	r3, [pc, #552]	; (10003398 <setup_clock_variables+0x62c>)
10003170:	3201      	adds	r2, #1
10003172:	701a      	strb	r2, [r3, #0]
10003174:	e643      	b.n	10002dfe <setup_clock_variables+0x92>
10003176:	4a86      	ldr	r2, [pc, #536]	; (10003390 <setup_clock_variables+0x624>)
10003178:	7813      	ldrb	r3, [r2, #0]
1000317a:	3301      	adds	r3, #1
1000317c:	b2db      	uxtb	r3, r3
1000317e:	7013      	strb	r3, [r2, #0]
10003180:	2b02      	cmp	r3, #2
10003182:	d9ea      	bls.n	1000315a <setup_clock_variables+0x3ee>
10003184:	0013      	movs	r3, r2
10003186:	2201      	movs	r2, #1
10003188:	701a      	strb	r2, [r3, #0]
1000318a:	e7e6      	b.n	1000315a <setup_clock_variables+0x3ee>
1000318c:	4a82      	ldr	r2, [pc, #520]	; (10003398 <setup_clock_variables+0x62c>)
1000318e:	2103      	movs	r1, #3
10003190:	7011      	strb	r1, [r2, #0]
10003192:	4a80      	ldr	r2, [pc, #512]	; (10003394 <setup_clock_variables+0x628>)
10003194:	3101      	adds	r1, #1
10003196:	7011      	strb	r1, [r2, #0]
10003198:	e7e3      	b.n	10003162 <setup_clock_variables+0x3f6>
1000319a:	4b80      	ldr	r3, [pc, #512]	; (1000339c <setup_clock_variables+0x630>)
1000319c:	781b      	ldrb	r3, [r3, #0]
1000319e:	2b00      	cmp	r3, #0
100031a0:	d10b      	bne.n	100031ba <setup_clock_variables+0x44e>
100031a2:	4b7e      	ldr	r3, [pc, #504]	; (1000339c <setup_clock_variables+0x630>)
100031a4:	22ff      	movs	r2, #255	; 0xff
100031a6:	701a      	strb	r2, [r3, #0]
100031a8:	4a78      	ldr	r2, [pc, #480]	; (1000338c <setup_clock_variables+0x620>)
100031aa:	7913      	ldrb	r3, [r2, #4]
100031ac:	2101      	movs	r1, #1
100031ae:	438b      	bics	r3, r1
100031b0:	7113      	strb	r3, [r2, #4]
100031b2:	3101      	adds	r1, #1
100031b4:	438b      	bics	r3, r1
100031b6:	7113      	strb	r3, [r2, #4]
100031b8:	e628      	b.n	10002e0c <setup_clock_variables+0xa0>
100031ba:	4b78      	ldr	r3, [pc, #480]	; (1000339c <setup_clock_variables+0x630>)
100031bc:	2200      	movs	r2, #0
100031be:	701a      	strb	r2, [r3, #0]
100031c0:	466b      	mov	r3, sp
100031c2:	1ddd      	adds	r5, r3, #7
100031c4:	4b76      	ldr	r3, [pc, #472]	; (100033a0 <setup_clock_variables+0x634>)
100031c6:	7818      	ldrb	r0, [r3, #0]
100031c8:	466b      	mov	r3, sp
100031ca:	1d9a      	adds	r2, r3, #6
100031cc:	0029      	movs	r1, r5
100031ce:	f7fd f8bb 	bl	10000348 <convert_h24_to_h12>
100031d2:	4b74      	ldr	r3, [pc, #464]	; (100033a4 <setup_clock_variables+0x638>)
100031d4:	7018      	strb	r0, [r3, #0]
100031d6:	782b      	ldrb	r3, [r5, #0]
100031d8:	2bff      	cmp	r3, #255	; 0xff
100031da:	d00f      	beq.n	100031fc <setup_clock_variables+0x490>
100031dc:	4a6b      	ldr	r2, [pc, #428]	; (1000338c <setup_clock_variables+0x620>)
100031de:	7913      	ldrb	r3, [r2, #4]
100031e0:	2101      	movs	r1, #1
100031e2:	438b      	bics	r3, r1
100031e4:	7113      	strb	r3, [r2, #4]
100031e6:	466b      	mov	r3, sp
100031e8:	3306      	adds	r3, #6
100031ea:	781b      	ldrb	r3, [r3, #0]
100031ec:	2bff      	cmp	r3, #255	; 0xff
100031ee:	d00b      	beq.n	10003208 <setup_clock_variables+0x49c>
100031f0:	4a66      	ldr	r2, [pc, #408]	; (1000338c <setup_clock_variables+0x620>)
100031f2:	7913      	ldrb	r3, [r2, #4]
100031f4:	2102      	movs	r1, #2
100031f6:	438b      	bics	r3, r1
100031f8:	7113      	strb	r3, [r2, #4]
100031fa:	e607      	b.n	10002e0c <setup_clock_variables+0xa0>
100031fc:	4a63      	ldr	r2, [pc, #396]	; (1000338c <setup_clock_variables+0x620>)
100031fe:	7913      	ldrb	r3, [r2, #4]
10003200:	2101      	movs	r1, #1
10003202:	430b      	orrs	r3, r1
10003204:	7113      	strb	r3, [r2, #4]
10003206:	e7ee      	b.n	100031e6 <setup_clock_variables+0x47a>
10003208:	4a60      	ldr	r2, [pc, #384]	; (1000338c <setup_clock_variables+0x620>)
1000320a:	7913      	ldrb	r3, [r2, #4]
1000320c:	2102      	movs	r1, #2
1000320e:	430b      	orrs	r3, r1
10003210:	7113      	strb	r3, [r2, #4]
10003212:	e5fb      	b.n	10002e0c <setup_clock_variables+0xa0>
10003214:	2cff      	cmp	r4, #255	; 0xff
10003216:	d00e      	beq.n	10003236 <setup_clock_variables+0x4ca>
10003218:	2c00      	cmp	r4, #0
1000321a:	d000      	beq.n	1000321e <setup_clock_variables+0x4b2>
1000321c:	e5fd      	b.n	10002e1a <setup_clock_variables+0xae>
1000321e:	4a62      	ldr	r2, [pc, #392]	; (100033a8 <setup_clock_variables+0x63c>)
10003220:	7813      	ldrb	r3, [r2, #0]
10003222:	3b01      	subs	r3, #1
10003224:	b2db      	uxtb	r3, r3
10003226:	7013      	strb	r3, [r2, #0]
10003228:	2bff      	cmp	r3, #255	; 0xff
1000322a:	d000      	beq.n	1000322e <setup_clock_variables+0x4c2>
1000322c:	e5f5      	b.n	10002e1a <setup_clock_variables+0xae>
1000322e:	0013      	movs	r3, r2
10003230:	2202      	movs	r2, #2
10003232:	701a      	strb	r2, [r3, #0]
10003234:	e5f1      	b.n	10002e1a <setup_clock_variables+0xae>
10003236:	4a5c      	ldr	r2, [pc, #368]	; (100033a8 <setup_clock_variables+0x63c>)
10003238:	7813      	ldrb	r3, [r2, #0]
1000323a:	3301      	adds	r3, #1
1000323c:	b2db      	uxtb	r3, r3
1000323e:	7013      	strb	r3, [r2, #0]
10003240:	2b02      	cmp	r3, #2
10003242:	d9e9      	bls.n	10003218 <setup_clock_variables+0x4ac>
10003244:	0013      	movs	r3, r2
10003246:	2200      	movs	r2, #0
10003248:	701a      	strb	r2, [r3, #0]
1000324a:	e7e5      	b.n	10003218 <setup_clock_variables+0x4ac>
1000324c:	2cff      	cmp	r4, #255	; 0xff
1000324e:	d00b      	beq.n	10003268 <setup_clock_variables+0x4fc>
10003250:	4a56      	ldr	r2, [pc, #344]	; (100033ac <setup_clock_variables+0x640>)
10003252:	7813      	ldrb	r3, [r2, #0]
10003254:	3b01      	subs	r3, #1
10003256:	b2db      	uxtb	r3, r3
10003258:	7013      	strb	r3, [r2, #0]
1000325a:	2bff      	cmp	r3, #255	; 0xff
1000325c:	d000      	beq.n	10003260 <setup_clock_variables+0x4f4>
1000325e:	e5e3      	b.n	10002e28 <setup_clock_variables+0xbc>
10003260:	0013      	movs	r3, r2
10003262:	2217      	movs	r2, #23
10003264:	701a      	strb	r2, [r3, #0]
10003266:	e5df      	b.n	10002e28 <setup_clock_variables+0xbc>
10003268:	4a50      	ldr	r2, [pc, #320]	; (100033ac <setup_clock_variables+0x640>)
1000326a:	7813      	ldrb	r3, [r2, #0]
1000326c:	3301      	adds	r3, #1
1000326e:	b2db      	uxtb	r3, r3
10003270:	7013      	strb	r3, [r2, #0]
10003272:	2b18      	cmp	r3, #24
10003274:	d000      	beq.n	10003278 <setup_clock_variables+0x50c>
10003276:	e5d7      	b.n	10002e28 <setup_clock_variables+0xbc>
10003278:	0013      	movs	r3, r2
1000327a:	2200      	movs	r2, #0
1000327c:	701a      	strb	r2, [r3, #0]
1000327e:	e5d3      	b.n	10002e28 <setup_clock_variables+0xbc>
10003280:	2cff      	cmp	r4, #255	; 0xff
10003282:	d00b      	beq.n	1000329c <setup_clock_variables+0x530>
10003284:	4a4a      	ldr	r2, [pc, #296]	; (100033b0 <setup_clock_variables+0x644>)
10003286:	7813      	ldrb	r3, [r2, #0]
10003288:	3b01      	subs	r3, #1
1000328a:	b2db      	uxtb	r3, r3
1000328c:	7013      	strb	r3, [r2, #0]
1000328e:	2bff      	cmp	r3, #255	; 0xff
10003290:	d000      	beq.n	10003294 <setup_clock_variables+0x528>
10003292:	e5d0      	b.n	10002e36 <setup_clock_variables+0xca>
10003294:	0013      	movs	r3, r2
10003296:	2217      	movs	r2, #23
10003298:	701a      	strb	r2, [r3, #0]
1000329a:	e5cc      	b.n	10002e36 <setup_clock_variables+0xca>
1000329c:	4a44      	ldr	r2, [pc, #272]	; (100033b0 <setup_clock_variables+0x644>)
1000329e:	7813      	ldrb	r3, [r2, #0]
100032a0:	3301      	adds	r3, #1
100032a2:	b2db      	uxtb	r3, r3
100032a4:	7013      	strb	r3, [r2, #0]
100032a6:	2b18      	cmp	r3, #24
100032a8:	d000      	beq.n	100032ac <setup_clock_variables+0x540>
100032aa:	e5c4      	b.n	10002e36 <setup_clock_variables+0xca>
100032ac:	0013      	movs	r3, r2
100032ae:	2200      	movs	r2, #0
100032b0:	701a      	strb	r2, [r3, #0]
100032b2:	e5c0      	b.n	10002e36 <setup_clock_variables+0xca>
100032b4:	2cff      	cmp	r4, #255	; 0xff
100032b6:	d00e      	beq.n	100032d6 <setup_clock_variables+0x56a>
100032b8:	2c00      	cmp	r4, #0
100032ba:	d000      	beq.n	100032be <setup_clock_variables+0x552>
100032bc:	e5c2      	b.n	10002e44 <setup_clock_variables+0xd8>
100032be:	4a3d      	ldr	r2, [pc, #244]	; (100033b4 <setup_clock_variables+0x648>)
100032c0:	7813      	ldrb	r3, [r2, #0]
100032c2:	3b01      	subs	r3, #1
100032c4:	b2db      	uxtb	r3, r3
100032c6:	7013      	strb	r3, [r2, #0]
100032c8:	2bff      	cmp	r3, #255	; 0xff
100032ca:	d000      	beq.n	100032ce <setup_clock_variables+0x562>
100032cc:	e5ba      	b.n	10002e44 <setup_clock_variables+0xd8>
100032ce:	0013      	movs	r3, r2
100032d0:	2203      	movs	r2, #3
100032d2:	701a      	strb	r2, [r3, #0]
100032d4:	e5b6      	b.n	10002e44 <setup_clock_variables+0xd8>
100032d6:	4a37      	ldr	r2, [pc, #220]	; (100033b4 <setup_clock_variables+0x648>)
100032d8:	7813      	ldrb	r3, [r2, #0]
100032da:	3301      	adds	r3, #1
100032dc:	b2db      	uxtb	r3, r3
100032de:	7013      	strb	r3, [r2, #0]
100032e0:	2b03      	cmp	r3, #3
100032e2:	d9e9      	bls.n	100032b8 <setup_clock_variables+0x54c>
100032e4:	0013      	movs	r3, r2
100032e6:	2200      	movs	r2, #0
100032e8:	701a      	strb	r2, [r3, #0]
100032ea:	e7e5      	b.n	100032b8 <setup_clock_variables+0x54c>
100032ec:	2cff      	cmp	r4, #255	; 0xff
100032ee:	d00b      	beq.n	10003308 <setup_clock_variables+0x59c>
100032f0:	4a31      	ldr	r2, [pc, #196]	; (100033b8 <setup_clock_variables+0x64c>)
100032f2:	7813      	ldrb	r3, [r2, #0]
100032f4:	3b01      	subs	r3, #1
100032f6:	b2db      	uxtb	r3, r3
100032f8:	7013      	strb	r3, [r2, #0]
100032fa:	2bff      	cmp	r3, #255	; 0xff
100032fc:	d000      	beq.n	10003300 <setup_clock_variables+0x594>
100032fe:	e5a8      	b.n	10002e52 <setup_clock_variables+0xe6>
10003300:	0013      	movs	r3, r2
10003302:	2217      	movs	r2, #23
10003304:	701a      	strb	r2, [r3, #0]
10003306:	e5a4      	b.n	10002e52 <setup_clock_variables+0xe6>
10003308:	4a2b      	ldr	r2, [pc, #172]	; (100033b8 <setup_clock_variables+0x64c>)
1000330a:	7813      	ldrb	r3, [r2, #0]
1000330c:	3301      	adds	r3, #1
1000330e:	b2db      	uxtb	r3, r3
10003310:	7013      	strb	r3, [r2, #0]
10003312:	2b18      	cmp	r3, #24
10003314:	d000      	beq.n	10003318 <setup_clock_variables+0x5ac>
10003316:	e59c      	b.n	10002e52 <setup_clock_variables+0xe6>
10003318:	0013      	movs	r3, r2
1000331a:	2200      	movs	r2, #0
1000331c:	701a      	strb	r2, [r3, #0]
1000331e:	e598      	b.n	10002e52 <setup_clock_variables+0xe6>
10003320:	2cff      	cmp	r4, #255	; 0xff
10003322:	d00b      	beq.n	1000333c <setup_clock_variables+0x5d0>
10003324:	4a25      	ldr	r2, [pc, #148]	; (100033bc <setup_clock_variables+0x650>)
10003326:	7813      	ldrb	r3, [r2, #0]
10003328:	3b01      	subs	r3, #1
1000332a:	b2db      	uxtb	r3, r3
1000332c:	7013      	strb	r3, [r2, #0]
1000332e:	2bff      	cmp	r3, #255	; 0xff
10003330:	d000      	beq.n	10003334 <setup_clock_variables+0x5c8>
10003332:	e595      	b.n	10002e60 <setup_clock_variables+0xf4>
10003334:	0013      	movs	r3, r2
10003336:	2217      	movs	r2, #23
10003338:	701a      	strb	r2, [r3, #0]
1000333a:	e591      	b.n	10002e60 <setup_clock_variables+0xf4>
1000333c:	4a1f      	ldr	r2, [pc, #124]	; (100033bc <setup_clock_variables+0x650>)
1000333e:	7813      	ldrb	r3, [r2, #0]
10003340:	3301      	adds	r3, #1
10003342:	b2db      	uxtb	r3, r3
10003344:	7013      	strb	r3, [r2, #0]
10003346:	2b18      	cmp	r3, #24
10003348:	d000      	beq.n	1000334c <setup_clock_variables+0x5e0>
1000334a:	e589      	b.n	10002e60 <setup_clock_variables+0xf4>
1000334c:	0013      	movs	r3, r2
1000334e:	2200      	movs	r2, #0
10003350:	701a      	strb	r2, [r3, #0]
10003352:	e585      	b.n	10002e60 <setup_clock_variables+0xf4>
10003354:	2000      	movs	r0, #0
10003356:	f7fd fa93 	bl	10000880 <clear_framebuffer>
1000335a:	4b19      	ldr	r3, [pc, #100]	; (100033c0 <setup_clock_variables+0x654>)
1000335c:	781b      	ldrb	r3, [r3, #0]
1000335e:	2bff      	cmp	r3, #255	; 0xff
10003360:	d008      	beq.n	10003374 <setup_clock_variables+0x608>
10003362:	4b17      	ldr	r3, [pc, #92]	; (100033c0 <setup_clock_variables+0x654>)
10003364:	22ff      	movs	r2, #255	; 0xff
10003366:	701a      	strb	r2, [r3, #0]
10003368:	4a08      	ldr	r2, [pc, #32]	; (1000338c <setup_clock_variables+0x620>)
1000336a:	79d3      	ldrb	r3, [r2, #7]
1000336c:	2103      	movs	r1, #3
1000336e:	430b      	orrs	r3, r1
10003370:	71d3      	strb	r3, [r2, #7]
10003372:	e57c      	b.n	10002e6e <setup_clock_variables+0x102>
10003374:	4b12      	ldr	r3, [pc, #72]	; (100033c0 <setup_clock_variables+0x654>)
10003376:	2200      	movs	r2, #0
10003378:	701a      	strb	r2, [r3, #0]
1000337a:	4a04      	ldr	r2, [pc, #16]	; (1000338c <setup_clock_variables+0x620>)
1000337c:	79d3      	ldrb	r3, [r2, #7]
1000337e:	2103      	movs	r1, #3
10003380:	438b      	bics	r3, r1
10003382:	71d3      	strb	r3, [r2, #7]
10003384:	e573      	b.n	10002e6e <setup_clock_variables+0x102>
10003386:	46c0      	nop			; (mov r8, r8)
10003388:	20000770 	.word	0x20000770
1000338c:	2000195c 	.word	0x2000195c
10003390:	20000771 	.word	0x20000771
10003394:	20000936 	.word	0x20000936
10003398:	2000092f 	.word	0x2000092f
1000339c:	200009dc 	.word	0x200009dc
100033a0:	20002b46 	.word	0x20002b46
100033a4:	20002b45 	.word	0x20002b45
100033a8:	20002b5d 	.word	0x20002b5d
100033ac:	20000662 	.word	0x20000662
100033b0:	20000660 	.word	0x20000660
100033b4:	20002b60 	.word	0x20002b60
100033b8:	2000092b 	.word	0x2000092b
100033bc:	2000092a 	.word	0x2000092a
100033c0:	20000758 	.word	0x20000758

100033c4 <setup_timer_frame>:
100033c4:	b570      	push	{r4, r5, r6, lr}
100033c6:	4be2      	ldr	r3, [pc, #904]	; (10003750 <setup_timer_frame+0x38c>)
100033c8:	2207      	movs	r2, #7
100033ca:	701a      	strb	r2, [r3, #0]
100033cc:	4be1      	ldr	r3, [pc, #900]	; (10003754 <setup_timer_frame+0x390>)
100033ce:	781b      	ldrb	r3, [r3, #0]
100033d0:	2b01      	cmp	r3, #1
100033d2:	d023      	beq.n	1000341c <setup_timer_frame+0x58>
100033d4:	2b02      	cmp	r3, #2
100033d6:	d100      	bne.n	100033da <setup_timer_frame+0x16>
100033d8:	e083      	b.n	100034e2 <setup_timer_frame+0x11e>
100033da:	2b03      	cmp	r3, #3
100033dc:	d07c      	beq.n	100034d8 <setup_timer_frame+0x114>
100033de:	2b04      	cmp	r3, #4
100033e0:	d100      	bne.n	100033e4 <setup_timer_frame+0x20>
100033e2:	e167      	b.n	100036b4 <setup_timer_frame+0x2f0>
100033e4:	4bdc      	ldr	r3, [pc, #880]	; (10003758 <setup_timer_frame+0x394>)
100033e6:	781b      	ldrb	r3, [r3, #0]
100033e8:	2b02      	cmp	r3, #2
100033ea:	d100      	bne.n	100033ee <setup_timer_frame+0x2a>
100033ec:	e1a2      	b.n	10003734 <setup_timer_frame+0x370>
100033ee:	2200      	movs	r2, #0
100033f0:	4bda      	ldr	r3, [pc, #872]	; (1000375c <setup_timer_frame+0x398>)
100033f2:	701a      	strb	r2, [r3, #0]
100033f4:	4bda      	ldr	r3, [pc, #872]	; (10003760 <setup_timer_frame+0x39c>)
100033f6:	701a      	strb	r2, [r3, #0]
100033f8:	4bda      	ldr	r3, [pc, #872]	; (10003764 <setup_timer_frame+0x3a0>)
100033fa:	701a      	strb	r2, [r3, #0]
100033fc:	4bda      	ldr	r3, [pc, #872]	; (10003768 <setup_timer_frame+0x3a4>)
100033fe:	781b      	ldrb	r3, [r3, #0]
10003400:	49d4      	ldr	r1, [pc, #848]	; (10003754 <setup_timer_frame+0x390>)
10003402:	700b      	strb	r3, [r1, #0]
10003404:	49d9      	ldr	r1, [pc, #868]	; (1000376c <setup_timer_frame+0x3a8>)
10003406:	700a      	strb	r2, [r1, #0]
10003408:	49d9      	ldr	r1, [pc, #868]	; (10003770 <setup_timer_frame+0x3ac>)
1000340a:	700a      	strb	r2, [r1, #0]
1000340c:	49d9      	ldr	r1, [pc, #868]	; (10003774 <setup_timer_frame+0x3b0>)
1000340e:	700a      	strb	r2, [r1, #0]
10003410:	49d9      	ldr	r1, [pc, #868]	; (10003778 <setup_timer_frame+0x3b4>)
10003412:	700a      	strb	r2, [r1, #0]
10003414:	4ad9      	ldr	r2, [pc, #868]	; (1000377c <setup_timer_frame+0x3b8>)
10003416:	21ff      	movs	r1, #255	; 0xff
10003418:	7011      	strb	r1, [r2, #0]
1000341a:	e1ca      	b.n	100037b2 <setup_timer_frame+0x3ee>
1000341c:	2000      	movs	r0, #0
1000341e:	f7fd fa2f 	bl	10000880 <clear_framebuffer>
10003422:	4bd7      	ldr	r3, [pc, #860]	; (10003780 <setup_timer_frame+0x3bc>)
10003424:	22ff      	movs	r2, #255	; 0xff
10003426:	705a      	strb	r2, [r3, #1]
10003428:	2154      	movs	r1, #84	; 0x54
1000342a:	2002      	movs	r0, #2
1000342c:	f7fd fe26 	bl	1000107c <fill_display_buffer_5X7>
10003430:	214d      	movs	r1, #77	; 0x4d
10003432:	2008      	movs	r0, #8
10003434:	f7fd fe22 	bl	1000107c <fill_display_buffer_5X7>
10003438:	4bc7      	ldr	r3, [pc, #796]	; (10003758 <setup_timer_frame+0x394>)
1000343a:	781b      	ldrb	r3, [r3, #0]
1000343c:	2b02      	cmp	r3, #2
1000343e:	d007      	beq.n	10003450 <setup_timer_frame+0x8c>
10003440:	2b01      	cmp	r3, #1
10003442:	d01c      	beq.n	1000347e <setup_timer_frame+0xba>
10003444:	2b00      	cmp	r3, #0
10003446:	d031      	beq.n	100034ac <setup_timer_frame+0xe8>
10003448:	201a      	movs	r0, #26
1000344a:	f7fd fa19 	bl	10000880 <clear_framebuffer>
1000344e:	e1b2      	b.n	100037b6 <setup_timer_frame+0x3f2>
10003450:	4ccc      	ldr	r4, [pc, #816]	; (10003784 <setup_timer_frame+0x3c0>)
10003452:	7863      	ldrb	r3, [r4, #1]
10003454:	2155      	movs	r1, #85	; 0x55
10003456:	4019      	ands	r1, r3
10003458:	200d      	movs	r0, #13
1000345a:	f7fd f9ad 	bl	100007b8 <fill_display_buffer_4X7>
1000345e:	7863      	ldrb	r3, [r4, #1]
10003460:	2150      	movs	r1, #80	; 0x50
10003462:	4019      	ands	r1, r3
10003464:	2012      	movs	r0, #18
10003466:	f7fd f9a7 	bl	100007b8 <fill_display_buffer_4X7>
1000346a:	4bc7      	ldr	r3, [pc, #796]	; (10003788 <setup_timer_frame+0x3c4>)
1000346c:	795a      	ldrb	r2, [r3, #5]
1000346e:	2103      	movs	r1, #3
10003470:	430a      	orrs	r2, r1
10003472:	715a      	strb	r2, [r3, #5]
10003474:	789a      	ldrb	r2, [r3, #2]
10003476:	2103      	movs	r1, #3
10003478:	438a      	bics	r2, r1
1000347a:	709a      	strb	r2, [r3, #2]
1000347c:	e7e4      	b.n	10003448 <setup_timer_frame+0x84>
1000347e:	4cc1      	ldr	r4, [pc, #772]	; (10003784 <setup_timer_frame+0x3c0>)
10003480:	7863      	ldrb	r3, [r4, #1]
10003482:	2144      	movs	r1, #68	; 0x44
10003484:	4019      	ands	r1, r3
10003486:	200d      	movs	r0, #13
10003488:	f7fd f996 	bl	100007b8 <fill_display_buffer_4X7>
1000348c:	7863      	ldrb	r3, [r4, #1]
1000348e:	214e      	movs	r1, #78	; 0x4e
10003490:	4019      	ands	r1, r3
10003492:	2012      	movs	r0, #18
10003494:	f7fd f990 	bl	100007b8 <fill_display_buffer_4X7>
10003498:	4bbb      	ldr	r3, [pc, #748]	; (10003788 <setup_timer_frame+0x3c4>)
1000349a:	789a      	ldrb	r2, [r3, #2]
1000349c:	2103      	movs	r1, #3
1000349e:	430a      	orrs	r2, r1
100034a0:	709a      	strb	r2, [r3, #2]
100034a2:	795a      	ldrb	r2, [r3, #5]
100034a4:	2103      	movs	r1, #3
100034a6:	438a      	bics	r2, r1
100034a8:	715a      	strb	r2, [r3, #5]
100034aa:	e7cd      	b.n	10003448 <setup_timer_frame+0x84>
100034ac:	4cb5      	ldr	r4, [pc, #724]	; (10003784 <setup_timer_frame+0x3c0>)
100034ae:	7863      	ldrb	r3, [r4, #1]
100034b0:	2130      	movs	r1, #48	; 0x30
100034b2:	4019      	ands	r1, r3
100034b4:	200d      	movs	r0, #13
100034b6:	f7fd f97f 	bl	100007b8 <fill_display_buffer_4X7>
100034ba:	7863      	ldrb	r3, [r4, #1]
100034bc:	2146      	movs	r1, #70	; 0x46
100034be:	4019      	ands	r1, r3
100034c0:	2012      	movs	r0, #18
100034c2:	f7fd f979 	bl	100007b8 <fill_display_buffer_4X7>
100034c6:	4bb0      	ldr	r3, [pc, #704]	; (10003788 <setup_timer_frame+0x3c4>)
100034c8:	789a      	ldrb	r2, [r3, #2]
100034ca:	2103      	movs	r1, #3
100034cc:	438a      	bics	r2, r1
100034ce:	709a      	strb	r2, [r3, #2]
100034d0:	795a      	ldrb	r2, [r3, #5]
100034d2:	438a      	bics	r2, r1
100034d4:	715a      	strb	r2, [r3, #5]
100034d6:	e7b7      	b.n	10003448 <setup_timer_frame+0x84>
100034d8:	4a9f      	ldr	r2, [pc, #636]	; (10003758 <setup_timer_frame+0x394>)
100034da:	7812      	ldrb	r2, [r2, #0]
100034dc:	2a00      	cmp	r2, #0
100034de:	d100      	bne.n	100034e2 <setup_timer_frame+0x11e>
100034e0:	e77d      	b.n	100033de <setup_timer_frame+0x1a>
100034e2:	2b02      	cmp	r3, #2
100034e4:	d04c      	beq.n	10003580 <setup_timer_frame+0x1bc>
100034e6:	2b02      	cmp	r3, #2
100034e8:	d052      	beq.n	10003590 <setup_timer_frame+0x1cc>
100034ea:	4b9a      	ldr	r3, [pc, #616]	; (10003754 <setup_timer_frame+0x390>)
100034ec:	781b      	ldrb	r3, [r3, #0]
100034ee:	2b03      	cmp	r3, #3
100034f0:	d100      	bne.n	100034f4 <setup_timer_frame+0x130>
100034f2:	e08f      	b.n	10003614 <setup_timer_frame+0x250>
100034f4:	4b98      	ldr	r3, [pc, #608]	; (10003758 <setup_timer_frame+0x394>)
100034f6:	781b      	ldrb	r3, [r3, #0]
100034f8:	2b01      	cmp	r3, #1
100034fa:	d100      	bne.n	100034fe <setup_timer_frame+0x13a>
100034fc:	e096      	b.n	1000362c <setup_timer_frame+0x268>
100034fe:	4b96      	ldr	r3, [pc, #600]	; (10003758 <setup_timer_frame+0x394>)
10003500:	781b      	ldrb	r3, [r3, #0]
10003502:	2b02      	cmp	r3, #2
10003504:	d000      	beq.n	10003508 <setup_timer_frame+0x144>
10003506:	e156      	b.n	100037b6 <setup_timer_frame+0x3f2>
10003508:	4b92      	ldr	r3, [pc, #584]	; (10003754 <setup_timer_frame+0x390>)
1000350a:	781b      	ldrb	r3, [r3, #0]
1000350c:	2b03      	cmp	r3, #3
1000350e:	d000      	beq.n	10003512 <setup_timer_frame+0x14e>
10003510:	e151      	b.n	100037b6 <setup_timer_frame+0x3f2>
10003512:	4c9e      	ldr	r4, [pc, #632]	; (1000378c <setup_timer_frame+0x3c8>)
10003514:	7820      	ldrb	r0, [r4, #0]
10003516:	210a      	movs	r1, #10
10003518:	f004 fdbc 	bl	10008094 <__wrap___aeabi_uidiv>
1000351c:	0001      	movs	r1, r0
1000351e:	3130      	adds	r1, #48	; 0x30
10003520:	b2c9      	uxtb	r1, r1
10003522:	2000      	movs	r0, #0
10003524:	f7fd f948 	bl	100007b8 <fill_display_buffer_4X7>
10003528:	7820      	ldrb	r0, [r4, #0]
1000352a:	210a      	movs	r1, #10
1000352c:	f004 fdb2 	bl	10008094 <__wrap___aeabi_uidiv>
10003530:	3130      	adds	r1, #48	; 0x30
10003532:	b2c9      	uxtb	r1, r1
10003534:	2005      	movs	r0, #5
10003536:	f7fd f93f 	bl	100007b8 <fill_display_buffer_4X7>
1000353a:	213a      	movs	r1, #58	; 0x3a
1000353c:	200a      	movs	r0, #10
1000353e:	f7fd f93b 	bl	100007b8 <fill_display_buffer_4X7>
10003542:	4c93      	ldr	r4, [pc, #588]	; (10003790 <setup_timer_frame+0x3cc>)
10003544:	7820      	ldrb	r0, [r4, #0]
10003546:	210a      	movs	r1, #10
10003548:	f004 fda4 	bl	10008094 <__wrap___aeabi_uidiv>
1000354c:	0001      	movs	r1, r0
1000354e:	3130      	adds	r1, #48	; 0x30
10003550:	b2c9      	uxtb	r1, r1
10003552:	200c      	movs	r0, #12
10003554:	f7fd f930 	bl	100007b8 <fill_display_buffer_4X7>
10003558:	7820      	ldrb	r0, [r4, #0]
1000355a:	210a      	movs	r1, #10
1000355c:	f004 fd9a 	bl	10008094 <__wrap___aeabi_uidiv>
10003560:	3130      	adds	r1, #48	; 0x30
10003562:	b2c9      	uxtb	r1, r1
10003564:	2011      	movs	r0, #17
10003566:	f7fd f927 	bl	100007b8 <fill_display_buffer_4X7>
1000356a:	201a      	movs	r0, #26
1000356c:	f7fd f988 	bl	10000880 <clear_framebuffer>
10003570:	2300      	movs	r3, #0
10003572:	4a88      	ldr	r2, [pc, #544]	; (10003794 <setup_timer_frame+0x3d0>)
10003574:	7013      	strb	r3, [r2, #0]
10003576:	4a88      	ldr	r2, [pc, #544]	; (10003798 <setup_timer_frame+0x3d4>)
10003578:	7013      	strb	r3, [r2, #0]
1000357a:	4a88      	ldr	r2, [pc, #544]	; (1000379c <setup_timer_frame+0x3d8>)
1000357c:	7013      	strb	r3, [r2, #0]
1000357e:	e11a      	b.n	100037b6 <setup_timer_frame+0x3f2>
10003580:	4a75      	ldr	r2, [pc, #468]	; (10003758 <setup_timer_frame+0x394>)
10003582:	7812      	ldrb	r2, [r2, #0]
10003584:	2a01      	cmp	r2, #1
10003586:	d1ae      	bne.n	100034e6 <setup_timer_frame+0x122>
10003588:	4b7d      	ldr	r3, [pc, #500]	; (10003780 <setup_timer_frame+0x3bc>)
1000358a:	32fe      	adds	r2, #254	; 0xfe
1000358c:	709a      	strb	r2, [r3, #2]
1000358e:	e7ac      	b.n	100034ea <setup_timer_frame+0x126>
10003590:	4b71      	ldr	r3, [pc, #452]	; (10003758 <setup_timer_frame+0x394>)
10003592:	781b      	ldrb	r3, [r3, #0]
10003594:	2b02      	cmp	r3, #2
10003596:	d1a8      	bne.n	100034ea <setup_timer_frame+0x126>
10003598:	4b80      	ldr	r3, [pc, #512]	; (1000379c <setup_timer_frame+0x3d8>)
1000359a:	781b      	ldrb	r3, [r3, #0]
1000359c:	2b00      	cmp	r3, #0
1000359e:	d103      	bne.n	100035a8 <setup_timer_frame+0x1e4>
100035a0:	4a7a      	ldr	r2, [pc, #488]	; (1000378c <setup_timer_frame+0x3c8>)
100035a2:	7013      	strb	r3, [r2, #0]
100035a4:	4a7a      	ldr	r2, [pc, #488]	; (10003790 <setup_timer_frame+0x3cc>)
100035a6:	7013      	strb	r3, [r2, #0]
100035a8:	4b6c      	ldr	r3, [pc, #432]	; (1000375c <setup_timer_frame+0x398>)
100035aa:	2200      	movs	r2, #0
100035ac:	701a      	strb	r2, [r3, #0]
100035ae:	4b7b      	ldr	r3, [pc, #492]	; (1000379c <setup_timer_frame+0x3d8>)
100035b0:	32ff      	adds	r2, #255	; 0xff
100035b2:	701a      	strb	r2, [r3, #0]
100035b4:	4c75      	ldr	r4, [pc, #468]	; (1000378c <setup_timer_frame+0x3c8>)
100035b6:	7820      	ldrb	r0, [r4, #0]
100035b8:	210a      	movs	r1, #10
100035ba:	f004 fd6b 	bl	10008094 <__wrap___aeabi_uidiv>
100035be:	0001      	movs	r1, r0
100035c0:	3130      	adds	r1, #48	; 0x30
100035c2:	b2c9      	uxtb	r1, r1
100035c4:	2000      	movs	r0, #0
100035c6:	f7fd f8f7 	bl	100007b8 <fill_display_buffer_4X7>
100035ca:	7820      	ldrb	r0, [r4, #0]
100035cc:	210a      	movs	r1, #10
100035ce:	f004 fd61 	bl	10008094 <__wrap___aeabi_uidiv>
100035d2:	3130      	adds	r1, #48	; 0x30
100035d4:	b2c9      	uxtb	r1, r1
100035d6:	2005      	movs	r0, #5
100035d8:	f7fd f8ee 	bl	100007b8 <fill_display_buffer_4X7>
100035dc:	213a      	movs	r1, #58	; 0x3a
100035de:	200a      	movs	r0, #10
100035e0:	f7fd f8ea 	bl	100007b8 <fill_display_buffer_4X7>
100035e4:	4c6b      	ldr	r4, [pc, #428]	; (10003794 <setup_timer_frame+0x3d0>)
100035e6:	7820      	ldrb	r0, [r4, #0]
100035e8:	210a      	movs	r1, #10
100035ea:	f004 fd53 	bl	10008094 <__wrap___aeabi_uidiv>
100035ee:	0001      	movs	r1, r0
100035f0:	3130      	adds	r1, #48	; 0x30
100035f2:	b2c9      	uxtb	r1, r1
100035f4:	200c      	movs	r0, #12
100035f6:	f7fd f8df 	bl	100007b8 <fill_display_buffer_4X7>
100035fa:	7820      	ldrb	r0, [r4, #0]
100035fc:	210a      	movs	r1, #10
100035fe:	f004 fd49 	bl	10008094 <__wrap___aeabi_uidiv>
10003602:	3130      	adds	r1, #48	; 0x30
10003604:	b2c9      	uxtb	r1, r1
10003606:	2011      	movs	r0, #17
10003608:	f7fd f8d6 	bl	100007b8 <fill_display_buffer_4X7>
1000360c:	201a      	movs	r0, #26
1000360e:	f7fd f937 	bl	10000880 <clear_framebuffer>
10003612:	e76a      	b.n	100034ea <setup_timer_frame+0x126>
10003614:	4b50      	ldr	r3, [pc, #320]	; (10003758 <setup_timer_frame+0x394>)
10003616:	781b      	ldrb	r3, [r3, #0]
10003618:	2b01      	cmp	r3, #1
1000361a:	d000      	beq.n	1000361e <setup_timer_frame+0x25a>
1000361c:	e76a      	b.n	100034f4 <setup_timer_frame+0x130>
1000361e:	4b58      	ldr	r3, [pc, #352]	; (10003780 <setup_timer_frame+0x3bc>)
10003620:	22ff      	movs	r2, #255	; 0xff
10003622:	70da      	strb	r2, [r3, #3]
10003624:	4b5e      	ldr	r3, [pc, #376]	; (100037a0 <setup_timer_frame+0x3dc>)
10003626:	2200      	movs	r2, #0
10003628:	701a      	strb	r2, [r3, #0]
1000362a:	e763      	b.n	100034f4 <setup_timer_frame+0x130>
1000362c:	4c57      	ldr	r4, [pc, #348]	; (1000378c <setup_timer_frame+0x3c8>)
1000362e:	7820      	ldrb	r0, [r4, #0]
10003630:	210a      	movs	r1, #10
10003632:	f004 fd2f 	bl	10008094 <__wrap___aeabi_uidiv>
10003636:	0003      	movs	r3, r0
10003638:	3330      	adds	r3, #48	; 0x30
1000363a:	b25b      	sxtb	r3, r3
1000363c:	4d51      	ldr	r5, [pc, #324]	; (10003784 <setup_timer_frame+0x3c0>)
1000363e:	2102      	movs	r1, #2
10003640:	5669      	ldrsb	r1, [r5, r1]
10003642:	4019      	ands	r1, r3
10003644:	b2c9      	uxtb	r1, r1
10003646:	2000      	movs	r0, #0
10003648:	f7fd f8b6 	bl	100007b8 <fill_display_buffer_4X7>
1000364c:	7820      	ldrb	r0, [r4, #0]
1000364e:	210a      	movs	r1, #10
10003650:	f004 fd20 	bl	10008094 <__wrap___aeabi_uidiv>
10003654:	3130      	adds	r1, #48	; 0x30
10003656:	b24b      	sxtb	r3, r1
10003658:	2102      	movs	r1, #2
1000365a:	5669      	ldrsb	r1, [r5, r1]
1000365c:	4019      	ands	r1, r3
1000365e:	b2c9      	uxtb	r1, r1
10003660:	2005      	movs	r0, #5
10003662:	f7fd f8a9 	bl	100007b8 <fill_display_buffer_4X7>
10003666:	213a      	movs	r1, #58	; 0x3a
10003668:	200a      	movs	r0, #10
1000366a:	f7fd f8a5 	bl	100007b8 <fill_display_buffer_4X7>
1000366e:	4c48      	ldr	r4, [pc, #288]	; (10003790 <setup_timer_frame+0x3cc>)
10003670:	7820      	ldrb	r0, [r4, #0]
10003672:	210a      	movs	r1, #10
10003674:	f004 fd0e 	bl	10008094 <__wrap___aeabi_uidiv>
10003678:	0003      	movs	r3, r0
1000367a:	3330      	adds	r3, #48	; 0x30
1000367c:	b25b      	sxtb	r3, r3
1000367e:	2103      	movs	r1, #3
10003680:	5669      	ldrsb	r1, [r5, r1]
10003682:	4019      	ands	r1, r3
10003684:	b2c9      	uxtb	r1, r1
10003686:	200c      	movs	r0, #12
10003688:	f7fd f896 	bl	100007b8 <fill_display_buffer_4X7>
1000368c:	7820      	ldrb	r0, [r4, #0]
1000368e:	210a      	movs	r1, #10
10003690:	f004 fd00 	bl	10008094 <__wrap___aeabi_uidiv>
10003694:	3130      	adds	r1, #48	; 0x30
10003696:	b24b      	sxtb	r3, r1
10003698:	2103      	movs	r1, #3
1000369a:	5669      	ldrsb	r1, [r5, r1]
1000369c:	4019      	ands	r1, r3
1000369e:	b2c9      	uxtb	r1, r1
100036a0:	2011      	movs	r0, #17
100036a2:	f7fd f889 	bl	100007b8 <fill_display_buffer_4X7>
100036a6:	201a      	movs	r0, #26
100036a8:	f7fd f8ea 	bl	10000880 <clear_framebuffer>
100036ac:	7822      	ldrb	r2, [r4, #0]
100036ae:	4b39      	ldr	r3, [pc, #228]	; (10003794 <setup_timer_frame+0x3d0>)
100036b0:	701a      	strb	r2, [r3, #0]
100036b2:	e724      	b.n	100034fe <setup_timer_frame+0x13a>
100036b4:	4b28      	ldr	r3, [pc, #160]	; (10003758 <setup_timer_frame+0x394>)
100036b6:	781b      	ldrb	r3, [r3, #0]
100036b8:	2b01      	cmp	r3, #1
100036ba:	d000      	beq.n	100036be <setup_timer_frame+0x2fa>
100036bc:	e692      	b.n	100033e4 <setup_timer_frame+0x20>
100036be:	4b38      	ldr	r3, [pc, #224]	; (100037a0 <setup_timer_frame+0x3dc>)
100036c0:	781b      	ldrb	r3, [r3, #0]
100036c2:	2b00      	cmp	r3, #0
100036c4:	d000      	beq.n	100036c8 <setup_timer_frame+0x304>
100036c6:	e68d      	b.n	100033e4 <setup_timer_frame+0x20>
100036c8:	4b24      	ldr	r3, [pc, #144]	; (1000375c <setup_timer_frame+0x398>)
100036ca:	2200      	movs	r2, #0
100036cc:	701a      	strb	r2, [r3, #0]
100036ce:	4b35      	ldr	r3, [pc, #212]	; (100037a4 <setup_timer_frame+0x3e0>)
100036d0:	32ff      	adds	r2, #255	; 0xff
100036d2:	701a      	strb	r2, [r3, #0]
100036d4:	4c2d      	ldr	r4, [pc, #180]	; (1000378c <setup_timer_frame+0x3c8>)
100036d6:	7820      	ldrb	r0, [r4, #0]
100036d8:	210a      	movs	r1, #10
100036da:	f004 fcdb 	bl	10008094 <__wrap___aeabi_uidiv>
100036de:	0001      	movs	r1, r0
100036e0:	3130      	adds	r1, #48	; 0x30
100036e2:	b2c9      	uxtb	r1, r1
100036e4:	2000      	movs	r0, #0
100036e6:	f7fd f867 	bl	100007b8 <fill_display_buffer_4X7>
100036ea:	7820      	ldrb	r0, [r4, #0]
100036ec:	210a      	movs	r1, #10
100036ee:	f004 fcd1 	bl	10008094 <__wrap___aeabi_uidiv>
100036f2:	3130      	adds	r1, #48	; 0x30
100036f4:	b2c9      	uxtb	r1, r1
100036f6:	2005      	movs	r0, #5
100036f8:	f7fd f85e 	bl	100007b8 <fill_display_buffer_4X7>
100036fc:	213a      	movs	r1, #58	; 0x3a
100036fe:	200a      	movs	r0, #10
10003700:	f7fd f85a 	bl	100007b8 <fill_display_buffer_4X7>
10003704:	4c23      	ldr	r4, [pc, #140]	; (10003794 <setup_timer_frame+0x3d0>)
10003706:	7820      	ldrb	r0, [r4, #0]
10003708:	210a      	movs	r1, #10
1000370a:	f004 fcc3 	bl	10008094 <__wrap___aeabi_uidiv>
1000370e:	0001      	movs	r1, r0
10003710:	3130      	adds	r1, #48	; 0x30
10003712:	b2c9      	uxtb	r1, r1
10003714:	200c      	movs	r0, #12
10003716:	f7fd f84f 	bl	100007b8 <fill_display_buffer_4X7>
1000371a:	7820      	ldrb	r0, [r4, #0]
1000371c:	210a      	movs	r1, #10
1000371e:	f004 fcb9 	bl	10008094 <__wrap___aeabi_uidiv>
10003722:	3130      	adds	r1, #48	; 0x30
10003724:	b2c9      	uxtb	r1, r1
10003726:	2011      	movs	r0, #17
10003728:	f7fd f846 	bl	100007b8 <fill_display_buffer_4X7>
1000372c:	201a      	movs	r0, #26
1000372e:	f7fd f8a7 	bl	10000880 <clear_framebuffer>
10003732:	e040      	b.n	100037b6 <setup_timer_frame+0x3f2>
10003734:	2300      	movs	r3, #0
10003736:	4a08      	ldr	r2, [pc, #32]	; (10003758 <setup_timer_frame+0x394>)
10003738:	7013      	strb	r3, [r2, #0]
1000373a:	4a14      	ldr	r2, [pc, #80]	; (1000378c <setup_timer_frame+0x3c8>)
1000373c:	7013      	strb	r3, [r2, #0]
1000373e:	4a14      	ldr	r2, [pc, #80]	; (10003790 <setup_timer_frame+0x3cc>)
10003740:	7013      	strb	r3, [r2, #0]
10003742:	4a11      	ldr	r2, [pc, #68]	; (10003788 <setup_timer_frame+0x3c4>)
10003744:	7953      	ldrb	r3, [r2, #5]
10003746:	2103      	movs	r1, #3
10003748:	438b      	bics	r3, r1
1000374a:	7153      	strb	r3, [r2, #5]
1000374c:	e64f      	b.n	100033ee <setup_timer_frame+0x2a>
1000374e:	46c0      	nop			; (mov r8, r8)
10003750:	20002b43 	.word	0x20002b43
10003754:	20002b6c 	.word	0x20002b6c
10003758:	20002b6f 	.word	0x20002b6f
1000375c:	20002b5e 	.word	0x20002b5e
10003760:	20002b77 	.word	0x20002b77
10003764:	20002b68 	.word	0x20002b68
10003768:	20002b64 	.word	0x20002b64
1000376c:	20002b6b 	.word	0x20002b6b
10003770:	20002b55 	.word	0x20002b55
10003774:	20002b4f 	.word	0x20002b4f
10003778:	20002b5a 	.word	0x20002b5a
1000377c:	20002b5c 	.word	0x20002b5c
10003780:	20001a84 	.word	0x20001a84
10003784:	2000075c 	.word	0x2000075c
10003788:	2000195c 	.word	0x2000195c
1000378c:	20002b6e 	.word	0x20002b6e
10003790:	20002b70 	.word	0x20002b70
10003794:	20002b72 	.word	0x20002b72
10003798:	20002b71 	.word	0x20002b71
1000379c:	20002b57 	.word	0x20002b57
100037a0:	20002b59 	.word	0x20002b59
100037a4:	20002b56 	.word	0x20002b56
100037a8:	4a03      	ldr	r2, [pc, #12]	; (100037b8 <setup_timer_frame+0x3f4>)
100037aa:	2100      	movs	r1, #0
100037ac:	54d1      	strb	r1, [r2, r3]
100037ae:	3301      	adds	r3, #1
100037b0:	b2db      	uxtb	r3, r3
100037b2:	2b04      	cmp	r3, #4
100037b4:	d9f8      	bls.n	100037a8 <setup_timer_frame+0x3e4>
100037b6:	bd70      	pop	{r4, r5, r6, pc}
100037b8:	20001a84 	.word	0x20001a84

100037bc <setup_timer_variables>:
100037bc:	4b2d      	ldr	r3, [pc, #180]	; (10003874 <setup_timer_variables+0xb8>)
100037be:	785b      	ldrb	r3, [r3, #1]
100037c0:	2bff      	cmp	r3, #255	; 0xff
100037c2:	d006      	beq.n	100037d2 <setup_timer_variables+0x16>
100037c4:	4b2c      	ldr	r3, [pc, #176]	; (10003878 <setup_timer_variables+0xbc>)
100037c6:	781b      	ldrb	r3, [r3, #0]
100037c8:	2b01      	cmp	r3, #1
100037ca:	d01a      	beq.n	10003802 <setup_timer_variables+0x46>
100037cc:	2b01      	cmp	r3, #1
100037ce:	d034      	beq.n	1000383a <setup_timer_variables+0x7e>
100037d0:	4770      	bx	lr
100037d2:	28ff      	cmp	r0, #255	; 0xff
100037d4:	d00a      	beq.n	100037ec <setup_timer_variables+0x30>
100037d6:	4a28      	ldr	r2, [pc, #160]	; (10003878 <setup_timer_variables+0xbc>)
100037d8:	7813      	ldrb	r3, [r2, #0]
100037da:	3b01      	subs	r3, #1
100037dc:	b2db      	uxtb	r3, r3
100037de:	7013      	strb	r3, [r2, #0]
100037e0:	2bff      	cmp	r3, #255	; 0xff
100037e2:	d1ef      	bne.n	100037c4 <setup_timer_variables+0x8>
100037e4:	0013      	movs	r3, r2
100037e6:	2202      	movs	r2, #2
100037e8:	701a      	strb	r2, [r3, #0]
100037ea:	e7eb      	b.n	100037c4 <setup_timer_variables+0x8>
100037ec:	4a22      	ldr	r2, [pc, #136]	; (10003878 <setup_timer_variables+0xbc>)
100037ee:	7813      	ldrb	r3, [r2, #0]
100037f0:	3301      	adds	r3, #1
100037f2:	b2db      	uxtb	r3, r3
100037f4:	7013      	strb	r3, [r2, #0]
100037f6:	2b02      	cmp	r3, #2
100037f8:	d9e4      	bls.n	100037c4 <setup_timer_variables+0x8>
100037fa:	0013      	movs	r3, r2
100037fc:	2200      	movs	r2, #0
100037fe:	701a      	strb	r2, [r3, #0]
10003800:	e7e0      	b.n	100037c4 <setup_timer_variables+0x8>
10003802:	4a1c      	ldr	r2, [pc, #112]	; (10003874 <setup_timer_variables+0xb8>)
10003804:	7892      	ldrb	r2, [r2, #2]
10003806:	2aff      	cmp	r2, #255	; 0xff
10003808:	d1e0      	bne.n	100037cc <setup_timer_variables+0x10>
1000380a:	28ff      	cmp	r0, #255	; 0xff
1000380c:	d00a      	beq.n	10003824 <setup_timer_variables+0x68>
1000380e:	491b      	ldr	r1, [pc, #108]	; (1000387c <setup_timer_variables+0xc0>)
10003810:	780a      	ldrb	r2, [r1, #0]
10003812:	3a01      	subs	r2, #1
10003814:	b2d2      	uxtb	r2, r2
10003816:	700a      	strb	r2, [r1, #0]
10003818:	2aff      	cmp	r2, #255	; 0xff
1000381a:	d1d7      	bne.n	100037cc <setup_timer_variables+0x10>
1000381c:	000a      	movs	r2, r1
1000381e:	213b      	movs	r1, #59	; 0x3b
10003820:	7011      	strb	r1, [r2, #0]
10003822:	e7d3      	b.n	100037cc <setup_timer_variables+0x10>
10003824:	4915      	ldr	r1, [pc, #84]	; (1000387c <setup_timer_variables+0xc0>)
10003826:	780a      	ldrb	r2, [r1, #0]
10003828:	3201      	adds	r2, #1
1000382a:	b2d2      	uxtb	r2, r2
1000382c:	700a      	strb	r2, [r1, #0]
1000382e:	2a3c      	cmp	r2, #60	; 0x3c
10003830:	d1cc      	bne.n	100037cc <setup_timer_variables+0x10>
10003832:	000a      	movs	r2, r1
10003834:	2100      	movs	r1, #0
10003836:	7011      	strb	r1, [r2, #0]
10003838:	e7c8      	b.n	100037cc <setup_timer_variables+0x10>
1000383a:	4b0e      	ldr	r3, [pc, #56]	; (10003874 <setup_timer_variables+0xb8>)
1000383c:	78db      	ldrb	r3, [r3, #3]
1000383e:	2bff      	cmp	r3, #255	; 0xff
10003840:	d1c6      	bne.n	100037d0 <setup_timer_variables+0x14>
10003842:	28ff      	cmp	r0, #255	; 0xff
10003844:	d00a      	beq.n	1000385c <setup_timer_variables+0xa0>
10003846:	4a0e      	ldr	r2, [pc, #56]	; (10003880 <setup_timer_variables+0xc4>)
10003848:	7813      	ldrb	r3, [r2, #0]
1000384a:	3b01      	subs	r3, #1
1000384c:	b2db      	uxtb	r3, r3
1000384e:	7013      	strb	r3, [r2, #0]
10003850:	2bff      	cmp	r3, #255	; 0xff
10003852:	d1bd      	bne.n	100037d0 <setup_timer_variables+0x14>
10003854:	0013      	movs	r3, r2
10003856:	223b      	movs	r2, #59	; 0x3b
10003858:	701a      	strb	r2, [r3, #0]
1000385a:	e7b9      	b.n	100037d0 <setup_timer_variables+0x14>
1000385c:	4a08      	ldr	r2, [pc, #32]	; (10003880 <setup_timer_variables+0xc4>)
1000385e:	7813      	ldrb	r3, [r2, #0]
10003860:	3301      	adds	r3, #1
10003862:	b2db      	uxtb	r3, r3
10003864:	7013      	strb	r3, [r2, #0]
10003866:	2b3c      	cmp	r3, #60	; 0x3c
10003868:	d1b2      	bne.n	100037d0 <setup_timer_variables+0x14>
1000386a:	0013      	movs	r3, r2
1000386c:	2200      	movs	r2, #0
1000386e:	701a      	strb	r2, [r3, #0]
10003870:	e7ae      	b.n	100037d0 <setup_timer_variables+0x14>
10003872:	46c0      	nop			; (mov r8, r8)
10003874:	20001a84 	.word	0x20001a84
10003878:	20002b6f 	.word	0x20002b6f
1000387c:	20002b6e 	.word	0x20002b6e
10003880:	20002b70 	.word	0x20002b70

10003884 <timer_callback_ms>:
10003884:	b510      	push	{r4, lr}
10003886:	b084      	sub	sp, #16
10003888:	f7fd f89a 	bl	100009c0 <adc_show_count>
1000388c:	f7fc fdcc 	bl	10000428 <evaluate_sound_stop_time>
10003890:	f7fd ffca 	bl	10001828 <evaluate_blinking_time>
10003894:	f7fd fc9e 	bl	100011d4 <evaluate_scroll_time>
10003898:	23d0      	movs	r3, #208	; 0xd0
1000389a:	061b      	lsls	r3, r3, #24
1000389c:	685b      	ldr	r3, [r3, #4]
1000389e:	075b      	lsls	r3, r3, #29
100038a0:	d42b      	bmi.n	100038fa <timer_callback_ms+0x76>
100038a2:	4ac7      	ldr	r2, [pc, #796]	; (10003bc0 <timer_callback_ms+0x33c>)
100038a4:	8813      	ldrh	r3, [r2, #0]
100038a6:	3301      	adds	r3, #1
100038a8:	8013      	strh	r3, [r2, #0]
100038aa:	23d0      	movs	r3, #208	; 0xd0
100038ac:	061b      	lsls	r3, r3, #24
100038ae:	685b      	ldr	r3, [r3, #4]
100038b0:	039b      	lsls	r3, r3, #14
100038b2:	d500      	bpl.n	100038b6 <timer_callback_ms+0x32>
100038b4:	e07e      	b.n	100039b4 <timer_callback_ms+0x130>
100038b6:	4ac3      	ldr	r2, [pc, #780]	; (10003bc4 <timer_callback_ms+0x340>)
100038b8:	8813      	ldrh	r3, [r2, #0]
100038ba:	3301      	adds	r3, #1
100038bc:	8013      	strh	r3, [r2, #0]
100038be:	23d0      	movs	r3, #208	; 0xd0
100038c0:	061b      	lsls	r3, r3, #24
100038c2:	685b      	ldr	r3, [r3, #4]
100038c4:	041b      	lsls	r3, r3, #16
100038c6:	d500      	bpl.n	100038ca <timer_callback_ms+0x46>
100038c8:	e0de      	b.n	10003a88 <timer_callback_ms+0x204>
100038ca:	4abf      	ldr	r2, [pc, #764]	; (10003bc8 <timer_callback_ms+0x344>)
100038cc:	8813      	ldrh	r3, [r2, #0]
100038ce:	3301      	adds	r3, #1
100038d0:	8013      	strh	r3, [r2, #0]
100038d2:	4abe      	ldr	r2, [pc, #760]	; (10003bcc <timer_callback_ms+0x348>)
100038d4:	7813      	ldrb	r3, [r2, #0]
100038d6:	3301      	adds	r3, #1
100038d8:	b2db      	uxtb	r3, r3
100038da:	7013      	strb	r3, [r2, #0]
100038dc:	2b07      	cmp	r3, #7
100038de:	d902      	bls.n	100038e6 <timer_callback_ms+0x62>
100038e0:	0013      	movs	r3, r2
100038e2:	2200      	movs	r2, #0
100038e4:	701a      	strb	r2, [r3, #0]
100038e6:	48ba      	ldr	r0, [pc, #744]	; (10003bd0 <timer_callback_ms+0x34c>)
100038e8:	f002 fb86 	bl	10005ff8 <cancel_repeating_timer>
100038ec:	23d0      	movs	r3, #208	; 0xd0
100038ee:	061b      	lsls	r3, r3, #24
100038f0:	2280      	movs	r2, #128	; 0x80
100038f2:	0192      	lsls	r2, r2, #6
100038f4:	615a      	str	r2, [r3, #20]
100038f6:	2400      	movs	r4, #0
100038f8:	e134      	b.n	10003b64 <timer_callback_ms+0x2e0>
100038fa:	4bb1      	ldr	r3, [pc, #708]	; (10003bc0 <timer_callback_ms+0x33c>)
100038fc:	881a      	ldrh	r2, [r3, #0]
100038fe:	0013      	movs	r3, r2
10003900:	3b33      	subs	r3, #51	; 0x33
10003902:	b29b      	uxth	r3, r3
10003904:	2bf8      	cmp	r3, #248	; 0xf8
10003906:	d90d      	bls.n	10003924 <timer_callback_ms+0xa0>
10003908:	2396      	movs	r3, #150	; 0x96
1000390a:	005b      	lsls	r3, r3, #1
1000390c:	429a      	cmp	r2, r3
1000390e:	d905      	bls.n	1000391c <timer_callback_ms+0x98>
10003910:	4bb0      	ldr	r3, [pc, #704]	; (10003bd4 <timer_callback_ms+0x350>)
10003912:	781a      	ldrb	r2, [r3, #0]
10003914:	4bb0      	ldr	r3, [pc, #704]	; (10003bd8 <timer_callback_ms+0x354>)
10003916:	781b      	ldrb	r3, [r3, #0]
10003918:	429a      	cmp	r2, r3
1000391a:	d039      	beq.n	10003990 <timer_callback_ms+0x10c>
1000391c:	4ba8      	ldr	r3, [pc, #672]	; (10003bc0 <timer_callback_ms+0x33c>)
1000391e:	2200      	movs	r2, #0
10003920:	801a      	strh	r2, [r3, #0]
10003922:	e7c2      	b.n	100038aa <timer_callback_ms+0x26>
10003924:	4bad      	ldr	r3, [pc, #692]	; (10003bdc <timer_callback_ms+0x358>)
10003926:	2200      	movs	r2, #0
10003928:	701a      	strb	r2, [r3, #0]
1000392a:	f7fc fd61 	bl	100003f0 <evaluate_keyclick_start_time>
1000392e:	4bac      	ldr	r3, [pc, #688]	; (10003be0 <timer_callback_ms+0x35c>)
10003930:	781b      	ldrb	r3, [r3, #0]
10003932:	2b02      	cmp	r3, #2
10003934:	d018      	beq.n	10003968 <timer_callback_ms+0xe4>
10003936:	2b03      	cmp	r3, #3
10003938:	d020      	beq.n	1000397c <timer_callback_ms+0xf8>
1000393a:	2b01      	cmp	r3, #1
1000393c:	d00a      	beq.n	10003954 <timer_callback_ms+0xd0>
1000393e:	4ba9      	ldr	r3, [pc, #676]	; (10003be4 <timer_callback_ms+0x360>)
10003940:	22ff      	movs	r2, #255	; 0xff
10003942:	701a      	strb	r2, [r3, #0]
10003944:	4ba6      	ldr	r3, [pc, #664]	; (10003be0 <timer_callback_ms+0x35c>)
10003946:	3afd      	subs	r2, #253	; 0xfd
10003948:	701a      	strb	r2, [r3, #0]
1000394a:	4aa2      	ldr	r2, [pc, #648]	; (10003bd4 <timer_callback_ms+0x350>)
1000394c:	7813      	ldrb	r3, [r2, #0]
1000394e:	3301      	adds	r3, #1
10003950:	7013      	strb	r3, [r2, #0]
10003952:	e7e3      	b.n	1000391c <timer_callback_ms+0x98>
10003954:	f7fe f842 	bl	100019dc <set_mode_out>
10003958:	4ba3      	ldr	r3, [pc, #652]	; (10003be8 <timer_callback_ms+0x364>)
1000395a:	22ff      	movs	r2, #255	; 0xff
1000395c:	701a      	strb	r2, [r3, #0]
1000395e:	4a9d      	ldr	r2, [pc, #628]	; (10003bd4 <timer_callback_ms+0x350>)
10003960:	7813      	ldrb	r3, [r2, #0]
10003962:	3301      	adds	r3, #1
10003964:	7013      	strb	r3, [r2, #0]
10003966:	e7d9      	b.n	1000391c <timer_callback_ms+0x98>
10003968:	f7fe f838 	bl	100019dc <set_mode_out>
1000396c:	4b9d      	ldr	r3, [pc, #628]	; (10003be4 <timer_callback_ms+0x360>)
1000396e:	22ff      	movs	r2, #255	; 0xff
10003970:	701a      	strb	r2, [r3, #0]
10003972:	4a98      	ldr	r2, [pc, #608]	; (10003bd4 <timer_callback_ms+0x350>)
10003974:	7813      	ldrb	r3, [r2, #0]
10003976:	3301      	adds	r3, #1
10003978:	7013      	strb	r3, [r2, #0]
1000397a:	e7cf      	b.n	1000391c <timer_callback_ms+0x98>
1000397c:	f7fe f82e 	bl	100019dc <set_mode_out>
10003980:	4b9a      	ldr	r3, [pc, #616]	; (10003bec <timer_callback_ms+0x368>)
10003982:	22ff      	movs	r2, #255	; 0xff
10003984:	701a      	strb	r2, [r3, #0]
10003986:	4a93      	ldr	r2, [pc, #588]	; (10003bd4 <timer_callback_ms+0x350>)
10003988:	7813      	ldrb	r3, [r2, #0]
1000398a:	3301      	adds	r3, #1
1000398c:	7013      	strb	r3, [r2, #0]
1000398e:	e7c5      	b.n	1000391c <timer_callback_ms+0x98>
10003990:	4b92      	ldr	r3, [pc, #584]	; (10003bdc <timer_callback_ms+0x358>)
10003992:	2200      	movs	r2, #0
10003994:	701a      	strb	r2, [r3, #0]
10003996:	f7fc fd2b 	bl	100003f0 <evaluate_keyclick_start_time>
1000399a:	f7fe f81f 	bl	100019dc <set_mode_out>
1000399e:	4b92      	ldr	r3, [pc, #584]	; (10003be8 <timer_callback_ms+0x364>)
100039a0:	22ff      	movs	r2, #255	; 0xff
100039a2:	701a      	strb	r2, [r3, #0]
100039a4:	4b8e      	ldr	r3, [pc, #568]	; (10003be0 <timer_callback_ms+0x35c>)
100039a6:	3afe      	subs	r2, #254	; 0xfe
100039a8:	701a      	strb	r2, [r3, #0]
100039aa:	4a8a      	ldr	r2, [pc, #552]	; (10003bd4 <timer_callback_ms+0x350>)
100039ac:	7813      	ldrb	r3, [r2, #0]
100039ae:	3301      	adds	r3, #1
100039b0:	7013      	strb	r3, [r2, #0]
100039b2:	e7b3      	b.n	1000391c <timer_callback_ms+0x98>
100039b4:	4b83      	ldr	r3, [pc, #524]	; (10003bc4 <timer_callback_ms+0x340>)
100039b6:	881a      	ldrh	r2, [r3, #0]
100039b8:	0013      	movs	r3, r2
100039ba:	3b33      	subs	r3, #51	; 0x33
100039bc:	b29b      	uxth	r3, r3
100039be:	2bf8      	cmp	r3, #248	; 0xf8
100039c0:	d90d      	bls.n	100039de <timer_callback_ms+0x15a>
100039c2:	2396      	movs	r3, #150	; 0x96
100039c4:	005b      	lsls	r3, r3, #1
100039c6:	429a      	cmp	r2, r3
100039c8:	d905      	bls.n	100039d6 <timer_callback_ms+0x152>
100039ca:	4b82      	ldr	r3, [pc, #520]	; (10003bd4 <timer_callback_ms+0x350>)
100039cc:	781a      	ldrb	r2, [r3, #0]
100039ce:	4b82      	ldr	r3, [pc, #520]	; (10003bd8 <timer_callback_ms+0x354>)
100039d0:	781b      	ldrb	r3, [r3, #0]
100039d2:	429a      	cmp	r2, r3
100039d4:	d03c      	beq.n	10003a50 <timer_callback_ms+0x1cc>
100039d6:	4b7b      	ldr	r3, [pc, #492]	; (10003bc4 <timer_callback_ms+0x340>)
100039d8:	2200      	movs	r2, #0
100039da:	801a      	strh	r2, [r3, #0]
100039dc:	e76f      	b.n	100038be <timer_callback_ms+0x3a>
100039de:	4b7f      	ldr	r3, [pc, #508]	; (10003bdc <timer_callback_ms+0x358>)
100039e0:	2200      	movs	r2, #0
100039e2:	701a      	strb	r2, [r3, #0]
100039e4:	f7fc fd04 	bl	100003f0 <evaluate_keyclick_start_time>
100039e8:	4b7d      	ldr	r3, [pc, #500]	; (10003be0 <timer_callback_ms+0x35c>)
100039ea:	781b      	ldrb	r3, [r3, #0]
100039ec:	2b02      	cmp	r3, #2
100039ee:	d018      	beq.n	10003a22 <timer_callback_ms+0x19e>
100039f0:	2b03      	cmp	r3, #3
100039f2:	d01f      	beq.n	10003a34 <timer_callback_ms+0x1b0>
100039f4:	2b01      	cmp	r3, #1
100039f6:	d00b      	beq.n	10003a10 <timer_callback_ms+0x18c>
100039f8:	4b7d      	ldr	r3, [pc, #500]	; (10003bf0 <timer_callback_ms+0x36c>)
100039fa:	781b      	ldrb	r3, [r3, #0]
100039fc:	2224      	movs	r2, #36	; 0x24
100039fe:	421a      	tst	r2, r3
10003a00:	d021      	beq.n	10003a46 <timer_callback_ms+0x1c2>
10003a02:	4393      	bics	r3, r2
10003a04:	4a7a      	ldr	r2, [pc, #488]	; (10003bf0 <timer_callback_ms+0x36c>)
10003a06:	7013      	strb	r3, [r2, #0]
10003a08:	20f9      	movs	r0, #249	; 0xf9
10003a0a:	f7fd fc13 	bl	10001234 <scroll_queue>
10003a0e:	e7e2      	b.n	100039d6 <timer_callback_ms+0x152>
10003a10:	20ff      	movs	r0, #255	; 0xff
10003a12:	f7fe fa41 	bl	10001e98 <setup_alarm_variables>
10003a16:	f7fd ffe1 	bl	100019dc <set_mode_out>
10003a1a:	4b73      	ldr	r3, [pc, #460]	; (10003be8 <timer_callback_ms+0x364>)
10003a1c:	22ff      	movs	r2, #255	; 0xff
10003a1e:	701a      	strb	r2, [r3, #0]
10003a20:	e7d9      	b.n	100039d6 <timer_callback_ms+0x152>
10003a22:	20ff      	movs	r0, #255	; 0xff
10003a24:	f7ff f9a2 	bl	10002d6c <setup_clock_variables>
10003a28:	f7fd ffd8 	bl	100019dc <set_mode_out>
10003a2c:	4b6d      	ldr	r3, [pc, #436]	; (10003be4 <timer_callback_ms+0x360>)
10003a2e:	22ff      	movs	r2, #255	; 0xff
10003a30:	701a      	strb	r2, [r3, #0]
10003a32:	e7d0      	b.n	100039d6 <timer_callback_ms+0x152>
10003a34:	20ff      	movs	r0, #255	; 0xff
10003a36:	f7ff fec1 	bl	100037bc <setup_timer_variables>
10003a3a:	f7fd ffcf 	bl	100019dc <set_mode_out>
10003a3e:	4b6b      	ldr	r3, [pc, #428]	; (10003bec <timer_callback_ms+0x368>)
10003a40:	22ff      	movs	r2, #255	; 0xff
10003a42:	701a      	strb	r2, [r3, #0]
10003a44:	e7c7      	b.n	100039d6 <timer_callback_ms+0x152>
10003a46:	2224      	movs	r2, #36	; 0x24
10003a48:	4313      	orrs	r3, r2
10003a4a:	4a69      	ldr	r2, [pc, #420]	; (10003bf0 <timer_callback_ms+0x36c>)
10003a4c:	7013      	strb	r3, [r2, #0]
10003a4e:	e7db      	b.n	10003a08 <timer_callback_ms+0x184>
10003a50:	4b62      	ldr	r3, [pc, #392]	; (10003bdc <timer_callback_ms+0x358>)
10003a52:	2200      	movs	r2, #0
10003a54:	701a      	strb	r2, [r3, #0]
10003a56:	f7fc fccb 	bl	100003f0 <evaluate_keyclick_start_time>
10003a5a:	f7fd ffbf 	bl	100019dc <set_mode_out>
10003a5e:	4b60      	ldr	r3, [pc, #384]	; (10003be0 <timer_callback_ms+0x35c>)
10003a60:	781b      	ldrb	r3, [r3, #0]
10003a62:	3b01      	subs	r3, #1
10003a64:	2b02      	cmp	r3, #2
10003a66:	d9b6      	bls.n	100039d6 <timer_callback_ms+0x152>
10003a68:	4b5a      	ldr	r3, [pc, #360]	; (10003bd4 <timer_callback_ms+0x350>)
10003a6a:	781b      	ldrb	r3, [r3, #0]
10003a6c:	4a5a      	ldr	r2, [pc, #360]	; (10003bd8 <timer_callback_ms+0x354>)
10003a6e:	7812      	ldrb	r2, [r2, #0]
10003a70:	4293      	cmp	r3, r2
10003a72:	d1b0      	bne.n	100039d6 <timer_callback_ms+0x152>
10003a74:	4a5d      	ldr	r2, [pc, #372]	; (10003bec <timer_callback_ms+0x368>)
10003a76:	21ff      	movs	r1, #255	; 0xff
10003a78:	7011      	strb	r1, [r2, #0]
10003a7a:	4a59      	ldr	r2, [pc, #356]	; (10003be0 <timer_callback_ms+0x35c>)
10003a7c:	39fc      	subs	r1, #252	; 0xfc
10003a7e:	7011      	strb	r1, [r2, #0]
10003a80:	3301      	adds	r3, #1
10003a82:	4a54      	ldr	r2, [pc, #336]	; (10003bd4 <timer_callback_ms+0x350>)
10003a84:	7013      	strb	r3, [r2, #0]
10003a86:	e7a6      	b.n	100039d6 <timer_callback_ms+0x152>
10003a88:	4b4f      	ldr	r3, [pc, #316]	; (10003bc8 <timer_callback_ms+0x344>)
10003a8a:	881a      	ldrh	r2, [r3, #0]
10003a8c:	1e53      	subs	r3, r2, #1
10003a8e:	b29b      	uxth	r3, r3
10003a90:	2195      	movs	r1, #149	; 0x95
10003a92:	0049      	lsls	r1, r1, #1
10003a94:	428b      	cmp	r3, r1
10003a96:	d90d      	bls.n	10003ab4 <timer_callback_ms+0x230>
10003a98:	2396      	movs	r3, #150	; 0x96
10003a9a:	005b      	lsls	r3, r3, #1
10003a9c:	429a      	cmp	r2, r3
10003a9e:	d905      	bls.n	10003aac <timer_callback_ms+0x228>
10003aa0:	4b4c      	ldr	r3, [pc, #304]	; (10003bd4 <timer_callback_ms+0x350>)
10003aa2:	781a      	ldrb	r2, [r3, #0]
10003aa4:	4b4c      	ldr	r3, [pc, #304]	; (10003bd8 <timer_callback_ms+0x354>)
10003aa6:	781b      	ldrb	r3, [r3, #0]
10003aa8:	429a      	cmp	r2, r3
10003aaa:	d141      	bne.n	10003b30 <timer_callback_ms+0x2ac>
10003aac:	4b46      	ldr	r3, [pc, #280]	; (10003bc8 <timer_callback_ms+0x344>)
10003aae:	2200      	movs	r2, #0
10003ab0:	801a      	strh	r2, [r3, #0]
10003ab2:	e70e      	b.n	100038d2 <timer_callback_ms+0x4e>
10003ab4:	4b49      	ldr	r3, [pc, #292]	; (10003bdc <timer_callback_ms+0x358>)
10003ab6:	2200      	movs	r2, #0
10003ab8:	701a      	strb	r2, [r3, #0]
10003aba:	f7fc fc99 	bl	100003f0 <evaluate_keyclick_start_time>
10003abe:	4b48      	ldr	r3, [pc, #288]	; (10003be0 <timer_callback_ms+0x35c>)
10003ac0:	781b      	ldrb	r3, [r3, #0]
10003ac2:	2b02      	cmp	r3, #2
10003ac4:	d019      	beq.n	10003afa <timer_callback_ms+0x276>
10003ac6:	2b03      	cmp	r3, #3
10003ac8:	d020      	beq.n	10003b0c <timer_callback_ms+0x288>
10003aca:	2b01      	cmp	r3, #1
10003acc:	d00c      	beq.n	10003ae8 <timer_callback_ms+0x264>
10003ace:	4b49      	ldr	r3, [pc, #292]	; (10003bf4 <timer_callback_ms+0x370>)
10003ad0:	781b      	ldrb	r3, [r3, #0]
10003ad2:	2bff      	cmp	r3, #255	; 0xff
10003ad4:	d023      	beq.n	10003b1e <timer_callback_ms+0x29a>
10003ad6:	4b47      	ldr	r3, [pc, #284]	; (10003bf4 <timer_callback_ms+0x370>)
10003ad8:	22ff      	movs	r2, #255	; 0xff
10003ada:	701a      	strb	r2, [r3, #0]
10003adc:	4a44      	ldr	r2, [pc, #272]	; (10003bf0 <timer_callback_ms+0x36c>)
10003ade:	79d3      	ldrb	r3, [r2, #7]
10003ae0:	2103      	movs	r1, #3
10003ae2:	430b      	orrs	r3, r1
10003ae4:	71d3      	strb	r3, [r2, #7]
10003ae6:	e7e1      	b.n	10003aac <timer_callback_ms+0x228>
10003ae8:	2000      	movs	r0, #0
10003aea:	f7fe f9d5 	bl	10001e98 <setup_alarm_variables>
10003aee:	f7fd ff75 	bl	100019dc <set_mode_out>
10003af2:	4b3d      	ldr	r3, [pc, #244]	; (10003be8 <timer_callback_ms+0x364>)
10003af4:	22ff      	movs	r2, #255	; 0xff
10003af6:	701a      	strb	r2, [r3, #0]
10003af8:	e7d8      	b.n	10003aac <timer_callback_ms+0x228>
10003afa:	2000      	movs	r0, #0
10003afc:	f7ff f936 	bl	10002d6c <setup_clock_variables>
10003b00:	f7fd ff6c 	bl	100019dc <set_mode_out>
10003b04:	4b37      	ldr	r3, [pc, #220]	; (10003be4 <timer_callback_ms+0x360>)
10003b06:	22ff      	movs	r2, #255	; 0xff
10003b08:	701a      	strb	r2, [r3, #0]
10003b0a:	e7cf      	b.n	10003aac <timer_callback_ms+0x228>
10003b0c:	2000      	movs	r0, #0
10003b0e:	f7ff fe55 	bl	100037bc <setup_timer_variables>
10003b12:	f7fd ff63 	bl	100019dc <set_mode_out>
10003b16:	4b35      	ldr	r3, [pc, #212]	; (10003bec <timer_callback_ms+0x368>)
10003b18:	22ff      	movs	r2, #255	; 0xff
10003b1a:	701a      	strb	r2, [r3, #0]
10003b1c:	e7c6      	b.n	10003aac <timer_callback_ms+0x228>
10003b1e:	4b35      	ldr	r3, [pc, #212]	; (10003bf4 <timer_callback_ms+0x370>)
10003b20:	2200      	movs	r2, #0
10003b22:	701a      	strb	r2, [r3, #0]
10003b24:	4a32      	ldr	r2, [pc, #200]	; (10003bf0 <timer_callback_ms+0x36c>)
10003b26:	79d3      	ldrb	r3, [r2, #7]
10003b28:	2103      	movs	r1, #3
10003b2a:	438b      	bics	r3, r1
10003b2c:	71d3      	strb	r3, [r2, #7]
10003b2e:	e7bd      	b.n	10003aac <timer_callback_ms+0x228>
10003b30:	2400      	movs	r4, #0
10003b32:	4b2a      	ldr	r3, [pc, #168]	; (10003bdc <timer_callback_ms+0x358>)
10003b34:	701c      	strb	r4, [r3, #0]
10003b36:	f7fc fc5b 	bl	100003f0 <evaluate_keyclick_start_time>
10003b3a:	f7fe f823 	bl	10001b84 <set_mode_timeout>
10003b3e:	f7fd ff4d 	bl	100019dc <set_mode_out>
10003b42:	4b27      	ldr	r3, [pc, #156]	; (10003be0 <timer_callback_ms+0x35c>)
10003b44:	701c      	strb	r4, [r3, #0]
10003b46:	4b24      	ldr	r3, [pc, #144]	; (10003bd8 <timer_callback_ms+0x354>)
10003b48:	781a      	ldrb	r2, [r3, #0]
10003b4a:	4b22      	ldr	r3, [pc, #136]	; (10003bd4 <timer_callback_ms+0x350>)
10003b4c:	701a      	strb	r2, [r3, #0]
10003b4e:	e7ad      	b.n	10003aac <timer_callback_ms+0x228>
10003b50:	00e2      	lsls	r2, r4, #3
10003b52:	4b1e      	ldr	r3, [pc, #120]	; (10003bcc <timer_callback_ms+0x348>)
10003b54:	781b      	ldrb	r3, [r3, #0]
10003b56:	189b      	adds	r3, r3, r2
10003b58:	4a25      	ldr	r2, [pc, #148]	; (10003bf0 <timer_callback_ms+0x36c>)
10003b5a:	5cd0      	ldrb	r0, [r2, r3]
10003b5c:	f7fd ff22 	bl	100019a4 <send_data>
10003b60:	3401      	adds	r4, #1
10003b62:	b2e4      	uxtb	r4, r4
10003b64:	2c03      	cmp	r4, #3
10003b66:	d9f3      	bls.n	10003b50 <timer_callback_ms+0x2cc>
10003b68:	23d0      	movs	r3, #208	; 0xd0
10003b6a:	061b      	lsls	r3, r3, #24
10003b6c:	2280      	movs	r2, #128	; 0x80
10003b6e:	0152      	lsls	r2, r2, #5
10003b70:	615a      	str	r2, [r3, #20]
10003b72:	619a      	str	r2, [r3, #24]
10003b74:	4b15      	ldr	r3, [pc, #84]	; (10003bcc <timer_callback_ms+0x348>)
10003b76:	781b      	ldrb	r3, [r3, #0]
10003b78:	07da      	lsls	r2, r3, #31
10003b7a:	d53f      	bpl.n	10003bfc <timer_callback_ms+0x378>
10003b7c:	22d0      	movs	r2, #208	; 0xd0
10003b7e:	0612      	lsls	r2, r2, #24
10003b80:	2180      	movs	r1, #128	; 0x80
10003b82:	0249      	lsls	r1, r1, #9
10003b84:	6151      	str	r1, [r2, #20]
10003b86:	079a      	lsls	r2, r3, #30
10003b88:	d53e      	bpl.n	10003c08 <timer_callback_ms+0x384>
10003b8a:	22d0      	movs	r2, #208	; 0xd0
10003b8c:	0612      	lsls	r2, r2, #24
10003b8e:	2180      	movs	r1, #128	; 0x80
10003b90:	02c9      	lsls	r1, r1, #11
10003b92:	6151      	str	r1, [r2, #20]
10003b94:	075b      	lsls	r3, r3, #29
10003b96:	d53d      	bpl.n	10003c14 <timer_callback_ms+0x390>
10003b98:	23d0      	movs	r3, #208	; 0xd0
10003b9a:	061b      	lsls	r3, r3, #24
10003b9c:	2280      	movs	r2, #128	; 0x80
10003b9e:	03d2      	lsls	r2, r2, #15
10003ba0:	615a      	str	r2, [r3, #20]
10003ba2:	f002 f895 	bl	10005cd0 <alarm_pool_get_default>
10003ba6:	4b0a      	ldr	r3, [pc, #40]	; (10003bd0 <timer_callback_ms+0x34c>)
10003ba8:	9302      	str	r3, [sp, #8]
10003baa:	2300      	movs	r3, #0
10003bac:	9301      	str	r3, [sp, #4]
10003bae:	4b12      	ldr	r3, [pc, #72]	; (10003bf8 <timer_callback_ms+0x374>)
10003bb0:	9300      	str	r3, [sp, #0]
10003bb2:	2232      	movs	r2, #50	; 0x32
10003bb4:	2300      	movs	r3, #0
10003bb6:	f002 f9d1 	bl	10005f5c <alarm_pool_add_repeating_timer_us>
10003bba:	2001      	movs	r0, #1
10003bbc:	b004      	add	sp, #16
10003bbe:	bd10      	pop	{r4, pc}
10003bc0:	20002b3e 	.word	0x20002b3e
10003bc4:	20002b32 	.word	0x20002b32
10003bc8:	20002b2a 	.word	0x20002b2a
10003bcc:	20002b63 	.word	0x20002b63
10003bd0:	20000f10 	.word	0x20000f10
10003bd4:	20002b6c 	.word	0x20002b6c
10003bd8:	20002b64 	.word	0x20002b64
10003bdc:	20002b5e 	.word	0x20002b5e
10003be0:	20002b6b 	.word	0x20002b6b
10003be4:	20002b54 	.word	0x20002b54
10003be8:	20002b53 	.word	0x20002b53
10003bec:	20002b55 	.word	0x20002b55
10003bf0:	2000195c 	.word	0x2000195c
10003bf4:	20000758 	.word	0x20000758
10003bf8:	10000899 	.word	0x10000899
10003bfc:	22d0      	movs	r2, #208	; 0xd0
10003bfe:	0612      	lsls	r2, r2, #24
10003c00:	2180      	movs	r1, #128	; 0x80
10003c02:	0249      	lsls	r1, r1, #9
10003c04:	6191      	str	r1, [r2, #24]
10003c06:	e7be      	b.n	10003b86 <timer_callback_ms+0x302>
10003c08:	22d0      	movs	r2, #208	; 0xd0
10003c0a:	0612      	lsls	r2, r2, #24
10003c0c:	2180      	movs	r1, #128	; 0x80
10003c0e:	02c9      	lsls	r1, r1, #11
10003c10:	6191      	str	r1, [r2, #24]
10003c12:	e7bf      	b.n	10003b94 <timer_callback_ms+0x310>
10003c14:	23d0      	movs	r3, #208	; 0xd0
10003c16:	061b      	lsls	r3, r3, #24
10003c18:	2280      	movs	r2, #128	; 0x80
10003c1a:	03d2      	lsls	r2, r2, #15
10003c1c:	619a      	str	r2, [r3, #24]
10003c1e:	e7c0      	b.n	10003ba2 <timer_callback_ms+0x31e>

10003c20 <show_time>:
10003c20:	b570      	push	{r4, r5, r6, lr}
10003c22:	b084      	sub	sp, #16
10003c24:	4c60      	ldr	r4, [pc, #384]	; (10003da8 <show_time+0x188>)
10003c26:	4668      	mov	r0, sp
10003c28:	f001 f892 	bl	10004d50 <Read_RTC>
10003c2c:	2207      	movs	r2, #7
10003c2e:	4669      	mov	r1, sp
10003c30:	0020      	movs	r0, r4
10003c32:	f004 fe9f 	bl	10008974 <__wrap___aeabi_memcpy>
10003c36:	7822      	ldrb	r2, [r4, #0]
10003c38:	237f      	movs	r3, #127	; 0x7f
10003c3a:	401a      	ands	r2, r3
10003c3c:	7022      	strb	r2, [r4, #0]
10003c3e:	7862      	ldrb	r2, [r4, #1]
10003c40:	4013      	ands	r3, r2
10003c42:	7063      	strb	r3, [r4, #1]
10003c44:	78a0      	ldrb	r0, [r4, #2]
10003c46:	233f      	movs	r3, #63	; 0x3f
10003c48:	4018      	ands	r0, r3
10003c4a:	70a0      	strb	r0, [r4, #2]
10003c4c:	78e1      	ldrb	r1, [r4, #3]
10003c4e:	2207      	movs	r2, #7
10003c50:	400a      	ands	r2, r1
10003c52:	70e2      	strb	r2, [r4, #3]
10003c54:	7922      	ldrb	r2, [r4, #4]
10003c56:	4013      	ands	r3, r2
10003c58:	7123      	strb	r3, [r4, #4]
10003c5a:	7962      	ldrb	r2, [r4, #5]
10003c5c:	231f      	movs	r3, #31
10003c5e:	4013      	ands	r3, r2
10003c60:	7163      	strb	r3, [r4, #5]
10003c62:	f000 ffcf 	bl	10004c04 <bcd_to_byte>
10003c66:	4b51      	ldr	r3, [pc, #324]	; (10003dac <show_time+0x18c>)
10003c68:	7018      	strb	r0, [r3, #0]
10003c6a:	7860      	ldrb	r0, [r4, #1]
10003c6c:	f000 ffca 	bl	10004c04 <bcd_to_byte>
10003c70:	4b4f      	ldr	r3, [pc, #316]	; (10003db0 <show_time+0x190>)
10003c72:	7018      	strb	r0, [r3, #0]
10003c74:	7920      	ldrb	r0, [r4, #4]
10003c76:	f000 ffc5 	bl	10004c04 <bcd_to_byte>
10003c7a:	4b4e      	ldr	r3, [pc, #312]	; (10003db4 <show_time+0x194>)
10003c7c:	7018      	strb	r0, [r3, #0]
10003c7e:	7960      	ldrb	r0, [r4, #5]
10003c80:	f000 ffc0 	bl	10004c04 <bcd_to_byte>
10003c84:	4b4c      	ldr	r3, [pc, #304]	; (10003db8 <show_time+0x198>)
10003c86:	7018      	strb	r0, [r3, #0]
10003c88:	79a0      	ldrb	r0, [r4, #6]
10003c8a:	f000 ffbb 	bl	10004c04 <bcd_to_byte>
10003c8e:	4b4b      	ldr	r3, [pc, #300]	; (10003dbc <show_time+0x19c>)
10003c90:	7018      	strb	r0, [r3, #0]
10003c92:	4b4b      	ldr	r3, [pc, #300]	; (10003dc0 <show_time+0x1a0>)
10003c94:	781b      	ldrb	r3, [r3, #0]
10003c96:	2b00      	cmp	r3, #0
10003c98:	d00f      	beq.n	10003cba <show_time+0x9a>
10003c9a:	4b44      	ldr	r3, [pc, #272]	; (10003dac <show_time+0x18c>)
10003c9c:	781a      	ldrb	r2, [r3, #0]
10003c9e:	4b49      	ldr	r3, [pc, #292]	; (10003dc4 <show_time+0x1a4>)
10003ca0:	701a      	strb	r2, [r3, #0]
10003ca2:	4b47      	ldr	r3, [pc, #284]	; (10003dc0 <show_time+0x1a0>)
10003ca4:	781b      	ldrb	r3, [r3, #0]
10003ca6:	2b00      	cmp	r3, #0
10003ca8:	d131      	bne.n	10003d0e <show_time+0xee>
10003caa:	4b46      	ldr	r3, [pc, #280]	; (10003dc4 <show_time+0x1a4>)
10003cac:	781b      	ldrb	r3, [r3, #0]
10003cae:	2b09      	cmp	r3, #9
10003cb0:	d82d      	bhi.n	10003d0e <show_time+0xee>
10003cb2:	ab03      	add	r3, sp, #12
10003cb4:	2220      	movs	r2, #32
10003cb6:	701a      	strb	r2, [r3, #0]
10003cb8:	e031      	b.n	10003d1e <show_time+0xfe>
10003cba:	240b      	movs	r4, #11
10003cbc:	446c      	add	r4, sp
10003cbe:	4b3b      	ldr	r3, [pc, #236]	; (10003dac <show_time+0x18c>)
10003cc0:	7818      	ldrb	r0, [r3, #0]
10003cc2:	220a      	movs	r2, #10
10003cc4:	446a      	add	r2, sp
10003cc6:	0021      	movs	r1, r4
10003cc8:	f7fc fb3e 	bl	10000348 <convert_h24_to_h12>
10003ccc:	4b3d      	ldr	r3, [pc, #244]	; (10003dc4 <show_time+0x1a4>)
10003cce:	7018      	strb	r0, [r3, #0]
10003cd0:	7823      	ldrb	r3, [r4, #0]
10003cd2:	2bff      	cmp	r3, #255	; 0xff
10003cd4:	d00f      	beq.n	10003cf6 <show_time+0xd6>
10003cd6:	4a3c      	ldr	r2, [pc, #240]	; (10003dc8 <show_time+0x1a8>)
10003cd8:	7913      	ldrb	r3, [r2, #4]
10003cda:	2101      	movs	r1, #1
10003cdc:	438b      	bics	r3, r1
10003cde:	7113      	strb	r3, [r2, #4]
10003ce0:	230a      	movs	r3, #10
10003ce2:	446b      	add	r3, sp
10003ce4:	781b      	ldrb	r3, [r3, #0]
10003ce6:	2bff      	cmp	r3, #255	; 0xff
10003ce8:	d00b      	beq.n	10003d02 <show_time+0xe2>
10003cea:	4a37      	ldr	r2, [pc, #220]	; (10003dc8 <show_time+0x1a8>)
10003cec:	7913      	ldrb	r3, [r2, #4]
10003cee:	2102      	movs	r1, #2
10003cf0:	438b      	bics	r3, r1
10003cf2:	7113      	strb	r3, [r2, #4]
10003cf4:	e7d5      	b.n	10003ca2 <show_time+0x82>
10003cf6:	4a34      	ldr	r2, [pc, #208]	; (10003dc8 <show_time+0x1a8>)
10003cf8:	7913      	ldrb	r3, [r2, #4]
10003cfa:	2101      	movs	r1, #1
10003cfc:	430b      	orrs	r3, r1
10003cfe:	7113      	strb	r3, [r2, #4]
10003d00:	e7ee      	b.n	10003ce0 <show_time+0xc0>
10003d02:	4a31      	ldr	r2, [pc, #196]	; (10003dc8 <show_time+0x1a8>)
10003d04:	7913      	ldrb	r3, [r2, #4]
10003d06:	2102      	movs	r1, #2
10003d08:	430b      	orrs	r3, r1
10003d0a:	7113      	strb	r3, [r2, #4]
10003d0c:	e7c9      	b.n	10003ca2 <show_time+0x82>
10003d0e:	4b2d      	ldr	r3, [pc, #180]	; (10003dc4 <show_time+0x1a4>)
10003d10:	7818      	ldrb	r0, [r3, #0]
10003d12:	210a      	movs	r1, #10
10003d14:	f004 f9be 	bl	10008094 <__wrap___aeabi_uidiv>
10003d18:	3030      	adds	r0, #48	; 0x30
10003d1a:	ab03      	add	r3, sp, #12
10003d1c:	7018      	strb	r0, [r3, #0]
10003d1e:	4b29      	ldr	r3, [pc, #164]	; (10003dc4 <show_time+0x1a4>)
10003d20:	7818      	ldrb	r0, [r3, #0]
10003d22:	210a      	movs	r1, #10
10003d24:	f004 f9b6 	bl	10008094 <__wrap___aeabi_uidiv>
10003d28:	3130      	adds	r1, #48	; 0x30
10003d2a:	b2cd      	uxtb	r5, r1
10003d2c:	ab03      	add	r3, sp, #12
10003d2e:	705d      	strb	r5, [r3, #1]
10003d30:	4a1d      	ldr	r2, [pc, #116]	; (10003da8 <show_time+0x188>)
10003d32:	7851      	ldrb	r1, [r2, #1]
10003d34:	090e      	lsrs	r6, r1, #4
10003d36:	3630      	adds	r6, #48	; 0x30
10003d38:	709e      	strb	r6, [r3, #2]
10003d3a:	240f      	movs	r4, #15
10003d3c:	400c      	ands	r4, r1
10003d3e:	3430      	adds	r4, #48	; 0x30
10003d40:	70dc      	strb	r4, [r3, #3]
10003d42:	7810      	ldrb	r0, [r2, #0]
10003d44:	f004 fd8a 	bl	1000885c <__wrap___aeabi_ui2f>
10003d48:	f004 fdb6 	bl	100088b8 <__wrap___aeabi_f2d>
10003d4c:	2200      	movs	r2, #0
10003d4e:	4b1f      	ldr	r3, [pc, #124]	; (10003dcc <show_time+0x1ac>)
10003d50:	f004 fbed 	bl	1000852e <__wrap___aeabi_ddiv>
10003d54:	f004 fcae 	bl	100086b4 <__wrap___aeabi_d2uiz>
10003d58:	4b1d      	ldr	r3, [pc, #116]	; (10003dd0 <show_time+0x1b0>)
10003d5a:	7018      	strb	r0, [r3, #0]
10003d5c:	4b1d      	ldr	r3, [pc, #116]	; (10003dd4 <show_time+0x1b4>)
10003d5e:	781b      	ldrb	r3, [r3, #0]
10003d60:	2b00      	cmp	r3, #0
10003d62:	d007      	beq.n	10003d74 <show_time+0x154>
10003d64:	4b10      	ldr	r3, [pc, #64]	; (10003da8 <show_time+0x188>)
10003d66:	78d8      	ldrb	r0, [r3, #3]
10003d68:	3801      	subs	r0, #1
10003d6a:	b2c0      	uxtb	r0, r0
10003d6c:	f7fd fc64 	bl	10001638 <select_weekday>
10003d70:	b004      	add	sp, #16
10003d72:	bd70      	pop	{r4, r5, r6, pc}
10003d74:	4b18      	ldr	r3, [pc, #96]	; (10003dd8 <show_time+0x1b8>)
10003d76:	2204      	movs	r2, #4
10003d78:	701a      	strb	r2, [r3, #0]
10003d7a:	ab03      	add	r3, sp, #12
10003d7c:	7819      	ldrb	r1, [r3, #0]
10003d7e:	2000      	movs	r0, #0
10003d80:	f7fc fd1a 	bl	100007b8 <fill_display_buffer_4X7>
10003d84:	0029      	movs	r1, r5
10003d86:	2005      	movs	r0, #5
10003d88:	f7fc fd16 	bl	100007b8 <fill_display_buffer_4X7>
10003d8c:	213a      	movs	r1, #58	; 0x3a
10003d8e:	200a      	movs	r0, #10
10003d90:	f7fc fd12 	bl	100007b8 <fill_display_buffer_4X7>
10003d94:	0031      	movs	r1, r6
10003d96:	200c      	movs	r0, #12
10003d98:	f7fc fd0e 	bl	100007b8 <fill_display_buffer_4X7>
10003d9c:	0021      	movs	r1, r4
10003d9e:	2011      	movs	r0, #17
10003da0:	f7fc fd0a 	bl	100007b8 <fill_display_buffer_4X7>
10003da4:	e7de      	b.n	10003d64 <show_time+0x144>
10003da6:	46c0      	nop			; (mov r8, r8)
10003da8:	20002768 	.word	0x20002768
10003dac:	20002b46 	.word	0x20002b46
10003db0:	20002b47 	.word	0x20002b47
10003db4:	20002b44 	.word	0x20002b44
10003db8:	20002b49 	.word	0x20002b49
10003dbc:	20002b4a 	.word	0x20002b4a
10003dc0:	200009dc 	.word	0x200009dc
10003dc4:	20002b45 	.word	0x20002b45
10003dc8:	2000195c 	.word	0x2000195c
10003dcc:	3ff80000 	.word	0x3ff80000
10003dd0:	20002b6a 	.word	0x20002b6a
10003dd4:	20002b52 	.word	0x20002b52
10003dd8:	20002b43 	.word	0x20002b43

10003ddc <uart_send>:
10003ddc:	b530      	push	{r4, r5, lr}
10003dde:	b0a5      	sub	sp, #148	; 0x94
10003de0:	000d      	movs	r5, r1
10003de2:	0014      	movs	r4, r2
10003de4:	4937      	ldr	r1, [pc, #220]	; (10003ec4 <uart_send+0xe8>)
10003de6:	0010      	movs	r0, r2
10003de8:	f005 f9d8 	bl	1000919c <strcmp>
10003dec:	2800      	cmp	r0, #0
10003dee:	d107      	bne.n	10003e00 <uart_send+0x24>
10003df0:	231b      	movs	r3, #27
10003df2:	7023      	strb	r3, [r4, #0]
10003df4:	3340      	adds	r3, #64	; 0x40
10003df6:	7063      	strb	r3, [r4, #1]
10003df8:	3b13      	subs	r3, #19
10003dfa:	70a3      	strb	r3, [r4, #2]
10003dfc:	2300      	movs	r3, #0
10003dfe:	70e3      	strb	r3, [r4, #3]
10003e00:	4931      	ldr	r1, [pc, #196]	; (10003ec8 <uart_send+0xec>)
10003e02:	0020      	movs	r0, r4
10003e04:	f005 f9ca 	bl	1000919c <strcmp>
10003e08:	2800      	cmp	r0, #0
10003e0a:	d109      	bne.n	10003e20 <uart_send+0x44>
10003e0c:	231b      	movs	r3, #27
10003e0e:	7023      	strb	r3, [r4, #0]
10003e10:	3340      	adds	r3, #64	; 0x40
10003e12:	7063      	strb	r3, [r4, #1]
10003e14:	3b29      	subs	r3, #41	; 0x29
10003e16:	70a3      	strb	r3, [r4, #2]
10003e18:	3318      	adds	r3, #24
10003e1a:	70e3      	strb	r3, [r4, #3]
10003e1c:	2300      	movs	r3, #0
10003e1e:	7123      	strb	r3, [r4, #4]
10003e20:	7823      	ldrb	r3, [r4, #0]
10003e22:	2b2d      	cmp	r3, #45	; 0x2d
10003e24:	d003      	beq.n	10003e2e <uart_send+0x52>
10003e26:	2b0d      	cmp	r3, #13
10003e28:	d001      	beq.n	10003e2e <uart_send+0x52>
10003e2a:	2b1b      	cmp	r3, #27
10003e2c:	d101      	bne.n	10003e32 <uart_send+0x56>
10003e2e:	2500      	movs	r5, #0
10003e30:	e03f      	b.n	10003eb2 <uart_send+0xd6>
10003e32:	002a      	movs	r2, r5
10003e34:	4925      	ldr	r1, [pc, #148]	; (10003ecc <uart_send+0xf0>)
10003e36:	a820      	add	r0, sp, #128	; 0x80
10003e38:	f004 f8ac 	bl	10007f94 <__wrap_sprintf>
10003e3c:	2500      	movs	r5, #0
10003e3e:	e00b      	b.n	10003e58 <uart_send+0x7c>
10003e40:	4b23      	ldr	r3, [pc, #140]	; (10003ed0 <uart_send+0xf4>)
10003e42:	699b      	ldr	r3, [r3, #24]
10003e44:	069b      	lsls	r3, r3, #26
10003e46:	d4fb      	bmi.n	10003e40 <uart_send+0x64>
10003e48:	7810      	ldrb	r0, [r2, #0]
10003e4a:	4b21      	ldr	r3, [pc, #132]	; (10003ed0 <uart_send+0xf4>)
10003e4c:	6018      	str	r0, [r3, #0]
10003e4e:	3101      	adds	r1, #1
10003e50:	3201      	adds	r2, #1
10003e52:	2900      	cmp	r1, #0
10003e54:	d0f4      	beq.n	10003e40 <uart_send+0x64>
10003e56:	3501      	adds	r5, #1
10003e58:	ab20      	add	r3, sp, #128	; 0x80
10003e5a:	5d5b      	ldrb	r3, [r3, r5]
10003e5c:	2b00      	cmp	r3, #0
10003e5e:	d003      	beq.n	10003e68 <uart_send+0x8c>
10003e60:	ab20      	add	r3, sp, #128	; 0x80
10003e62:	195a      	adds	r2, r3, r5
10003e64:	2100      	movs	r1, #0
10003e66:	e7f4      	b.n	10003e52 <uart_send+0x76>
10003e68:	4668      	mov	r0, sp
10003e6a:	f7fc fa89 	bl	10000380 <date_stamp>
10003e6e:	2500      	movs	r5, #0
10003e70:	e00b      	b.n	10003e8a <uart_send+0xae>
10003e72:	4b17      	ldr	r3, [pc, #92]	; (10003ed0 <uart_send+0xf4>)
10003e74:	699b      	ldr	r3, [r3, #24]
10003e76:	069b      	lsls	r3, r3, #26
10003e78:	d4fb      	bmi.n	10003e72 <uart_send+0x96>
10003e7a:	7810      	ldrb	r0, [r2, #0]
10003e7c:	4b14      	ldr	r3, [pc, #80]	; (10003ed0 <uart_send+0xf4>)
10003e7e:	6018      	str	r0, [r3, #0]
10003e80:	3101      	adds	r1, #1
10003e82:	3201      	adds	r2, #1
10003e84:	2900      	cmp	r1, #0
10003e86:	d0f4      	beq.n	10003e72 <uart_send+0x96>
10003e88:	3501      	adds	r5, #1
10003e8a:	466b      	mov	r3, sp
10003e8c:	5d5b      	ldrb	r3, [r3, r5]
10003e8e:	2b00      	cmp	r3, #0
10003e90:	d0cd      	beq.n	10003e2e <uart_send+0x52>
10003e92:	002a      	movs	r2, r5
10003e94:	446a      	add	r2, sp
10003e96:	2100      	movs	r1, #0
10003e98:	e7f4      	b.n	10003e84 <uart_send+0xa8>
10003e9a:	4b0d      	ldr	r3, [pc, #52]	; (10003ed0 <uart_send+0xf4>)
10003e9c:	699b      	ldr	r3, [r3, #24]
10003e9e:	069b      	lsls	r3, r3, #26
10003ea0:	d4fb      	bmi.n	10003e9a <uart_send+0xbe>
10003ea2:	7810      	ldrb	r0, [r2, #0]
10003ea4:	4b0a      	ldr	r3, [pc, #40]	; (10003ed0 <uart_send+0xf4>)
10003ea6:	6018      	str	r0, [r3, #0]
10003ea8:	3101      	adds	r1, #1
10003eaa:	3201      	adds	r2, #1
10003eac:	2900      	cmp	r1, #0
10003eae:	d0f4      	beq.n	10003e9a <uart_send+0xbe>
10003eb0:	3501      	adds	r5, #1
10003eb2:	1962      	adds	r2, r4, r5
10003eb4:	5d63      	ldrb	r3, [r4, r5]
10003eb6:	2b00      	cmp	r3, #0
10003eb8:	d001      	beq.n	10003ebe <uart_send+0xe2>
10003eba:	2100      	movs	r1, #0
10003ebc:	e7f6      	b.n	10003eac <uart_send+0xd0>
10003ebe:	b025      	add	sp, #148	; 0x94
10003ec0:	bd30      	pop	{r4, r5, pc}
10003ec2:	46c0      	nop			; (mov r8, r8)
10003ec4:	1000968c 	.word	0x1000968c
10003ec8:	10009694 	.word	0x10009694
10003ecc:	10009698 	.word	0x10009698
10003ed0:	40038000 	.word	0x40038000

10003ed4 <main>:
10003ed4:	b5f0      	push	{r4, r5, r6, r7, lr}
10003ed6:	46c6      	mov	lr, r8
10003ed8:	b500      	push	{lr}
10003eda:	b0d0      	sub	sp, #320	; 0x140
10003edc:	4a97      	ldr	r2, [pc, #604]	; (1000413c <main+0x268>)
10003ede:	231f      	movs	r3, #31
10003ee0:	211a      	movs	r1, #26
10003ee2:	31ff      	adds	r1, #255	; 0xff
10003ee4:	5453      	strb	r3, [r2, r1]
10003ee6:	217e      	movs	r1, #126	; 0x7e
10003ee8:	31ff      	adds	r1, #255	; 0xff
10003eea:	5453      	strb	r3, [r2, r1]
10003eec:	3960      	subs	r1, #96	; 0x60
10003eee:	39ff      	subs	r1, #255	; 0xff
10003ef0:	20ab      	movs	r0, #171	; 0xab
10003ef2:	0040      	lsls	r0, r0, #1
10003ef4:	5411      	strb	r1, [r2, r0]
10003ef6:	4a92      	ldr	r2, [pc, #584]	; (10004140 <main+0x26c>)
10003ef8:	38e5      	subs	r0, #229	; 0xe5
10003efa:	5413      	strb	r3, [r2, r0]
10003efc:	3019      	adds	r0, #25
10003efe:	5411      	strb	r1, [r2, r0]
10003f00:	317b      	adds	r1, #123	; 0x7b
10003f02:	5453      	strb	r3, [r2, r1]
10003f04:	4d8f      	ldr	r5, [pc, #572]	; (10004144 <main+0x270>)
10003f06:	2200      	movs	r2, #0
10003f08:	2300      	movs	r3, #0
10003f0a:	602a      	str	r2, [r5, #0]
10003f0c:	606b      	str	r3, [r5, #4]
10003f0e:	4c8e      	ldr	r4, [pc, #568]	; (10004148 <main+0x274>)
10003f10:	2301      	movs	r3, #1
10003f12:	8023      	strh	r3, [r4, #0]
10003f14:	4a8d      	ldr	r2, [pc, #564]	; (1000414c <main+0x278>)
10003f16:	8013      	strh	r3, [r2, #0]
10003f18:	3885      	subs	r0, #133	; 0x85
10003f1a:	f002 fee5 	bl	10006ce8 <clock_get_hz>
10003f1e:	4b8c      	ldr	r3, [pc, #560]	; (10004150 <main+0x27c>)
10003f20:	6018      	str	r0, [r3, #0]
10003f22:	498c      	ldr	r1, [pc, #560]	; (10004154 <main+0x280>)
10003f24:	f004 f8b6 	bl	10008094 <__wrap___aeabi_uidiv>
10003f28:	f004 fc98 	bl	1000885c <__wrap___aeabi_ui2f>
10003f2c:	1c06      	adds	r6, r0, #0
10003f2e:	8827      	ldrh	r7, [r4, #0]
10003f30:	f004 fcbc 	bl	100088ac <__wrap___aeabi_f2uiz>
10003f34:	b2c4      	uxtb	r4, r0
10003f36:	0020      	movs	r0, r4
10003f38:	f004 fc96 	bl	10008868 <__wrap___aeabi_i2f>
10003f3c:	1c01      	adds	r1, r0, #0
10003f3e:	1c30      	adds	r0, r6, #0
10003f40:	f004 fc6b 	bl	1000881a <__wrap___aeabi_fsub>
10003f44:	2183      	movs	r1, #131	; 0x83
10003f46:	05c9      	lsls	r1, r1, #23
10003f48:	f004 fc81 	bl	1000884e <__wrap___aeabi_fmul>
10003f4c:	f004 fcae 	bl	100088ac <__wrap___aeabi_f2uiz>
10003f50:	b2c0      	uxtb	r0, r0
10003f52:	0124      	lsls	r4, r4, #4
10003f54:	4304      	orrs	r4, r0
10003f56:	00bb      	lsls	r3, r7, #2
10003f58:	19db      	adds	r3, r3, r7
10003f5a:	009b      	lsls	r3, r3, #2
10003f5c:	4a7e      	ldr	r2, [pc, #504]	; (10004158 <main+0x284>)
10003f5e:	4694      	mov	ip, r2
10003f60:	4463      	add	r3, ip
10003f62:	605c      	str	r4, [r3, #4]
10003f64:	f002 f95c 	bl	10006220 <time_us_64>
10003f68:	f005 f90e 	bl	10009188 <srand>
10003f6c:	f7fc ffdc 	bl	10000f28 <init_gpio>
10003f70:	4c7a      	ldr	r4, [pc, #488]	; (1000415c <main+0x288>)
10003f72:	a804      	add	r0, sp, #16
10003f74:	f000 feec 	bl	10004d50 <Read_RTC>
10003f78:	2207      	movs	r2, #7
10003f7a:	a904      	add	r1, sp, #16
10003f7c:	0020      	movs	r0, r4
10003f7e:	f004 fcf9 	bl	10008974 <__wrap___aeabi_memcpy>
10003f82:	7822      	ldrb	r2, [r4, #0]
10003f84:	237f      	movs	r3, #127	; 0x7f
10003f86:	401a      	ands	r2, r3
10003f88:	7022      	strb	r2, [r4, #0]
10003f8a:	7862      	ldrb	r2, [r4, #1]
10003f8c:	4013      	ands	r3, r2
10003f8e:	7063      	strb	r3, [r4, #1]
10003f90:	78a0      	ldrb	r0, [r4, #2]
10003f92:	233f      	movs	r3, #63	; 0x3f
10003f94:	4018      	ands	r0, r3
10003f96:	70a0      	strb	r0, [r4, #2]
10003f98:	78e1      	ldrb	r1, [r4, #3]
10003f9a:	2207      	movs	r2, #7
10003f9c:	400a      	ands	r2, r1
10003f9e:	70e2      	strb	r2, [r4, #3]
10003fa0:	7922      	ldrb	r2, [r4, #4]
10003fa2:	4013      	ands	r3, r2
10003fa4:	7123      	strb	r3, [r4, #4]
10003fa6:	7962      	ldrb	r2, [r4, #5]
10003fa8:	231f      	movs	r3, #31
10003faa:	4013      	ands	r3, r2
10003fac:	7163      	strb	r3, [r4, #5]
10003fae:	f000 fe29 	bl	10004c04 <bcd_to_byte>
10003fb2:	4b6b      	ldr	r3, [pc, #428]	; (10004160 <main+0x28c>)
10003fb4:	7018      	strb	r0, [r3, #0]
10003fb6:	7860      	ldrb	r0, [r4, #1]
10003fb8:	f000 fe24 	bl	10004c04 <bcd_to_byte>
10003fbc:	4b69      	ldr	r3, [pc, #420]	; (10004164 <main+0x290>)
10003fbe:	7018      	strb	r0, [r3, #0]
10003fc0:	7920      	ldrb	r0, [r4, #4]
10003fc2:	f000 fe1f 	bl	10004c04 <bcd_to_byte>
10003fc6:	4b68      	ldr	r3, [pc, #416]	; (10004168 <main+0x294>)
10003fc8:	7018      	strb	r0, [r3, #0]
10003fca:	7960      	ldrb	r0, [r4, #5]
10003fcc:	f000 fe1a 	bl	10004c04 <bcd_to_byte>
10003fd0:	4b66      	ldr	r3, [pc, #408]	; (1000416c <main+0x298>)
10003fd2:	7018      	strb	r0, [r3, #0]
10003fd4:	79a0      	ldrb	r0, [r4, #6]
10003fd6:	f000 fe15 	bl	10004c04 <bcd_to_byte>
10003fda:	4b65      	ldr	r3, [pc, #404]	; (10004170 <main+0x29c>)
10003fdc:	7018      	strb	r0, [r3, #0]
10003fde:	682b      	ldr	r3, [r5, #0]
10003fe0:	686a      	ldr	r2, [r5, #4]
10003fe2:	4313      	orrs	r3, r2
10003fe4:	d106      	bne.n	10003ff4 <main+0x120>
10003fe6:	4a63      	ldr	r2, [pc, #396]	; (10004174 <main+0x2a0>)
10003fe8:	7813      	ldrb	r3, [r2, #0]
10003fea:	2124      	movs	r1, #36	; 0x24
10003fec:	438b      	bics	r3, r1
10003fee:	7013      	strb	r3, [r2, #0]
10003ff0:	2300      	movs	r3, #0
10003ff2:	e074      	b.n	100040de <main+0x20a>
10003ff4:	ac12      	add	r4, sp, #72	; 0x48
10003ff6:	4b60      	ldr	r3, [pc, #384]	; (10004178 <main+0x2a4>)
10003ff8:	9312      	str	r3, [sp, #72]	; 0x48
10003ffa:	4d60      	ldr	r5, [pc, #384]	; (1000417c <main+0x2a8>)
10003ffc:	0022      	movs	r2, r4
10003ffe:	4960      	ldr	r1, [pc, #384]	; (10004180 <main+0x2ac>)
10004000:	0028      	movs	r0, r5
10004002:	f7ff feeb 	bl	10003ddc <uart_send>
10004006:	4b5f      	ldr	r3, [pc, #380]	; (10004184 <main+0x2b0>)
10004008:	681a      	ldr	r2, [r3, #0]
1000400a:	9212      	str	r2, [sp, #72]	; 0x48
1000400c:	791b      	ldrb	r3, [r3, #4]
1000400e:	7123      	strb	r3, [r4, #4]
10004010:	0022      	movs	r2, r4
10004012:	495d      	ldr	r1, [pc, #372]	; (10004188 <main+0x2b4>)
10004014:	0028      	movs	r0, r5
10004016:	f7ff fee1 	bl	10003ddc <uart_send>
1000401a:	4b54      	ldr	r3, [pc, #336]	; (1000416c <main+0x298>)
1000401c:	781a      	ldrb	r2, [r3, #0]
1000401e:	230a      	movs	r3, #10
10004020:	4353      	muls	r3, r2
10004022:	4a5a      	ldr	r2, [pc, #360]	; (1000418c <main+0x2b8>)
10004024:	7811      	ldrb	r1, [r2, #0]
10004026:	2282      	movs	r2, #130	; 0x82
10004028:	434a      	muls	r2, r1
1000402a:	189b      	adds	r3, r3, r2
1000402c:	4a43      	ldr	r2, [pc, #268]	; (1000413c <main+0x268>)
1000402e:	189b      	adds	r3, r3, r2
10004030:	4a4d      	ldr	r2, [pc, #308]	; (10004168 <main+0x294>)
10004032:	7812      	ldrb	r2, [r2, #0]
10004034:	494b      	ldr	r1, [pc, #300]	; (10004164 <main+0x290>)
10004036:	7809      	ldrb	r1, [r1, #0]
10004038:	9102      	str	r1, [sp, #8]
1000403a:	4949      	ldr	r1, [pc, #292]	; (10004160 <main+0x28c>)
1000403c:	7809      	ldrb	r1, [r1, #0]
1000403e:	9101      	str	r1, [sp, #4]
10004040:	494b      	ldr	r1, [pc, #300]	; (10004170 <main+0x29c>)
10004042:	7809      	ldrb	r1, [r1, #0]
10004044:	9100      	str	r1, [sp, #0]
10004046:	4952      	ldr	r1, [pc, #328]	; (10004190 <main+0x2bc>)
10004048:	0020      	movs	r0, r4
1000404a:	f003 ffa3 	bl	10007f94 <__wrap_sprintf>
1000404e:	0022      	movs	r2, r4
10004050:	4950      	ldr	r1, [pc, #320]	; (10004194 <main+0x2c0>)
10004052:	0028      	movs	r0, r5
10004054:	f7ff fec2 	bl	10003ddc <uart_send>
10004058:	4a4f      	ldr	r2, [pc, #316]	; (10004198 <main+0x2c4>)
1000405a:	4950      	ldr	r1, [pc, #320]	; (1000419c <main+0x2c8>)
1000405c:	0028      	movs	r0, r5
1000405e:	f7ff febd 	bl	10003ddc <uart_send>
10004062:	2400      	movs	r4, #0
10004064:	e006      	b.n	10004074 <main+0x1a0>
10004066:	4a4e      	ldr	r2, [pc, #312]	; (100041a0 <main+0x2cc>)
10004068:	494e      	ldr	r1, [pc, #312]	; (100041a4 <main+0x2d0>)
1000406a:	4844      	ldr	r0, [pc, #272]	; (1000417c <main+0x2a8>)
1000406c:	f7ff feb6 	bl	10003ddc <uart_send>
10004070:	3401      	adds	r4, #1
10004072:	b2e4      	uxtb	r4, r4
10004074:	2c3f      	cmp	r4, #63	; 0x3f
10004076:	d826      	bhi.n	100040c6 <main+0x1f2>
10004078:	0022      	movs	r2, r4
1000407a:	2301      	movs	r3, #1
1000407c:	40a3      	lsls	r3, r4
1000407e:	17d8      	asrs	r0, r3, #31
10004080:	4d30      	ldr	r5, [pc, #192]	; (10004144 <main+0x270>)
10004082:	6829      	ldr	r1, [r5, #0]
10004084:	4019      	ands	r1, r3
10004086:	686d      	ldr	r5, [r5, #4]
10004088:	4028      	ands	r0, r5
1000408a:	4301      	orrs	r1, r0
1000408c:	d0f0      	beq.n	10004070 <main+0x19c>
1000408e:	2b02      	cmp	r3, #2
10004090:	d00d      	beq.n	100040ae <main+0x1da>
10004092:	2b04      	cmp	r3, #4
10004094:	d011      	beq.n	100040ba <main+0x1e6>
10004096:	2b01      	cmp	r3, #1
10004098:	d0e5      	beq.n	10004066 <main+0x192>
1000409a:	4943      	ldr	r1, [pc, #268]	; (100041a8 <main+0x2d4>)
1000409c:	a812      	add	r0, sp, #72	; 0x48
1000409e:	f003 ff79 	bl	10007f94 <__wrap_sprintf>
100040a2:	aa12      	add	r2, sp, #72	; 0x48
100040a4:	4941      	ldr	r1, [pc, #260]	; (100041ac <main+0x2d8>)
100040a6:	4835      	ldr	r0, [pc, #212]	; (1000417c <main+0x2a8>)
100040a8:	f7ff fe98 	bl	10003ddc <uart_send>
100040ac:	e7e0      	b.n	10004070 <main+0x19c>
100040ae:	4a40      	ldr	r2, [pc, #256]	; (100041b0 <main+0x2dc>)
100040b0:	4940      	ldr	r1, [pc, #256]	; (100041b4 <main+0x2e0>)
100040b2:	4832      	ldr	r0, [pc, #200]	; (1000417c <main+0x2a8>)
100040b4:	f7ff fe92 	bl	10003ddc <uart_send>
100040b8:	e7da      	b.n	10004070 <main+0x19c>
100040ba:	4a3f      	ldr	r2, [pc, #252]	; (100041b8 <main+0x2e4>)
100040bc:	493f      	ldr	r1, [pc, #252]	; (100041bc <main+0x2e8>)
100040be:	482f      	ldr	r0, [pc, #188]	; (1000417c <main+0x2a8>)
100040c0:	f7ff fe8c 	bl	10003ddc <uart_send>
100040c4:	e7d4      	b.n	10004070 <main+0x19c>
100040c6:	219e      	movs	r1, #158	; 0x9e
100040c8:	4a3d      	ldr	r2, [pc, #244]	; (100041c0 <main+0x2ec>)
100040ca:	00c9      	lsls	r1, r1, #3
100040cc:	482b      	ldr	r0, [pc, #172]	; (1000417c <main+0x2a8>)
100040ce:	f7ff fe85 	bl	10003ddc <uart_send>
100040d2:	e788      	b.n	10003fe6 <main+0x112>
100040d4:	4a3b      	ldr	r2, [pc, #236]	; (100041c4 <main+0x2f0>)
100040d6:	21aa      	movs	r1, #170	; 0xaa
100040d8:	54d1      	strb	r1, [r2, r3]
100040da:	3301      	adds	r3, #1
100040dc:	b2db      	uxtb	r3, r3
100040de:	2b4a      	cmp	r3, #74	; 0x4a
100040e0:	d9f8      	bls.n	100040d4 <main+0x200>
100040e2:	2300      	movs	r3, #0
100040e4:	4a38      	ldr	r2, [pc, #224]	; (100041c8 <main+0x2f4>)
100040e6:	7013      	strb	r3, [r2, #0]
100040e8:	4a38      	ldr	r2, [pc, #224]	; (100041cc <main+0x2f8>)
100040ea:	7013      	strb	r3, [r2, #0]
100040ec:	e007      	b.n	100040fe <main+0x22a>
100040ee:	4a38      	ldr	r2, [pc, #224]	; (100041d0 <main+0x2fc>)
100040f0:	0098      	lsls	r0, r3, #2
100040f2:	2100      	movs	r1, #0
100040f4:	5281      	strh	r1, [r0, r2]
100040f6:	1812      	adds	r2, r2, r0
100040f8:	8051      	strh	r1, [r2, #2]
100040fa:	3301      	adds	r3, #1
100040fc:	b29b      	uxth	r3, r3
100040fe:	22c8      	movs	r2, #200	; 0xc8
10004100:	0092      	lsls	r2, r2, #2
10004102:	4293      	cmp	r3, r2
10004104:	d3f3      	bcc.n	100040ee <main+0x21a>
10004106:	2300      	movs	r3, #0
10004108:	4a32      	ldr	r2, [pc, #200]	; (100041d4 <main+0x300>)
1000410a:	8013      	strh	r3, [r2, #0]
1000410c:	4a32      	ldr	r2, [pc, #200]	; (100041d8 <main+0x304>)
1000410e:	8013      	strh	r3, [r2, #0]
10004110:	4b32      	ldr	r3, [pc, #200]	; (100041dc <main+0x308>)
10004112:	781a      	ldrb	r2, [r3, #0]
10004114:	0013      	movs	r3, r2
10004116:	e004      	b.n	10004122 <main+0x24e>
10004118:	4931      	ldr	r1, [pc, #196]	; (100041e0 <main+0x30c>)
1000411a:	2000      	movs	r0, #0
1000411c:	54c8      	strb	r0, [r1, r3]
1000411e:	3301      	adds	r3, #1
10004120:	b2db      	uxtb	r3, r3
10004122:	2b05      	cmp	r3, #5
10004124:	d9f8      	bls.n	10004118 <main+0x244>
10004126:	0013      	movs	r3, r2
10004128:	e004      	b.n	10004134 <main+0x260>
1000412a:	492e      	ldr	r1, [pc, #184]	; (100041e4 <main+0x310>)
1000412c:	2000      	movs	r0, #0
1000412e:	54c8      	strb	r0, [r1, r3]
10004130:	3301      	adds	r3, #1
10004132:	b2db      	uxtb	r3, r3
10004134:	2b12      	cmp	r3, #18
10004136:	d9f8      	bls.n	1000412a <main+0x256>
10004138:	e05b      	b.n	100041f2 <main+0x31e>
1000413a:	46c0      	nop			; (mov r8, r8)
1000413c:	200007a4 	.word	0x200007a4
10004140:	20000940 	.word	0x20000940
10004144:	20000f08 	.word	0x20000f08
10004148:	20002b36 	.word	0x20002b36
1000414c:	20002b34 	.word	0x20002b34
10004150:	20002764 	.word	0x20002764
10004154:	000f4240 	.word	0x000f4240
10004158:	40050000 	.word	0x40050000
1000415c:	20002768 	.word	0x20002768
10004160:	20002b46 	.word	0x20002b46
10004164:	20002b47 	.word	0x20002b47
10004168:	20002b44 	.word	0x20002b44
1000416c:	20002b49 	.word	0x20002b49
10004170:	20002b4a 	.word	0x20002b4a
10004174:	2000195c 	.word	0x2000195c
10004178:	00736c63 	.word	0x00736c63
1000417c:	40038000 	.word	0x40038000
10004180:	000004cc 	.word	0x000004cc
10004184:	1000968c 	.word	0x1000968c
10004188:	000004cf 	.word	0x000004cf
1000418c:	20000771 	.word	0x20000771
10004190:	100096a0 	.word	0x100096a0
10004194:	000004d2 	.word	0x000004d2
10004198:	100096fc 	.word	0x100096fc
1000419c:	000004d4 	.word	0x000004d4
100041a0:	10009720 	.word	0x10009720
100041a4:	000004de 	.word	0x000004de
100041a8:	1000977c 	.word	0x1000977c
100041ac:	000004eb 	.word	0x000004eb
100041b0:	10009740 	.word	0x10009740
100041b4:	000004e2 	.word	0x000004e2
100041b8:	10009760 	.word	0x10009760
100041bc:	000004e6 	.word	0x000004e6
100041c0:	1000978c 	.word	0x1000978c
100041c4:	20001a90 	.word	0x20001a90
100041c8:	20002b66 	.word	0x20002b66
100041cc:	20002b67 	.word	0x20002b67
100041d0:	20001ae4 	.word	0x20001ae4
100041d4:	20002b3a 	.word	0x20002b3a
100041d8:	20002b3c 	.word	0x20002b3c
100041dc:	20002b64 	.word	0x20002b64
100041e0:	20001a68 	.word	0x20001a68
100041e4:	20001a70 	.word	0x20001a70
100041e8:	4bc7      	ldr	r3, [pc, #796]	; (10004508 <main+0x634>)
100041ea:	2100      	movs	r1, #0
100041ec:	5499      	strb	r1, [r3, r2]
100041ee:	3201      	adds	r2, #1
100041f0:	b2d2      	uxtb	r2, r2
100041f2:	2a04      	cmp	r2, #4
100041f4:	d9f8      	bls.n	100041e8 <main+0x314>
100041f6:	4bc5      	ldr	r3, [pc, #788]	; (1000450c <main+0x638>)
100041f8:	781b      	ldrb	r3, [r3, #0]
100041fa:	2b02      	cmp	r3, #2
100041fc:	d100      	bne.n	10004200 <main+0x32c>
100041fe:	e092      	b.n	10004326 <main+0x452>
10004200:	f000 fd92 	bl	10004d28 <byte_data>
10004204:	4bc2      	ldr	r3, [pc, #776]	; (10004510 <main+0x63c>)
10004206:	2400      	movs	r4, #0
10004208:	701c      	strb	r4, [r3, #0]
1000420a:	4ac2      	ldr	r2, [pc, #776]	; (10004514 <main+0x640>)
1000420c:	7a90      	ldrb	r0, [r2, #10]
1000420e:	210f      	movs	r1, #15
10004210:	4008      	ands	r0, r1
10004212:	7118      	strb	r0, [r3, #4]
10004214:	7a50      	ldrb	r0, [r2, #9]
10004216:	70d8      	strb	r0, [r3, #3]
10004218:	7a10      	ldrb	r0, [r2, #8]
1000421a:	7098      	strb	r0, [r3, #2]
1000421c:	79d0      	ldrb	r0, [r2, #7]
1000421e:	7058      	strb	r0, [r3, #1]
10004220:	715c      	strb	r4, [r3, #5]
10004222:	7b50      	ldrb	r0, [r2, #13]
10004224:	4001      	ands	r1, r0
10004226:	7259      	strb	r1, [r3, #9]
10004228:	7b11      	ldrb	r1, [r2, #12]
1000422a:	7219      	strb	r1, [r3, #8]
1000422c:	7ad2      	ldrb	r2, [r2, #11]
1000422e:	71da      	strb	r2, [r3, #7]
10004230:	2201      	movs	r2, #1
10004232:	2101      	movs	r1, #1
10004234:	48b8      	ldr	r0, [pc, #736]	; (10004518 <main+0x644>)
10004236:	f001 f9c1 	bl	100055bc <sem_init>
1000423a:	ab0c      	add	r3, sp, #48	; 0x30
1000423c:	2200      	movs	r2, #0
1000423e:	49b7      	ldr	r1, [pc, #732]	; (1000451c <main+0x648>)
10004240:	2001      	movs	r0, #1
10004242:	f7fc f863 	bl	1000030c <add_repeating_timer_ms>
10004246:	20fa      	movs	r0, #250	; 0xfa
10004248:	ab06      	add	r3, sp, #24
1000424a:	2200      	movs	r2, #0
1000424c:	49b4      	ldr	r1, [pc, #720]	; (10004520 <main+0x64c>)
1000424e:	0080      	lsls	r0, r0, #2
10004250:	f7fc f85c 	bl	1000030c <add_repeating_timer_ms>
10004254:	2000      	movs	r0, #0
10004256:	f7fc fb13 	bl	10000880 <clear_framebuffer>
1000425a:	4bb2      	ldr	r3, [pc, #712]	; (10004524 <main+0x650>)
1000425c:	781b      	ldrb	r3, [r3, #0]
1000425e:	2b01      	cmp	r3, #1
10004260:	d068      	beq.n	10004334 <main+0x460>
10004262:	4ab1      	ldr	r2, [pc, #708]	; (10004528 <main+0x654>)
10004264:	78d1      	ldrb	r1, [r2, #3]
10004266:	2302      	movs	r3, #2
10004268:	430b      	orrs	r3, r1
1000426a:	70d3      	strb	r3, [r2, #3]
1000426c:	2101      	movs	r1, #1
1000426e:	438b      	bics	r3, r1
10004270:	70d3      	strb	r3, [r2, #3]
10004272:	4bae      	ldr	r3, [pc, #696]	; (1000452c <main+0x658>)
10004274:	781b      	ldrb	r3, [r3, #0]
10004276:	2b01      	cmp	r3, #1
10004278:	d06a      	beq.n	10004350 <main+0x47c>
1000427a:	2b02      	cmp	r3, #2
1000427c:	d06e      	beq.n	1000435c <main+0x488>
1000427e:	2b00      	cmp	r3, #0
10004280:	d060      	beq.n	10004344 <main+0x470>
10004282:	4bab      	ldr	r3, [pc, #684]	; (10004530 <main+0x65c>)
10004284:	781b      	ldrb	r3, [r3, #0]
10004286:	2bff      	cmp	r3, #255	; 0xff
10004288:	d071      	beq.n	1000436e <main+0x49a>
1000428a:	4baa      	ldr	r3, [pc, #680]	; (10004534 <main+0x660>)
1000428c:	781b      	ldrb	r3, [r3, #0]
1000428e:	2b01      	cmp	r3, #1
10004290:	d073      	beq.n	1000437a <main+0x4a6>
10004292:	2000      	movs	r0, #0
10004294:	f7fc faf4 	bl	10000880 <clear_framebuffer>
10004298:	4aa7      	ldr	r2, [pc, #668]	; (10004538 <main+0x664>)
1000429a:	6813      	ldr	r3, [r2, #0]
1000429c:	6852      	ldr	r2, [r2, #4]
1000429e:	4313      	orrs	r3, r2
100042a0:	d009      	beq.n	100042b6 <main+0x3e2>
100042a2:	4b9a      	ldr	r3, [pc, #616]	; (1000450c <main+0x638>)
100042a4:	781b      	ldrb	r3, [r3, #0]
100042a6:	2b01      	cmp	r3, #1
100042a8:	d100      	bne.n	100042ac <main+0x3d8>
100042aa:	e0fd      	b.n	100044a8 <main+0x5d4>
100042ac:	4b97      	ldr	r3, [pc, #604]	; (1000450c <main+0x638>)
100042ae:	781b      	ldrb	r3, [r3, #0]
100042b0:	2b02      	cmp	r3, #2
100042b2:	d100      	bne.n	100042b6 <main+0x3e2>
100042b4:	e0fd      	b.n	100044b2 <main+0x5de>
100042b6:	23d0      	movs	r3, #208	; 0xd0
100042b8:	061b      	lsls	r3, r3, #24
100042ba:	2204      	movs	r2, #4
100042bc:	629a      	str	r2, [r3, #40]	; 0x28
100042be:	2280      	movs	r2, #128	; 0x80
100042c0:	0292      	lsls	r2, r2, #10
100042c2:	629a      	str	r2, [r3, #40]	; 0x28
100042c4:	2280      	movs	r2, #128	; 0x80
100042c6:	0212      	lsls	r2, r2, #8
100042c8:	629a      	str	r2, [r3, #40]	; 0x28
100042ca:	2200      	movs	r2, #0
100042cc:	2101      	movs	r1, #1
100042ce:	2002      	movs	r0, #2
100042d0:	f000 fed6 	bl	10005080 <gpio_set_pulls>
100042d4:	2200      	movs	r2, #0
100042d6:	2101      	movs	r1, #1
100042d8:	2011      	movs	r0, #17
100042da:	f000 fed1 	bl	10005080 <gpio_set_pulls>
100042de:	2200      	movs	r2, #0
100042e0:	2101      	movs	r1, #1
100042e2:	200f      	movs	r0, #15
100042e4:	f000 fecc 	bl	10005080 <gpio_set_pulls>
100042e8:	f7ff fc9a 	bl	10003c20 <show_time>
100042ec:	4b93      	ldr	r3, [pc, #588]	; (1000453c <main+0x668>)
100042ee:	781b      	ldrb	r3, [r3, #0]
100042f0:	2bff      	cmp	r3, #255	; 0xff
100042f2:	d100      	bne.n	100042f6 <main+0x422>
100042f4:	e0e2      	b.n	100044bc <main+0x5e8>
100042f6:	4b92      	ldr	r3, [pc, #584]	; (10004540 <main+0x66c>)
100042f8:	781b      	ldrb	r3, [r3, #0]
100042fa:	2bff      	cmp	r3, #255	; 0xff
100042fc:	d100      	bne.n	10004300 <main+0x42c>
100042fe:	e0e6      	b.n	100044ce <main+0x5fa>
10004300:	4b90      	ldr	r3, [pc, #576]	; (10004544 <main+0x670>)
10004302:	781b      	ldrb	r3, [r3, #0]
10004304:	2bff      	cmp	r3, #255	; 0xff
10004306:	d100      	bne.n	1000430a <main+0x436>
10004308:	e0ea      	b.n	100044e0 <main+0x60c>
1000430a:	4b8f      	ldr	r3, [pc, #572]	; (10004548 <main+0x674>)
1000430c:	781b      	ldrb	r3, [r3, #0]
1000430e:	2bff      	cmp	r3, #255	; 0xff
10004310:	d100      	bne.n	10004314 <main+0x440>
10004312:	e0ee      	b.n	100044f2 <main+0x61e>
10004314:	4b8d      	ldr	r3, [pc, #564]	; (1000454c <main+0x678>)
10004316:	781a      	ldrb	r2, [r3, #0]
10004318:	4b8d      	ldr	r3, [pc, #564]	; (10004550 <main+0x67c>)
1000431a:	781b      	ldrb	r3, [r3, #0]
1000431c:	429a      	cmp	r2, r3
1000431e:	d0e5      	beq.n	100042ec <main+0x418>
10004320:	f7fd f822 	bl	10001368 <process_scroll_queue>
10004324:	e7e2      	b.n	100042ec <main+0x418>
10004326:	4b8b      	ldr	r3, [pc, #556]	; (10004554 <main+0x680>)
10004328:	2203      	movs	r2, #3
1000432a:	701a      	strb	r2, [r3, #0]
1000432c:	4b8a      	ldr	r3, [pc, #552]	; (10004558 <main+0x684>)
1000432e:	3201      	adds	r2, #1
10004330:	701a      	strb	r2, [r3, #0]
10004332:	e765      	b.n	10004200 <main+0x32c>
10004334:	4a7c      	ldr	r2, [pc, #496]	; (10004528 <main+0x654>)
10004336:	78d1      	ldrb	r1, [r2, #3]
10004338:	430b      	orrs	r3, r1
1000433a:	70d3      	strb	r3, [r2, #3]
1000433c:	2102      	movs	r1, #2
1000433e:	438b      	bics	r3, r1
10004340:	70d3      	strb	r3, [r2, #3]
10004342:	e796      	b.n	10004272 <main+0x39e>
10004344:	4a78      	ldr	r2, [pc, #480]	; (10004528 <main+0x654>)
10004346:	7993      	ldrb	r3, [r2, #6]
10004348:	2103      	movs	r1, #3
1000434a:	438b      	bics	r3, r1
1000434c:	7193      	strb	r3, [r2, #6]
1000434e:	e798      	b.n	10004282 <main+0x3ae>
10004350:	4a75      	ldr	r2, [pc, #468]	; (10004528 <main+0x654>)
10004352:	7991      	ldrb	r1, [r2, #6]
10004354:	2303      	movs	r3, #3
10004356:	430b      	orrs	r3, r1
10004358:	7193      	strb	r3, [r2, #6]
1000435a:	e792      	b.n	10004282 <main+0x3ae>
1000435c:	4a72      	ldr	r2, [pc, #456]	; (10004528 <main+0x654>)
1000435e:	7993      	ldrb	r3, [r2, #6]
10004360:	2103      	movs	r1, #3
10004362:	438b      	bics	r3, r1
10004364:	7193      	strb	r3, [r2, #6]
10004366:	3902      	subs	r1, #2
10004368:	430b      	orrs	r3, r1
1000436a:	7193      	strb	r3, [r2, #6]
1000436c:	e789      	b.n	10004282 <main+0x3ae>
1000436e:	4a6e      	ldr	r2, [pc, #440]	; (10004528 <main+0x654>)
10004370:	7811      	ldrb	r1, [r2, #0]
10004372:	3bfc      	subs	r3, #252	; 0xfc
10004374:	430b      	orrs	r3, r1
10004376:	7013      	strb	r3, [r2, #0]
10004378:	e787      	b.n	1000428a <main+0x3b6>
1000437a:	4b78      	ldr	r3, [pc, #480]	; (1000455c <main+0x688>)
1000437c:	2200      	movs	r2, #0
1000437e:	701a      	strb	r2, [r3, #0]
10004380:	4c77      	ldr	r4, [pc, #476]	; (10004560 <main+0x68c>)
10004382:	a804      	add	r0, sp, #16
10004384:	f000 fce4 	bl	10004d50 <Read_RTC>
10004388:	2207      	movs	r2, #7
1000438a:	a904      	add	r1, sp, #16
1000438c:	0020      	movs	r0, r4
1000438e:	f004 faf1 	bl	10008974 <__wrap___aeabi_memcpy>
10004392:	78a0      	ldrb	r0, [r4, #2]
10004394:	f000 fc36 	bl	10004c04 <bcd_to_byte>
10004398:	4b72      	ldr	r3, [pc, #456]	; (10004564 <main+0x690>)
1000439a:	7018      	strb	r0, [r3, #0]
1000439c:	7860      	ldrb	r0, [r4, #1]
1000439e:	f000 fc31 	bl	10004c04 <bcd_to_byte>
100043a2:	4b71      	ldr	r3, [pc, #452]	; (10004568 <main+0x694>)
100043a4:	7018      	strb	r0, [r3, #0]
100043a6:	7920      	ldrb	r0, [r4, #4]
100043a8:	f000 fc2c 	bl	10004c04 <bcd_to_byte>
100043ac:	4b6f      	ldr	r3, [pc, #444]	; (1000456c <main+0x698>)
100043ae:	7018      	strb	r0, [r3, #0]
100043b0:	7960      	ldrb	r0, [r4, #5]
100043b2:	f000 fc27 	bl	10004c04 <bcd_to_byte>
100043b6:	4d6e      	ldr	r5, [pc, #440]	; (10004570 <main+0x69c>)
100043b8:	7028      	strb	r0, [r5, #0]
100043ba:	79a0      	ldrb	r0, [r4, #6]
100043bc:	f000 fc22 	bl	10004c04 <bcd_to_byte>
100043c0:	b284      	uxth	r4, r0
100043c2:	23fa      	movs	r3, #250	; 0xfa
100043c4:	00db      	lsls	r3, r3, #3
100043c6:	469c      	mov	ip, r3
100043c8:	4464      	add	r4, ip
100043ca:	b2a4      	uxth	r4, r4
100043cc:	4b69      	ldr	r3, [pc, #420]	; (10004574 <main+0x6a0>)
100043ce:	801c      	strh	r4, [r3, #0]
100043d0:	782f      	ldrb	r7, [r5, #0]
100043d2:	1f3b      	subs	r3, r7, #4
100043d4:	b2db      	uxtb	r3, r3
100043d6:	2b06      	cmp	r3, #6
100043d8:	d802      	bhi.n	100043e0 <main+0x50c>
100043da:	4b60      	ldr	r3, [pc, #384]	; (1000455c <main+0x688>)
100043dc:	22ff      	movs	r2, #255	; 0xff
100043de:	701a      	strb	r2, [r3, #0]
100043e0:	2f03      	cmp	r7, #3
100043e2:	d008      	beq.n	100043f6 <main+0x522>
100043e4:	2f0b      	cmp	r7, #11
100043e6:	d000      	beq.n	100043ea <main+0x516>
100043e8:	e753      	b.n	10004292 <main+0x3be>
100043ea:	4b60      	ldr	r3, [pc, #384]	; (1000456c <main+0x698>)
100043ec:	781b      	ldrb	r3, [r3, #0]
100043ee:	4698      	mov	r8, r3
100043f0:	001d      	movs	r5, r3
100043f2:	2600      	movs	r6, #0
100043f4:	e033      	b.n	1000445e <main+0x58a>
100043f6:	4b5d      	ldr	r3, [pc, #372]	; (1000456c <main+0x698>)
100043f8:	781b      	ldrb	r3, [r3, #0]
100043fa:	4698      	mov	r8, r3
100043fc:	001d      	movs	r5, r3
100043fe:	2600      	movs	r6, #0
10004400:	e001      	b.n	10004406 <main+0x532>
10004402:	3d01      	subs	r5, #1
10004404:	b2ed      	uxtb	r5, r5
10004406:	2d00      	cmp	r5, #0
10004408:	d009      	beq.n	1000441e <main+0x54a>
1000440a:	002a      	movs	r2, r5
1000440c:	0039      	movs	r1, r7
1000440e:	0020      	movs	r0, r4
10004410:	f7fc fd48 	bl	10000ea4 <get_weekday>
10004414:	2807      	cmp	r0, #7
10004416:	d1f4      	bne.n	10004402 <main+0x52e>
10004418:	3601      	adds	r6, #1
1000441a:	b2f6      	uxtb	r6, r6
1000441c:	e7f1      	b.n	10004402 <main+0x52e>
1000441e:	2e02      	cmp	r6, #2
10004420:	d807      	bhi.n	10004432 <main+0x55e>
10004422:	d109      	bne.n	10004438 <main+0x564>
10004424:	4642      	mov	r2, r8
10004426:	0039      	movs	r1, r7
10004428:	0020      	movs	r0, r4
1000442a:	f7fc fd3b 	bl	10000ea4 <get_weekday>
1000442e:	2807      	cmp	r0, #7
10004430:	d002      	beq.n	10004438 <main+0x564>
10004432:	4b4a      	ldr	r3, [pc, #296]	; (1000455c <main+0x688>)
10004434:	22ff      	movs	r2, #255	; 0xff
10004436:	701a      	strb	r2, [r3, #0]
10004438:	2e02      	cmp	r6, #2
1000443a:	d1d3      	bne.n	100043e4 <main+0x510>
1000443c:	4642      	mov	r2, r8
1000443e:	0039      	movs	r1, r7
10004440:	0020      	movs	r0, r4
10004442:	f7fc fd2f 	bl	10000ea4 <get_weekday>
10004446:	2807      	cmp	r0, #7
10004448:	d1cc      	bne.n	100043e4 <main+0x510>
1000444a:	4b46      	ldr	r3, [pc, #280]	; (10004564 <main+0x690>)
1000444c:	781b      	ldrb	r3, [r3, #0]
1000444e:	2b02      	cmp	r3, #2
10004450:	d9c8      	bls.n	100043e4 <main+0x510>
10004452:	4b42      	ldr	r3, [pc, #264]	; (1000455c <main+0x688>)
10004454:	22ff      	movs	r2, #255	; 0xff
10004456:	701a      	strb	r2, [r3, #0]
10004458:	e7c4      	b.n	100043e4 <main+0x510>
1000445a:	3d01      	subs	r5, #1
1000445c:	b2ed      	uxtb	r5, r5
1000445e:	2d00      	cmp	r5, #0
10004460:	d009      	beq.n	10004476 <main+0x5a2>
10004462:	002a      	movs	r2, r5
10004464:	0039      	movs	r1, r7
10004466:	0020      	movs	r0, r4
10004468:	f7fc fd1c 	bl	10000ea4 <get_weekday>
1000446c:	2807      	cmp	r0, #7
1000446e:	d1f4      	bne.n	1000445a <main+0x586>
10004470:	3601      	adds	r6, #1
10004472:	b2f6      	uxtb	r6, r6
10004474:	e7f1      	b.n	1000445a <main+0x586>
10004476:	2e00      	cmp	r6, #0
10004478:	d102      	bne.n	10004480 <main+0x5ac>
1000447a:	4b38      	ldr	r3, [pc, #224]	; (1000455c <main+0x688>)
1000447c:	22ff      	movs	r2, #255	; 0xff
1000447e:	701a      	strb	r2, [r3, #0]
10004480:	2e01      	cmp	r6, #1
10004482:	d000      	beq.n	10004486 <main+0x5b2>
10004484:	e705      	b.n	10004292 <main+0x3be>
10004486:	4642      	mov	r2, r8
10004488:	0039      	movs	r1, r7
1000448a:	0020      	movs	r0, r4
1000448c:	f7fc fd0a 	bl	10000ea4 <get_weekday>
10004490:	2807      	cmp	r0, #7
10004492:	d000      	beq.n	10004496 <main+0x5c2>
10004494:	e6fd      	b.n	10004292 <main+0x3be>
10004496:	4b33      	ldr	r3, [pc, #204]	; (10004564 <main+0x690>)
10004498:	781b      	ldrb	r3, [r3, #0]
1000449a:	2b01      	cmp	r3, #1
1000449c:	d900      	bls.n	100044a0 <main+0x5cc>
1000449e:	e6f8      	b.n	10004292 <main+0x3be>
100044a0:	4b2e      	ldr	r3, [pc, #184]	; (1000455c <main+0x688>)
100044a2:	22ff      	movs	r2, #255	; 0xff
100044a4:	701a      	strb	r2, [r3, #0]
100044a6:	e6f4      	b.n	10004292 <main+0x3be>
100044a8:	4933      	ldr	r1, [pc, #204]	; (10004578 <main+0x6a4>)
100044aa:	2018      	movs	r0, #24
100044ac:	f7fc feec 	bl	10001288 <scroll_string>
100044b0:	e6fc      	b.n	100042ac <main+0x3d8>
100044b2:	4932      	ldr	r1, [pc, #200]	; (1000457c <main+0x6a8>)
100044b4:	2018      	movs	r0, #24
100044b6:	f7fc fee7 	bl	10001288 <scroll_string>
100044ba:	e6fc      	b.n	100042b6 <main+0x3e2>
100044bc:	4b30      	ldr	r3, [pc, #192]	; (10004580 <main+0x6ac>)
100044be:	22ff      	movs	r2, #255	; 0xff
100044c0:	701a      	strb	r2, [r3, #0]
100044c2:	f7fd fda5 	bl	10002010 <setup_clock_frame>
100044c6:	4b1d      	ldr	r3, [pc, #116]	; (1000453c <main+0x668>)
100044c8:	2200      	movs	r2, #0
100044ca:	701a      	strb	r2, [r3, #0]
100044cc:	e713      	b.n	100042f6 <main+0x422>
100044ce:	4b2c      	ldr	r3, [pc, #176]	; (10004580 <main+0x6ac>)
100044d0:	22ff      	movs	r2, #255	; 0xff
100044d2:	701a      	strb	r2, [r3, #0]
100044d4:	f7fd fb76 	bl	10001bc4 <setup_alarm_frame>
100044d8:	4b19      	ldr	r3, [pc, #100]	; (10004540 <main+0x66c>)
100044da:	2200      	movs	r2, #0
100044dc:	701a      	strb	r2, [r3, #0]
100044de:	e70f      	b.n	10004300 <main+0x42c>
100044e0:	4b27      	ldr	r3, [pc, #156]	; (10004580 <main+0x6ac>)
100044e2:	22ff      	movs	r2, #255	; 0xff
100044e4:	701a      	strb	r2, [r3, #0]
100044e6:	f7fe ff6d 	bl	100033c4 <setup_timer_frame>
100044ea:	4b16      	ldr	r3, [pc, #88]	; (10004544 <main+0x670>)
100044ec:	2200      	movs	r2, #0
100044ee:	701a      	strb	r2, [r3, #0]
100044f0:	e70b      	b.n	1000430a <main+0x436>
100044f2:	4b24      	ldr	r3, [pc, #144]	; (10004584 <main+0x6b0>)
100044f4:	781b      	ldrb	r3, [r3, #0]
100044f6:	2b00      	cmp	r3, #0
100044f8:	d000      	beq.n	100044fc <main+0x628>
100044fa:	e70b      	b.n	10004314 <main+0x440>
100044fc:	f7ff fb90 	bl	10003c20 <show_time>
10004500:	4b11      	ldr	r3, [pc, #68]	; (10004548 <main+0x674>)
10004502:	2200      	movs	r2, #0
10004504:	701a      	strb	r2, [r3, #0]
10004506:	e705      	b.n	10004314 <main+0x440>
10004508:	20001a84 	.word	0x20001a84
1000450c:	20000771 	.word	0x20000771
10004510:	20001044 	.word	0x20001044
10004514:	20001050 	.word	0x20001050
10004518:	20001adc 	.word	0x20001adc
1000451c:	10003885 	.word	0x10003885
10004520:	10004589 	.word	0x10004589
10004524:	20002b6d 	.word	0x20002b6d
10004528:	2000195c 	.word	0x2000195c
1000452c:	20002b5d 	.word	0x20002b5d
10004530:	20000770 	.word	0x20000770
10004534:	20002b4b 	.word	0x20002b4b
10004538:	20000f08 	.word	0x20000f08
1000453c:	20002b54 	.word	0x20002b54
10004540:	20002b53 	.word	0x20002b53
10004544:	20002b55 	.word	0x20002b55
10004548:	20002b5c 	.word	0x20002b5c
1000454c:	20002b66 	.word	0x20002b66
10004550:	20002b67 	.word	0x20002b67
10004554:	2000092f 	.word	0x2000092f
10004558:	20000936 	.word	0x20000936
1000455c:	20002b4e 	.word	0x20002b4e
10004560:	20002768 	.word	0x20002768
10004564:	20002b45 	.word	0x20002b45
10004568:	20002b47 	.word	0x20002b47
1000456c:	20002b44 	.word	0x20002b44
10004570:	20002b49 	.word	0x20002b49
10004574:	20002b40 	.word	0x20002b40
10004578:	10009790 	.word	0x10009790
1000457c:	100097bc 	.word	0x100097bc
10004580:	20002b4f 	.word	0x20002b4f
10004584:	20002b65 	.word	0x20002b65

10004588 <timer_callback_s>:
10004588:	b530      	push	{r4, r5, lr}
1000458a:	b0a3      	sub	sp, #140	; 0x8c
1000458c:	4ab7      	ldr	r2, [pc, #732]	; (1000486c <timer_callback_s+0x2e4>)
1000458e:	7813      	ldrb	r3, [r2, #0]
10004590:	3301      	adds	r3, #1
10004592:	b2db      	uxtb	r3, r3
10004594:	7013      	strb	r3, [r2, #0]
10004596:	4ab6      	ldr	r2, [pc, #728]	; (10004870 <timer_callback_s+0x2e8>)
10004598:	8812      	ldrh	r2, [r2, #0]
1000459a:	2a00      	cmp	r2, #0
1000459c:	d002      	beq.n	100045a4 <timer_callback_s+0x1c>
1000459e:	3a01      	subs	r2, #1
100045a0:	49b3      	ldr	r1, [pc, #716]	; (10004870 <timer_callback_s+0x2e8>)
100045a2:	800a      	strh	r2, [r1, #0]
100045a4:	4ab3      	ldr	r2, [pc, #716]	; (10004874 <timer_callback_s+0x2ec>)
100045a6:	7812      	ldrb	r2, [r2, #0]
100045a8:	2aff      	cmp	r2, #255	; 0xff
100045aa:	d051      	beq.n	10004650 <timer_callback_s+0xc8>
100045ac:	2b3c      	cmp	r3, #60	; 0x3c
100045ae:	d058      	beq.n	10004662 <timer_callback_s+0xda>
100045b0:	4bb1      	ldr	r3, [pc, #708]	; (10004878 <timer_callback_s+0x2f0>)
100045b2:	681b      	ldr	r3, [r3, #0]
100045b4:	075b      	lsls	r3, r3, #29
100045b6:	d500      	bpl.n	100045ba <timer_callback_s+0x32>
100045b8:	e0ce      	b.n	10004758 <timer_callback_s+0x1d0>
100045ba:	4bad      	ldr	r3, [pc, #692]	; (10004870 <timer_callback_s+0x2e8>)
100045bc:	881b      	ldrh	r3, [r3, #0]
100045be:	2b00      	cmp	r3, #0
100045c0:	d10a      	bne.n	100045d8 <timer_callback_s+0x50>
100045c2:	4bae      	ldr	r3, [pc, #696]	; (1000487c <timer_callback_s+0x2f4>)
100045c4:	781b      	ldrb	r3, [r3, #0]
100045c6:	2b01      	cmp	r3, #1
100045c8:	d100      	bne.n	100045cc <timer_callback_s+0x44>
100045ca:	e0fe      	b.n	100047ca <timer_callback_s+0x242>
100045cc:	2b02      	cmp	r3, #2
100045ce:	d100      	bne.n	100045d2 <timer_callback_s+0x4a>
100045d0:	e0ec      	b.n	100047ac <timer_callback_s+0x224>
100045d2:	2b02      	cmp	r3, #2
100045d4:	d100      	bne.n	100045d8 <timer_callback_s+0x50>
100045d6:	e11a      	b.n	1000480e <timer_callback_s+0x286>
100045d8:	4ba4      	ldr	r3, [pc, #656]	; (1000486c <timer_callback_s+0x2e4>)
100045da:	781c      	ldrb	r4, [r3, #0]
100045dc:	2c00      	cmp	r4, #0
100045de:	d10b      	bne.n	100045f8 <timer_callback_s+0x70>
100045e0:	4ba7      	ldr	r3, [pc, #668]	; (10004880 <timer_callback_s+0x2f8>)
100045e2:	781d      	ldrb	r5, [r3, #0]
100045e4:	2105      	movs	r1, #5
100045e6:	0028      	movs	r0, r5
100045e8:	f003 fd54 	bl	10008094 <__wrap___aeabi_uidiv>
100045ec:	b2c9      	uxtb	r1, r1
100045ee:	2900      	cmp	r1, #0
100045f0:	d102      	bne.n	100045f8 <timer_callback_s+0x70>
100045f2:	2d00      	cmp	r5, #0
100045f4:	d000      	beq.n	100045f8 <timer_callback_s+0x70>
100045f6:	e11e      	b.n	10004836 <timer_callback_s+0x2ae>
100045f8:	2c05      	cmp	r4, #5
100045fa:	d100      	bne.n	100045fe <timer_callback_s+0x76>
100045fc:	e116      	b.n	1000482c <timer_callback_s+0x2a4>
100045fe:	4ba1      	ldr	r3, [pc, #644]	; (10004884 <timer_callback_s+0x2fc>)
10004600:	781b      	ldrb	r3, [r3, #0]
10004602:	2bff      	cmp	r3, #255	; 0xff
10004604:	d100      	bne.n	10004608 <timer_callback_s+0x80>
10004606:	e16f      	b.n	100048e8 <timer_callback_s+0x360>
10004608:	4b9f      	ldr	r3, [pc, #636]	; (10004888 <timer_callback_s+0x300>)
1000460a:	781b      	ldrb	r3, [r3, #0]
1000460c:	2bff      	cmp	r3, #255	; 0xff
1000460e:	d100      	bne.n	10004612 <timer_callback_s+0x8a>
10004610:	e1a6      	b.n	10004960 <timer_callback_s+0x3d8>
10004612:	4b9e      	ldr	r3, [pc, #632]	; (1000488c <timer_callback_s+0x304>)
10004614:	781b      	ldrb	r3, [r3, #0]
10004616:	2bff      	cmp	r3, #255	; 0xff
10004618:	d100      	bne.n	1000461c <timer_callback_s+0x94>
1000461a:	e1ea      	b.n	100049f2 <timer_callback_s+0x46a>
1000461c:	4b93      	ldr	r3, [pc, #588]	; (1000486c <timer_callback_s+0x2e4>)
1000461e:	781c      	ldrb	r4, [r3, #0]
10004620:	2c00      	cmp	r4, #0
10004622:	d107      	bne.n	10004634 <timer_callback_s+0xac>
10004624:	4b96      	ldr	r3, [pc, #600]	; (10004880 <timer_callback_s+0x2f8>)
10004626:	781b      	ldrb	r3, [r3, #0]
10004628:	2b0e      	cmp	r3, #14
1000462a:	d100      	bne.n	1000462e <timer_callback_s+0xa6>
1000462c:	e22d      	b.n	10004a8a <timer_callback_s+0x502>
1000462e:	2b2c      	cmp	r3, #44	; 0x2c
10004630:	d100      	bne.n	10004634 <timer_callback_s+0xac>
10004632:	e22a      	b.n	10004a8a <timer_callback_s+0x502>
10004634:	4b96      	ldr	r3, [pc, #600]	; (10004890 <timer_callback_s+0x308>)
10004636:	781b      	ldrb	r3, [r3, #0]
10004638:	2b02      	cmp	r3, #2
1000463a:	d100      	bne.n	1000463e <timer_callback_s+0xb6>
1000463c:	e257      	b.n	10004aee <timer_callback_s+0x566>
1000463e:	2b02      	cmp	r3, #2
10004640:	d100      	bne.n	10004644 <timer_callback_s+0xbc>
10004642:	e271      	b.n	10004b28 <timer_callback_s+0x5a0>
10004644:	2b03      	cmp	r3, #3
10004646:	d100      	bne.n	1000464a <timer_callback_s+0xc2>
10004648:	e28c      	b.n	10004b64 <timer_callback_s+0x5dc>
1000464a:	2001      	movs	r0, #1
1000464c:	b023      	add	sp, #140	; 0x8c
1000464e:	bd30      	pop	{r4, r5, pc}
10004650:	22d0      	movs	r2, #208	; 0xd0
10004652:	0612      	lsls	r2, r2, #24
10004654:	2180      	movs	r1, #128	; 0x80
10004656:	01c9      	lsls	r1, r1, #7
10004658:	6191      	str	r1, [r2, #24]
1000465a:	4a86      	ldr	r2, [pc, #536]	; (10004874 <timer_callback_s+0x2ec>)
1000465c:	2100      	movs	r1, #0
1000465e:	7011      	strb	r1, [r2, #0]
10004660:	e7a4      	b.n	100045ac <timer_callback_s+0x24>
10004662:	4a87      	ldr	r2, [pc, #540]	; (10004880 <timer_callback_s+0x2f8>)
10004664:	7813      	ldrb	r3, [r2, #0]
10004666:	3301      	adds	r3, #1
10004668:	b2db      	uxtb	r3, r3
1000466a:	7013      	strb	r3, [r2, #0]
1000466c:	4a7f      	ldr	r2, [pc, #508]	; (1000486c <timer_callback_s+0x2e4>)
1000466e:	2100      	movs	r1, #0
10004670:	7011      	strb	r1, [r2, #0]
10004672:	2b3c      	cmp	r3, #60	; 0x3c
10004674:	d030      	beq.n	100046d8 <timer_callback_s+0x150>
10004676:	4b83      	ldr	r3, [pc, #524]	; (10004884 <timer_callback_s+0x2fc>)
10004678:	781b      	ldrb	r3, [r3, #0]
1000467a:	2b00      	cmp	r3, #0
1000467c:	d106      	bne.n	1000468c <timer_callback_s+0x104>
1000467e:	4b85      	ldr	r3, [pc, #532]	; (10004894 <timer_callback_s+0x30c>)
10004680:	781b      	ldrb	r3, [r3, #0]
10004682:	2b00      	cmp	r3, #0
10004684:	d102      	bne.n	1000468c <timer_callback_s+0x104>
10004686:	4b84      	ldr	r3, [pc, #528]	; (10004898 <timer_callback_s+0x310>)
10004688:	22ff      	movs	r2, #255	; 0xff
1000468a:	701a      	strb	r2, [r3, #0]
1000468c:	4b83      	ldr	r3, [pc, #524]	; (1000489c <timer_callback_s+0x314>)
1000468e:	781b      	ldrb	r3, [r3, #0]
10004690:	2bff      	cmp	r3, #255	; 0xff
10004692:	d046      	beq.n	10004722 <timer_callback_s+0x19a>
10004694:	4b81      	ldr	r3, [pc, #516]	; (1000489c <timer_callback_s+0x314>)
10004696:	795b      	ldrb	r3, [r3, #5]
10004698:	2bff      	cmp	r3, #255	; 0xff
1000469a:	d000      	beq.n	1000469e <timer_callback_s+0x116>
1000469c:	e788      	b.n	100045b0 <timer_callback_s+0x28>
1000469e:	4b80      	ldr	r3, [pc, #512]	; (100048a0 <timer_callback_s+0x318>)
100046a0:	78da      	ldrb	r2, [r3, #3]
100046a2:	4b7e      	ldr	r3, [pc, #504]	; (1000489c <timer_callback_s+0x314>)
100046a4:	7a5b      	ldrb	r3, [r3, #9]
100046a6:	429a      	cmp	r2, r3
100046a8:	d000      	beq.n	100046ac <timer_callback_s+0x124>
100046aa:	e781      	b.n	100045b0 <timer_callback_s+0x28>
100046ac:	f000 faee 	bl	10004c8c <ds3231_check_alarm_1>
100046b0:	2800      	cmp	r0, #0
100046b2:	d100      	bne.n	100046b6 <timer_callback_s+0x12e>
100046b4:	e77c      	b.n	100045b0 <timer_callback_s+0x28>
100046b6:	23ff      	movs	r3, #255	; 0xff
100046b8:	4a6e      	ldr	r2, [pc, #440]	; (10004874 <timer_callback_s+0x2ec>)
100046ba:	7013      	strb	r3, [r2, #0]
100046bc:	22d0      	movs	r2, #208	; 0xd0
100046be:	0612      	lsls	r2, r2, #24
100046c0:	2180      	movs	r1, #128	; 0x80
100046c2:	01c9      	lsls	r1, r1, #7
100046c4:	6151      	str	r1, [r2, #20]
100046c6:	4a77      	ldr	r2, [pc, #476]	; (100048a4 <timer_callback_s+0x31c>)
100046c8:	7013      	strb	r3, [r2, #0]
100046ca:	4b77      	ldr	r3, [pc, #476]	; (100048a8 <timer_callback_s+0x320>)
100046cc:	2202      	movs	r2, #2
100046ce:	701a      	strb	r2, [r3, #0]
100046d0:	4b76      	ldr	r3, [pc, #472]	; (100048ac <timer_callback_s+0x324>)
100046d2:	2200      	movs	r2, #0
100046d4:	701a      	strb	r2, [r3, #0]
100046d6:	e76b      	b.n	100045b0 <timer_callback_s+0x28>
100046d8:	4b69      	ldr	r3, [pc, #420]	; (10004880 <timer_callback_s+0x2f8>)
100046da:	2200      	movs	r2, #0
100046dc:	701a      	strb	r2, [r3, #0]
100046de:	4a74      	ldr	r2, [pc, #464]	; (100048b0 <timer_callback_s+0x328>)
100046e0:	7813      	ldrb	r3, [r2, #0]
100046e2:	3301      	adds	r3, #1
100046e4:	b2db      	uxtb	r3, r3
100046e6:	7013      	strb	r3, [r2, #0]
100046e8:	2b18      	cmp	r3, #24
100046ea:	d016      	beq.n	1000471a <timer_callback_s+0x192>
100046ec:	4b71      	ldr	r3, [pc, #452]	; (100048b4 <timer_callback_s+0x32c>)
100046ee:	2200      	movs	r2, #0
100046f0:	701a      	strb	r2, [r3, #0]
100046f2:	4b61      	ldr	r3, [pc, #388]	; (10004878 <timer_callback_s+0x2f0>)
100046f4:	681b      	ldr	r3, [r3, #0]
100046f6:	075b      	lsls	r3, r3, #29
100046f8:	d5bd      	bpl.n	10004676 <timer_callback_s+0xee>
100046fa:	2300      	movs	r3, #0
100046fc:	9301      	str	r3, [sp, #4]
100046fe:	4b6c      	ldr	r3, [pc, #432]	; (100048b0 <timer_callback_s+0x328>)
10004700:	781b      	ldrb	r3, [r3, #0]
10004702:	9300      	str	r3, [sp, #0]
10004704:	2300      	movs	r3, #0
10004706:	496c      	ldr	r1, [pc, #432]	; (100048b8 <timer_callback_s+0x330>)
10004708:	a802      	add	r0, sp, #8
1000470a:	f003 fc43 	bl	10007f94 <__wrap_sprintf>
1000470e:	aa02      	add	r2, sp, #8
10004710:	496a      	ldr	r1, [pc, #424]	; (100048bc <timer_callback_s+0x334>)
10004712:	486b      	ldr	r0, [pc, #428]	; (100048c0 <timer_callback_s+0x338>)
10004714:	f7ff fb62 	bl	10003ddc <uart_send>
10004718:	e7ad      	b.n	10004676 <timer_callback_s+0xee>
1000471a:	0013      	movs	r3, r2
1000471c:	2200      	movs	r2, #0
1000471e:	701a      	strb	r2, [r3, #0]
10004720:	e7e4      	b.n	100046ec <timer_callback_s+0x164>
10004722:	4b5f      	ldr	r3, [pc, #380]	; (100048a0 <timer_callback_s+0x318>)
10004724:	78da      	ldrb	r2, [r3, #3]
10004726:	4b5d      	ldr	r3, [pc, #372]	; (1000489c <timer_callback_s+0x314>)
10004728:	791b      	ldrb	r3, [r3, #4]
1000472a:	429a      	cmp	r2, r3
1000472c:	d1b2      	bne.n	10004694 <timer_callback_s+0x10c>
1000472e:	f000 fa81 	bl	10004c34 <ds3231_check_alarm_0>
10004732:	2800      	cmp	r0, #0
10004734:	d0ae      	beq.n	10004694 <timer_callback_s+0x10c>
10004736:	23ff      	movs	r3, #255	; 0xff
10004738:	4a4e      	ldr	r2, [pc, #312]	; (10004874 <timer_callback_s+0x2ec>)
1000473a:	7013      	strb	r3, [r2, #0]
1000473c:	22d0      	movs	r2, #208	; 0xd0
1000473e:	0612      	lsls	r2, r2, #24
10004740:	2180      	movs	r1, #128	; 0x80
10004742:	01c9      	lsls	r1, r1, #7
10004744:	6151      	str	r1, [r2, #20]
10004746:	4a57      	ldr	r2, [pc, #348]	; (100048a4 <timer_callback_s+0x31c>)
10004748:	7013      	strb	r3, [r2, #0]
1000474a:	4b57      	ldr	r3, [pc, #348]	; (100048a8 <timer_callback_s+0x320>)
1000474c:	2201      	movs	r2, #1
1000474e:	701a      	strb	r2, [r3, #0]
10004750:	4b56      	ldr	r3, [pc, #344]	; (100048ac <timer_callback_s+0x324>)
10004752:	2200      	movs	r2, #0
10004754:	701a      	strb	r2, [r3, #0]
10004756:	e79d      	b.n	10004694 <timer_callback_s+0x10c>
10004758:	4b49      	ldr	r3, [pc, #292]	; (10004880 <timer_callback_s+0x2f8>)
1000475a:	781b      	ldrb	r3, [r3, #0]
1000475c:	4a43      	ldr	r2, [pc, #268]	; (1000486c <timer_callback_s+0x2e4>)
1000475e:	7812      	ldrb	r2, [r2, #0]
10004760:	4954      	ldr	r1, [pc, #336]	; (100048b4 <timer_callback_s+0x32c>)
10004762:	7809      	ldrb	r1, [r1, #0]
10004764:	9101      	str	r1, [sp, #4]
10004766:	4952      	ldr	r1, [pc, #328]	; (100048b0 <timer_callback_s+0x328>)
10004768:	7809      	ldrb	r1, [r1, #0]
1000476a:	9100      	str	r1, [sp, #0]
1000476c:	4952      	ldr	r1, [pc, #328]	; (100048b8 <timer_callback_s+0x330>)
1000476e:	a802      	add	r0, sp, #8
10004770:	f003 fc10 	bl	10007f94 <__wrap_sprintf>
10004774:	4c52      	ldr	r4, [pc, #328]	; (100048c0 <timer_callback_s+0x338>)
10004776:	aa02      	add	r2, sp, #8
10004778:	4952      	ldr	r1, [pc, #328]	; (100048c4 <timer_callback_s+0x33c>)
1000477a:	0020      	movs	r0, r4
1000477c:	f7ff fb2e 	bl	10003ddc <uart_send>
10004780:	4b51      	ldr	r3, [pc, #324]	; (100048c8 <timer_callback_s+0x340>)
10004782:	781b      	ldrb	r3, [r3, #0]
10004784:	4a51      	ldr	r2, [pc, #324]	; (100048cc <timer_callback_s+0x344>)
10004786:	5cd1      	ldrb	r1, [r2, r3]
10004788:	4b51      	ldr	r3, [pc, #324]	; (100048d0 <timer_callback_s+0x348>)
1000478a:	781b      	ldrb	r3, [r3, #0]
1000478c:	4a3b      	ldr	r2, [pc, #236]	; (1000487c <timer_callback_s+0x2f4>)
1000478e:	7812      	ldrb	r2, [r2, #0]
10004790:	9101      	str	r1, [sp, #4]
10004792:	4950      	ldr	r1, [pc, #320]	; (100048d4 <timer_callback_s+0x34c>)
10004794:	7809      	ldrb	r1, [r1, #0]
10004796:	9100      	str	r1, [sp, #0]
10004798:	494f      	ldr	r1, [pc, #316]	; (100048d8 <timer_callback_s+0x350>)
1000479a:	a802      	add	r0, sp, #8
1000479c:	f003 fbfa 	bl	10007f94 <__wrap_sprintf>
100047a0:	aa02      	add	r2, sp, #8
100047a2:	494e      	ldr	r1, [pc, #312]	; (100048dc <timer_callback_s+0x354>)
100047a4:	0020      	movs	r0, r4
100047a6:	f7ff fb19 	bl	10003ddc <uart_send>
100047aa:	e706      	b.n	100045ba <timer_callback_s+0x32>
100047ac:	4a48      	ldr	r2, [pc, #288]	; (100048d0 <timer_callback_s+0x348>)
100047ae:	7812      	ldrb	r2, [r2, #0]
100047b0:	4948      	ldr	r1, [pc, #288]	; (100048d4 <timer_callback_s+0x34c>)
100047b2:	7809      	ldrb	r1, [r1, #0]
100047b4:	428a      	cmp	r2, r1
100047b6:	d300      	bcc.n	100047ba <timer_callback_s+0x232>
100047b8:	e70b      	b.n	100045d2 <timer_callback_s+0x4a>
100047ba:	483d      	ldr	r0, [pc, #244]	; (100048b0 <timer_callback_s+0x328>)
100047bc:	7800      	ldrb	r0, [r0, #0]
100047be:	4282      	cmp	r2, r0
100047c0:	d900      	bls.n	100047c4 <timer_callback_s+0x23c>
100047c2:	e706      	b.n	100045d2 <timer_callback_s+0x4a>
100047c4:	4281      	cmp	r1, r0
100047c6:	d200      	bcs.n	100047ca <timer_callback_s+0x242>
100047c8:	e703      	b.n	100045d2 <timer_callback_s+0x4a>
100047ca:	4b2d      	ldr	r3, [pc, #180]	; (10004880 <timer_callback_s+0x2f8>)
100047cc:	781b      	ldrb	r3, [r3, #0]
100047ce:	2b00      	cmp	r3, #0
100047d0:	d000      	beq.n	100047d4 <timer_callback_s+0x24c>
100047d2:	e701      	b.n	100045d8 <timer_callback_s+0x50>
100047d4:	4b37      	ldr	r3, [pc, #220]	; (100048b4 <timer_callback_s+0x32c>)
100047d6:	781b      	ldrb	r3, [r3, #0]
100047d8:	2b00      	cmp	r3, #0
100047da:	d000      	beq.n	100047de <timer_callback_s+0x256>
100047dc:	e6fc      	b.n	100045d8 <timer_callback_s+0x50>
100047de:	4b3a      	ldr	r3, [pc, #232]	; (100048c8 <timer_callback_s+0x340>)
100047e0:	781b      	ldrb	r3, [r3, #0]
100047e2:	4a3a      	ldr	r2, [pc, #232]	; (100048cc <timer_callback_s+0x344>)
100047e4:	5cd3      	ldrb	r3, [r2, r3]
100047e6:	2b00      	cmp	r3, #0
100047e8:	d000      	beq.n	100047ec <timer_callback_s+0x264>
100047ea:	e6f5      	b.n	100045d8 <timer_callback_s+0x50>
100047ec:	23d0      	movs	r3, #208	; 0xd0
100047ee:	061b      	lsls	r3, r3, #24
100047f0:	2280      	movs	r2, #128	; 0x80
100047f2:	01d2      	lsls	r2, r2, #7
100047f4:	615a      	str	r2, [r3, #20]
100047f6:	23ff      	movs	r3, #255	; 0xff
100047f8:	4a2a      	ldr	r2, [pc, #168]	; (100048a4 <timer_callback_s+0x31c>)
100047fa:	7013      	strb	r3, [r2, #0]
100047fc:	4a2a      	ldr	r2, [pc, #168]	; (100048a8 <timer_callback_s+0x320>)
100047fe:	2103      	movs	r1, #3
10004800:	7011      	strb	r1, [r2, #0]
10004802:	4a2a      	ldr	r2, [pc, #168]	; (100048ac <timer_callback_s+0x324>)
10004804:	2100      	movs	r1, #0
10004806:	7011      	strb	r1, [r2, #0]
10004808:	4a2a      	ldr	r2, [pc, #168]	; (100048b4 <timer_callback_s+0x32c>)
1000480a:	7013      	strb	r3, [r2, #0]
1000480c:	e6e4      	b.n	100045d8 <timer_callback_s+0x50>
1000480e:	4b31      	ldr	r3, [pc, #196]	; (100048d4 <timer_callback_s+0x34c>)
10004810:	781b      	ldrb	r3, [r3, #0]
10004812:	4a2f      	ldr	r2, [pc, #188]	; (100048d0 <timer_callback_s+0x348>)
10004814:	7812      	ldrb	r2, [r2, #0]
10004816:	4293      	cmp	r3, r2
10004818:	d300      	bcc.n	1000481c <timer_callback_s+0x294>
1000481a:	e6dd      	b.n	100045d8 <timer_callback_s+0x50>
1000481c:	4924      	ldr	r1, [pc, #144]	; (100048b0 <timer_callback_s+0x328>)
1000481e:	7809      	ldrb	r1, [r1, #0]
10004820:	428b      	cmp	r3, r1
10004822:	d9d2      	bls.n	100047ca <timer_callback_s+0x242>
10004824:	428a      	cmp	r2, r1
10004826:	d200      	bcs.n	1000482a <timer_callback_s+0x2a2>
10004828:	e6d6      	b.n	100045d8 <timer_callback_s+0x50>
1000482a:	e7ce      	b.n	100047ca <timer_callback_s+0x242>
1000482c:	4b14      	ldr	r3, [pc, #80]	; (10004880 <timer_callback_s+0x2f8>)
1000482e:	781b      	ldrb	r3, [r3, #0]
10004830:	2b00      	cmp	r3, #0
10004832:	d000      	beq.n	10004836 <timer_callback_s+0x2ae>
10004834:	e6e3      	b.n	100045fe <timer_callback_s+0x76>
10004836:	4b2a      	ldr	r3, [pc, #168]	; (100048e0 <timer_callback_s+0x358>)
10004838:	781b      	ldrb	r3, [r3, #0]
1000483a:	2bff      	cmp	r3, #255	; 0xff
1000483c:	d000      	beq.n	10004840 <timer_callback_s+0x2b8>
1000483e:	e6de      	b.n	100045fe <timer_callback_s+0x76>
10004840:	4b28      	ldr	r3, [pc, #160]	; (100048e4 <timer_callback_s+0x35c>)
10004842:	781b      	ldrb	r3, [r3, #0]
10004844:	2b04      	cmp	r3, #4
10004846:	d000      	beq.n	1000484a <timer_callback_s+0x2c2>
10004848:	e6d9      	b.n	100045fe <timer_callback_s+0x76>
1000484a:	20fc      	movs	r0, #252	; 0xfc
1000484c:	f7fc fcf2 	bl	10001234 <scroll_queue>
10004850:	20f4      	movs	r0, #244	; 0xf4
10004852:	f7fc fcef 	bl	10001234 <scroll_queue>
10004856:	20f9      	movs	r0, #249	; 0xf9
10004858:	f7fc fcec 	bl	10001234 <scroll_queue>
1000485c:	20f7      	movs	r0, #247	; 0xf7
1000485e:	f7fc fce9 	bl	10001234 <scroll_queue>
10004862:	20f3      	movs	r0, #243	; 0xf3
10004864:	f7fc fce6 	bl	10001234 <scroll_queue>
10004868:	e6c9      	b.n	100045fe <timer_callback_s+0x76>
1000486a:	46c0      	nop			; (mov r8, r8)
1000486c:	20002b6a 	.word	0x20002b6a
10004870:	20002b38 	.word	0x20002b38
10004874:	20002b4c 	.word	0x20002b4c
10004878:	20000f08 	.word	0x20000f08
1000487c:	20002b5d 	.word	0x20002b5d
10004880:	20002b47 	.word	0x20002b47
10004884:	20002b4f 	.word	0x20002b4f
10004888:	20002b56 	.word	0x20002b56
1000488c:	20002b57 	.word	0x20002b57
10004890:	20002b60 	.word	0x20002b60
10004894:	20002b69 	.word	0x20002b69
10004898:	20002b5c 	.word	0x20002b5c
1000489c:	20001044 	.word	0x20001044
100048a0:	20002768 	.word	0x20002768
100048a4:	20002b5b 	.word	0x20002b5b
100048a8:	20002b76 	.word	0x20002b76
100048ac:	20002b74 	.word	0x20002b74
100048b0:	20002b46 	.word	0x20002b46
100048b4:	20002b4d 	.word	0x20002b4d
100048b8:	100097e8 	.word	0x100097e8
100048bc:	0000274c 	.word	0x0000274c
100048c0:	40038000 	.word	0x40038000
100048c4:	0000278a 	.word	0x0000278a
100048c8:	20000935 	.word	0x20000935
100048cc:	20001a70 	.word	0x20001a70
100048d0:	20000662 	.word	0x20000662
100048d4:	20000660 	.word	0x20000660
100048d8:	10009824 	.word	0x10009824
100048dc:	0000278c 	.word	0x0000278c
100048e0:	20000770 	.word	0x20000770
100048e4:	20002b43 	.word	0x20002b43
100048e8:	4aa9      	ldr	r2, [pc, #676]	; (10004b90 <timer_callback_s+0x608>)
100048ea:	7813      	ldrb	r3, [r2, #0]
100048ec:	3301      	adds	r3, #1
100048ee:	b2db      	uxtb	r3, r3
100048f0:	7013      	strb	r3, [r2, #0]
100048f2:	2b14      	cmp	r3, #20
100048f4:	d000      	beq.n	100048f8 <timer_callback_s+0x370>
100048f6:	e687      	b.n	10004608 <timer_callback_s+0x80>
100048f8:	f7fd f944 	bl	10001b84 <set_mode_timeout>
100048fc:	f7fd f86e 	bl	100019dc <set_mode_out>
10004900:	4ba4      	ldr	r3, [pc, #656]	; (10004b94 <timer_callback_s+0x60c>)
10004902:	781a      	ldrb	r2, [r3, #0]
10004904:	4ba4      	ldr	r3, [pc, #656]	; (10004b98 <timer_callback_s+0x610>)
10004906:	701a      	strb	r2, [r3, #0]
10004908:	4ba4      	ldr	r3, [pc, #656]	; (10004b9c <timer_callback_s+0x614>)
1000490a:	781b      	ldrb	r3, [r3, #0]
1000490c:	2b00      	cmp	r3, #0
1000490e:	d105      	bne.n	1000491c <timer_callback_s+0x394>
10004910:	009a      	lsls	r2, r3, #2
10004912:	18d2      	adds	r2, r2, r3
10004914:	49a2      	ldr	r1, [pc, #648]	; (10004ba0 <timer_callback_s+0x618>)
10004916:	5c52      	ldrb	r2, [r2, r1]
10004918:	2aff      	cmp	r2, #255	; 0xff
1000491a:	d014      	beq.n	10004946 <timer_callback_s+0x3be>
1000491c:	4b9f      	ldr	r3, [pc, #636]	; (10004b9c <timer_callback_s+0x614>)
1000491e:	781b      	ldrb	r3, [r3, #0]
10004920:	2b00      	cmp	r3, #0
10004922:	d100      	bne.n	10004926 <timer_callback_s+0x39e>
10004924:	e670      	b.n	10004608 <timer_callback_s+0x80>
10004926:	009a      	lsls	r2, r3, #2
10004928:	18d2      	adds	r2, r2, r3
1000492a:	499d      	ldr	r1, [pc, #628]	; (10004ba0 <timer_callback_s+0x618>)
1000492c:	5c52      	ldrb	r2, [r2, r1]
1000492e:	2aff      	cmp	r2, #255	; 0xff
10004930:	d000      	beq.n	10004934 <timer_callback_s+0x3ac>
10004932:	e669      	b.n	10004608 <timer_callback_s+0x80>
10004934:	009a      	lsls	r2, r3, #2
10004936:	18d2      	adds	r2, r2, r3
10004938:	188b      	adds	r3, r1, r2
1000493a:	791a      	ldrb	r2, [r3, #4]
1000493c:	78d9      	ldrb	r1, [r3, #3]
1000493e:	7898      	ldrb	r0, [r3, #2]
10004940:	f000 fab4 	bl	10004eac <set_alarm2_clock>
10004944:	e660      	b.n	10004608 <timer_callback_s+0x80>
10004946:	0099      	lsls	r1, r3, #2
10004948:	18cb      	adds	r3, r1, r3
1000494a:	4995      	ldr	r1, [pc, #596]	; (10004ba0 <timer_callback_s+0x618>)
1000494c:	18c9      	adds	r1, r1, r3
1000494e:	78cb      	ldrb	r3, [r1, #3]
10004950:	788a      	ldrb	r2, [r1, #2]
10004952:	7909      	ldrb	r1, [r1, #4]
10004954:	9100      	str	r1, [sp, #0]
10004956:	2100      	movs	r1, #0
10004958:	2001      	movs	r0, #1
1000495a:	f000 fa23 	bl	10004da4 <set_alarm1_clock>
1000495e:	e7dd      	b.n	1000491c <timer_callback_s+0x394>
10004960:	4b90      	ldr	r3, [pc, #576]	; (10004ba4 <timer_callback_s+0x61c>)
10004962:	781b      	ldrb	r3, [r3, #0]
10004964:	2b00      	cmp	r3, #0
10004966:	d11d      	bne.n	100049a4 <timer_callback_s+0x41c>
10004968:	4a8f      	ldr	r2, [pc, #572]	; (10004ba8 <timer_callback_s+0x620>)
1000496a:	7812      	ldrb	r2, [r2, #0]
1000496c:	2a00      	cmp	r2, #0
1000496e:	d119      	bne.n	100049a4 <timer_callback_s+0x41c>
10004970:	23d0      	movs	r3, #208	; 0xd0
10004972:	061b      	lsls	r3, r3, #24
10004974:	2280      	movs	r2, #128	; 0x80
10004976:	01d2      	lsls	r2, r2, #7
10004978:	615a      	str	r2, [r3, #20]
1000497a:	22ff      	movs	r2, #255	; 0xff
1000497c:	4b8b      	ldr	r3, [pc, #556]	; (10004bac <timer_callback_s+0x624>)
1000497e:	701a      	strb	r2, [r3, #0]
10004980:	4b8b      	ldr	r3, [pc, #556]	; (10004bb0 <timer_callback_s+0x628>)
10004982:	2106      	movs	r1, #6
10004984:	7019      	strb	r1, [r3, #0]
10004986:	2300      	movs	r3, #0
10004988:	498a      	ldr	r1, [pc, #552]	; (10004bb4 <timer_callback_s+0x62c>)
1000498a:	700b      	strb	r3, [r1, #0]
1000498c:	498a      	ldr	r1, [pc, #552]	; (10004bb8 <timer_callback_s+0x630>)
1000498e:	700b      	strb	r3, [r1, #0]
10004990:	498a      	ldr	r1, [pc, #552]	; (10004bbc <timer_callback_s+0x634>)
10004992:	700b      	strb	r3, [r1, #0]
10004994:	4b8a      	ldr	r3, [pc, #552]	; (10004bc0 <timer_callback_s+0x638>)
10004996:	701a      	strb	r2, [r3, #0]
10004998:	4a8a      	ldr	r2, [pc, #552]	; (10004bc4 <timer_callback_s+0x63c>)
1000499a:	7893      	ldrb	r3, [r2, #2]
1000499c:	2103      	movs	r1, #3
1000499e:	438b      	bics	r3, r1
100049a0:	7093      	strb	r3, [r2, #2]
100049a2:	e636      	b.n	10004612 <timer_callback_s+0x8a>
100049a4:	4988      	ldr	r1, [pc, #544]	; (10004bc8 <timer_callback_s+0x640>)
100049a6:	780a      	ldrb	r2, [r1, #0]
100049a8:	3201      	adds	r2, #1
100049aa:	700a      	strb	r2, [r1, #0]
100049ac:	3b01      	subs	r3, #1
100049ae:	b2db      	uxtb	r3, r3
100049b0:	4a7c      	ldr	r2, [pc, #496]	; (10004ba4 <timer_callback_s+0x61c>)
100049b2:	7013      	strb	r3, [r2, #0]
100049b4:	2bff      	cmp	r3, #255	; 0xff
100049b6:	d018      	beq.n	100049ea <timer_callback_s+0x462>
100049b8:	4b7a      	ldr	r3, [pc, #488]	; (10004ba4 <timer_callback_s+0x61c>)
100049ba:	781b      	ldrb	r3, [r3, #0]
100049bc:	2b00      	cmp	r3, #0
100049be:	d10c      	bne.n	100049da <timer_callback_s+0x452>
100049c0:	4b79      	ldr	r3, [pc, #484]	; (10004ba8 <timer_callback_s+0x620>)
100049c2:	781b      	ldrb	r3, [r3, #0]
100049c4:	2b00      	cmp	r3, #0
100049c6:	d008      	beq.n	100049da <timer_callback_s+0x452>
100049c8:	3b01      	subs	r3, #1
100049ca:	4a77      	ldr	r2, [pc, #476]	; (10004ba8 <timer_callback_s+0x620>)
100049cc:	7013      	strb	r3, [r2, #0]
100049ce:	4b75      	ldr	r3, [pc, #468]	; (10004ba4 <timer_callback_s+0x61c>)
100049d0:	223b      	movs	r2, #59	; 0x3b
100049d2:	701a      	strb	r2, [r3, #0]
100049d4:	4b7d      	ldr	r3, [pc, #500]	; (10004bcc <timer_callback_s+0x644>)
100049d6:	2200      	movs	r2, #0
100049d8:	701a      	strb	r2, [r3, #0]
100049da:	4b7b      	ldr	r3, [pc, #492]	; (10004bc8 <timer_callback_s+0x640>)
100049dc:	2200      	movs	r2, #0
100049de:	701a      	strb	r2, [r3, #0]
100049e0:	4b70      	ldr	r3, [pc, #448]	; (10004ba4 <timer_callback_s+0x61c>)
100049e2:	781a      	ldrb	r2, [r3, #0]
100049e4:	4b79      	ldr	r3, [pc, #484]	; (10004bcc <timer_callback_s+0x644>)
100049e6:	701a      	strb	r2, [r3, #0]
100049e8:	e613      	b.n	10004612 <timer_callback_s+0x8a>
100049ea:	0013      	movs	r3, r2
100049ec:	2200      	movs	r2, #0
100049ee:	701a      	strb	r2, [r3, #0]
100049f0:	e7e2      	b.n	100049b8 <timer_callback_s+0x430>
100049f2:	4a6c      	ldr	r2, [pc, #432]	; (10004ba4 <timer_callback_s+0x61c>)
100049f4:	7813      	ldrb	r3, [r2, #0]
100049f6:	3301      	adds	r3, #1
100049f8:	b2db      	uxtb	r3, r3
100049fa:	7013      	strb	r3, [r2, #0]
100049fc:	4972      	ldr	r1, [pc, #456]	; (10004bc8 <timer_callback_s+0x640>)
100049fe:	780a      	ldrb	r2, [r1, #0]
10004a00:	3201      	adds	r2, #1
10004a02:	700a      	strb	r2, [r1, #0]
10004a04:	2b3c      	cmp	r3, #60	; 0x3c
10004a06:	d007      	beq.n	10004a18 <timer_callback_s+0x490>
10004a08:	4b6f      	ldr	r3, [pc, #444]	; (10004bc8 <timer_callback_s+0x640>)
10004a0a:	2200      	movs	r2, #0
10004a0c:	701a      	strb	r2, [r3, #0]
10004a0e:	4b65      	ldr	r3, [pc, #404]	; (10004ba4 <timer_callback_s+0x61c>)
10004a10:	781a      	ldrb	r2, [r3, #0]
10004a12:	4b6e      	ldr	r3, [pc, #440]	; (10004bcc <timer_callback_s+0x644>)
10004a14:	701a      	strb	r2, [r3, #0]
10004a16:	e601      	b.n	1000461c <timer_callback_s+0x94>
10004a18:	4b62      	ldr	r3, [pc, #392]	; (10004ba4 <timer_callback_s+0x61c>)
10004a1a:	2200      	movs	r2, #0
10004a1c:	701a      	strb	r2, [r3, #0]
10004a1e:	4a62      	ldr	r2, [pc, #392]	; (10004ba8 <timer_callback_s+0x620>)
10004a20:	7813      	ldrb	r3, [r2, #0]
10004a22:	3301      	adds	r3, #1
10004a24:	b2db      	uxtb	r3, r3
10004a26:	7013      	strb	r3, [r2, #0]
10004a28:	2b3c      	cmp	r3, #60	; 0x3c
10004a2a:	d1ed      	bne.n	10004a08 <timer_callback_s+0x480>
10004a2c:	0013      	movs	r3, r2
10004a2e:	2200      	movs	r2, #0
10004a30:	701a      	strb	r2, [r3, #0]
10004a32:	e7e9      	b.n	10004a08 <timer_callback_s+0x480>
10004a34:	23d0      	movs	r3, #208	; 0xd0
10004a36:	061b      	lsls	r3, r3, #24
10004a38:	2280      	movs	r2, #128	; 0x80
10004a3a:	01d2      	lsls	r2, r2, #7
10004a3c:	615a      	str	r2, [r3, #20]
10004a3e:	4b5b      	ldr	r3, [pc, #364]	; (10004bac <timer_callback_s+0x624>)
10004a40:	22ff      	movs	r2, #255	; 0xff
10004a42:	701a      	strb	r2, [r3, #0]
10004a44:	4b5a      	ldr	r3, [pc, #360]	; (10004bb0 <timer_callback_s+0x628>)
10004a46:	3afe      	subs	r2, #254	; 0xfe
10004a48:	701a      	strb	r2, [r3, #0]
10004a4a:	4b5a      	ldr	r3, [pc, #360]	; (10004bb4 <timer_callback_s+0x62c>)
10004a4c:	2200      	movs	r2, #0
10004a4e:	701a      	strb	r2, [r3, #0]
10004a50:	e5f0      	b.n	10004634 <timer_callback_s+0xac>
10004a52:	4a5f      	ldr	r2, [pc, #380]	; (10004bd0 <timer_callback_s+0x648>)
10004a54:	7812      	ldrb	r2, [r2, #0]
10004a56:	495f      	ldr	r1, [pc, #380]	; (10004bd4 <timer_callback_s+0x64c>)
10004a58:	7809      	ldrb	r1, [r1, #0]
10004a5a:	428a      	cmp	r2, r1
10004a5c:	d238      	bcs.n	10004ad0 <timer_callback_s+0x548>
10004a5e:	485e      	ldr	r0, [pc, #376]	; (10004bd8 <timer_callback_s+0x650>)
10004a60:	7800      	ldrb	r0, [r0, #0]
10004a62:	4282      	cmp	r2, r0
10004a64:	d834      	bhi.n	10004ad0 <timer_callback_s+0x548>
10004a66:	4281      	cmp	r1, r0
10004a68:	d332      	bcc.n	10004ad0 <timer_callback_s+0x548>
10004a6a:	23d0      	movs	r3, #208	; 0xd0
10004a6c:	061b      	lsls	r3, r3, #24
10004a6e:	2280      	movs	r2, #128	; 0x80
10004a70:	01d2      	lsls	r2, r2, #7
10004a72:	615a      	str	r2, [r3, #20]
10004a74:	4b4d      	ldr	r3, [pc, #308]	; (10004bac <timer_callback_s+0x624>)
10004a76:	22ff      	movs	r2, #255	; 0xff
10004a78:	701a      	strb	r2, [r3, #0]
10004a7a:	4b4d      	ldr	r3, [pc, #308]	; (10004bb0 <timer_callback_s+0x628>)
10004a7c:	3afb      	subs	r2, #251	; 0xfb
10004a7e:	701a      	strb	r2, [r3, #0]
10004a80:	4b4c      	ldr	r3, [pc, #304]	; (10004bb4 <timer_callback_s+0x62c>)
10004a82:	2200      	movs	r2, #0
10004a84:	701a      	strb	r2, [r3, #0]
10004a86:	3401      	adds	r4, #1
10004a88:	b2e4      	uxtb	r4, r4
10004a8a:	2c31      	cmp	r4, #49	; 0x31
10004a8c:	d900      	bls.n	10004a90 <timer_callback_s+0x508>
10004a8e:	e5d1      	b.n	10004634 <timer_callback_s+0xac>
10004a90:	232e      	movs	r3, #46	; 0x2e
10004a92:	4363      	muls	r3, r4
10004a94:	4a51      	ldr	r2, [pc, #324]	; (10004bdc <timer_callback_s+0x654>)
10004a96:	5c9a      	ldrb	r2, [r3, r2]
10004a98:	4b51      	ldr	r3, [pc, #324]	; (10004be0 <timer_callback_s+0x658>)
10004a9a:	781b      	ldrb	r3, [r3, #0]
10004a9c:	429a      	cmp	r2, r3
10004a9e:	d1f2      	bne.n	10004a86 <timer_callback_s+0x4fe>
10004aa0:	222e      	movs	r2, #46	; 0x2e
10004aa2:	4362      	muls	r2, r4
10004aa4:	4b4d      	ldr	r3, [pc, #308]	; (10004bdc <timer_callback_s+0x654>)
10004aa6:	189b      	adds	r3, r3, r2
10004aa8:	785a      	ldrb	r2, [r3, #1]
10004aaa:	4b4e      	ldr	r3, [pc, #312]	; (10004be4 <timer_callback_s+0x65c>)
10004aac:	781b      	ldrb	r3, [r3, #0]
10004aae:	429a      	cmp	r2, r3
10004ab0:	d1e9      	bne.n	10004a86 <timer_callback_s+0x4fe>
10004ab2:	0020      	movs	r0, r4
10004ab4:	f7fc fbbe 	bl	10001234 <scroll_queue>
10004ab8:	2800      	cmp	r0, #0
10004aba:	d1bb      	bne.n	10004a34 <timer_callback_s+0x4ac>
10004abc:	4b4a      	ldr	r3, [pc, #296]	; (10004be8 <timer_callback_s+0x660>)
10004abe:	881b      	ldrh	r3, [r3, #0]
10004ac0:	2b00      	cmp	r3, #0
10004ac2:	d1e0      	bne.n	10004a86 <timer_callback_s+0x4fe>
10004ac4:	4b49      	ldr	r3, [pc, #292]	; (10004bec <timer_callback_s+0x664>)
10004ac6:	781b      	ldrb	r3, [r3, #0]
10004ac8:	2b01      	cmp	r3, #1
10004aca:	d0ce      	beq.n	10004a6a <timer_callback_s+0x4e2>
10004acc:	2b02      	cmp	r3, #2
10004ace:	d0c0      	beq.n	10004a52 <timer_callback_s+0x4ca>
10004ad0:	2b02      	cmp	r3, #2
10004ad2:	d1d8      	bne.n	10004a86 <timer_callback_s+0x4fe>
10004ad4:	4b3f      	ldr	r3, [pc, #252]	; (10004bd4 <timer_callback_s+0x64c>)
10004ad6:	781b      	ldrb	r3, [r3, #0]
10004ad8:	4a3d      	ldr	r2, [pc, #244]	; (10004bd0 <timer_callback_s+0x648>)
10004ada:	7812      	ldrb	r2, [r2, #0]
10004adc:	4293      	cmp	r3, r2
10004ade:	d2d2      	bcs.n	10004a86 <timer_callback_s+0x4fe>
10004ae0:	493d      	ldr	r1, [pc, #244]	; (10004bd8 <timer_callback_s+0x650>)
10004ae2:	7809      	ldrb	r1, [r1, #0]
10004ae4:	428b      	cmp	r3, r1
10004ae6:	d9c0      	bls.n	10004a6a <timer_callback_s+0x4e2>
10004ae8:	428a      	cmp	r2, r1
10004aea:	d3cc      	bcc.n	10004a86 <timer_callback_s+0x4fe>
10004aec:	e7bd      	b.n	10004a6a <timer_callback_s+0x4e2>
10004aee:	4a3a      	ldr	r2, [pc, #232]	; (10004bd8 <timer_callback_s+0x650>)
10004af0:	7812      	ldrb	r2, [r2, #0]
10004af2:	493f      	ldr	r1, [pc, #252]	; (10004bf0 <timer_callback_s+0x668>)
10004af4:	7809      	ldrb	r1, [r1, #0]
10004af6:	428a      	cmp	r2, r1
10004af8:	d304      	bcc.n	10004b04 <timer_callback_s+0x57c>
10004afa:	493e      	ldr	r1, [pc, #248]	; (10004bf4 <timer_callback_s+0x66c>)
10004afc:	7809      	ldrb	r1, [r1, #0]
10004afe:	428a      	cmp	r2, r1
10004b00:	d200      	bcs.n	10004b04 <timer_callback_s+0x57c>
10004b02:	e59c      	b.n	1000463e <timer_callback_s+0xb6>
10004b04:	4a3c      	ldr	r2, [pc, #240]	; (10004bf8 <timer_callback_s+0x670>)
10004b06:	7812      	ldrb	r2, [r2, #0]
10004b08:	2a00      	cmp	r2, #0
10004b0a:	d000      	beq.n	10004b0e <timer_callback_s+0x586>
10004b0c:	e597      	b.n	1000463e <timer_callback_s+0xb6>
10004b0e:	4a3b      	ldr	r2, [pc, #236]	; (10004bfc <timer_callback_s+0x674>)
10004b10:	7812      	ldrb	r2, [r2, #0]
10004b12:	493b      	ldr	r1, [pc, #236]	; (10004c00 <timer_callback_s+0x678>)
10004b14:	5c8a      	ldrb	r2, [r1, r2]
10004b16:	2a00      	cmp	r2, #0
10004b18:	d000      	beq.n	10004b1c <timer_callback_s+0x594>
10004b1a:	e590      	b.n	1000463e <timer_callback_s+0xb6>
10004b1c:	4929      	ldr	r1, [pc, #164]	; (10004bc4 <timer_callback_s+0x63c>)
10004b1e:	780a      	ldrb	r2, [r1, #0]
10004b20:	2024      	movs	r0, #36	; 0x24
10004b22:	4302      	orrs	r2, r0
10004b24:	700a      	strb	r2, [r1, #0]
10004b26:	e58a      	b.n	1000463e <timer_callback_s+0xb6>
10004b28:	4a2b      	ldr	r2, [pc, #172]	; (10004bd8 <timer_callback_s+0x650>)
10004b2a:	7812      	ldrb	r2, [r2, #0]
10004b2c:	4930      	ldr	r1, [pc, #192]	; (10004bf0 <timer_callback_s+0x668>)
10004b2e:	7809      	ldrb	r1, [r1, #0]
10004b30:	428a      	cmp	r2, r1
10004b32:	d200      	bcs.n	10004b36 <timer_callback_s+0x5ae>
10004b34:	e586      	b.n	10004644 <timer_callback_s+0xbc>
10004b36:	492f      	ldr	r1, [pc, #188]	; (10004bf4 <timer_callback_s+0x66c>)
10004b38:	7809      	ldrb	r1, [r1, #0]
10004b3a:	428a      	cmp	r2, r1
10004b3c:	d300      	bcc.n	10004b40 <timer_callback_s+0x5b8>
10004b3e:	e581      	b.n	10004644 <timer_callback_s+0xbc>
10004b40:	4a2d      	ldr	r2, [pc, #180]	; (10004bf8 <timer_callback_s+0x670>)
10004b42:	7812      	ldrb	r2, [r2, #0]
10004b44:	2a00      	cmp	r2, #0
10004b46:	d000      	beq.n	10004b4a <timer_callback_s+0x5c2>
10004b48:	e57c      	b.n	10004644 <timer_callback_s+0xbc>
10004b4a:	4a2c      	ldr	r2, [pc, #176]	; (10004bfc <timer_callback_s+0x674>)
10004b4c:	7812      	ldrb	r2, [r2, #0]
10004b4e:	492c      	ldr	r1, [pc, #176]	; (10004c00 <timer_callback_s+0x678>)
10004b50:	5c8a      	ldrb	r2, [r1, r2]
10004b52:	2a00      	cmp	r2, #0
10004b54:	d000      	beq.n	10004b58 <timer_callback_s+0x5d0>
10004b56:	e575      	b.n	10004644 <timer_callback_s+0xbc>
10004b58:	491a      	ldr	r1, [pc, #104]	; (10004bc4 <timer_callback_s+0x63c>)
10004b5a:	780a      	ldrb	r2, [r1, #0]
10004b5c:	2024      	movs	r0, #36	; 0x24
10004b5e:	4382      	bics	r2, r0
10004b60:	700a      	strb	r2, [r1, #0]
10004b62:	e56f      	b.n	10004644 <timer_callback_s+0xbc>
10004b64:	f7fb ff0e 	bl	10000984 <get_ads1015>
10004b68:	2393      	movs	r3, #147	; 0x93
10004b6a:	005b      	lsls	r3, r3, #1
10004b6c:	4298      	cmp	r0, r3
10004b6e:	d804      	bhi.n	10004b7a <timer_callback_s+0x5f2>
10004b70:	4a14      	ldr	r2, [pc, #80]	; (10004bc4 <timer_callback_s+0x63c>)
10004b72:	7813      	ldrb	r3, [r2, #0]
10004b74:	2124      	movs	r1, #36	; 0x24
10004b76:	430b      	orrs	r3, r1
10004b78:	7013      	strb	r3, [r2, #0]
10004b7a:	23c8      	movs	r3, #200	; 0xc8
10004b7c:	005b      	lsls	r3, r3, #1
10004b7e:	4298      	cmp	r0, r3
10004b80:	d800      	bhi.n	10004b84 <timer_callback_s+0x5fc>
10004b82:	e562      	b.n	1000464a <timer_callback_s+0xc2>
10004b84:	4a0f      	ldr	r2, [pc, #60]	; (10004bc4 <timer_callback_s+0x63c>)
10004b86:	7813      	ldrb	r3, [r2, #0]
10004b88:	2124      	movs	r1, #36	; 0x24
10004b8a:	438b      	bics	r3, r1
10004b8c:	7013      	strb	r3, [r2, #0]
10004b8e:	e55c      	b.n	1000464a <timer_callback_s+0xc2>
10004b90:	20002b5e 	.word	0x20002b5e
10004b94:	20002b64 	.word	0x20002b64
10004b98:	20002b6c 	.word	0x20002b6c
10004b9c:	20002b42 	.word	0x20002b42
10004ba0:	20001044 	.word	0x20001044
10004ba4:	20002b70 	.word	0x20002b70
10004ba8:	20002b6e 	.word	0x20002b6e
10004bac:	20002b5b 	.word	0x20002b5b
10004bb0:	20002b76 	.word	0x20002b76
10004bb4:	20002b74 	.word	0x20002b74
10004bb8:	20002b6b 	.word	0x20002b6b
10004bbc:	20002b56 	.word	0x20002b56
10004bc0:	20002b59 	.word	0x20002b59
10004bc4:	2000195c 	.word	0x2000195c
10004bc8:	20002b71 	.word	0x20002b71
10004bcc:	20002b72 	.word	0x20002b72
10004bd0:	20000662 	.word	0x20000662
10004bd4:	20000660 	.word	0x20000660
10004bd8:	20002b46 	.word	0x20002b46
10004bdc:	20001060 	.word	0x20001060
10004be0:	20002b44 	.word	0x20002b44
10004be4:	20002b49 	.word	0x20002b49
10004be8:	20002b38 	.word	0x20002b38
10004bec:	20002b5d 	.word	0x20002b5d
10004bf0:	2000092a 	.word	0x2000092a
10004bf4:	2000092b 	.word	0x2000092b
10004bf8:	20002b6a 	.word	0x20002b6a
10004bfc:	20000935 	.word	0x20000935
10004c00:	20001a70 	.word	0x20001a70

10004c04 <bcd_to_byte>:
10004c04:	0002      	movs	r2, r0
10004c06:	0903      	lsrs	r3, r0, #4
10004c08:	200f      	movs	r0, #15
10004c0a:	4010      	ands	r0, r2
10004c0c:	009a      	lsls	r2, r3, #2
10004c0e:	189b      	adds	r3, r3, r2
10004c10:	005b      	lsls	r3, r3, #1
10004c12:	18c0      	adds	r0, r0, r3
10004c14:	b2c0      	uxtb	r0, r0
10004c16:	4770      	bx	lr

10004c18 <dec_to_bcd>:
10004c18:	b570      	push	{r4, r5, r6, lr}
10004c1a:	0005      	movs	r5, r0
10004c1c:	210a      	movs	r1, #10
10004c1e:	f003 fa11 	bl	10008044 <__wrap___aeabi_idiv>
10004c22:	0004      	movs	r4, r0
10004c24:	210a      	movs	r1, #10
10004c26:	0028      	movs	r0, r5
10004c28:	f003 fa0c 	bl	10008044 <__wrap___aeabi_idiv>
10004c2c:	0124      	lsls	r4, r4, #4
10004c2e:	1864      	adds	r4, r4, r1
10004c30:	b2e0      	uxtb	r0, r4
10004c32:	bd70      	pop	{r4, r5, r6, pc}

10004c34 <ds3231_check_alarm_0>:
10004c34:	b510      	push	{r4, lr}
10004c36:	b084      	sub	sp, #16
10004c38:	230f      	movs	r3, #15
10004c3a:	466a      	mov	r2, sp
10004c3c:	8193      	strh	r3, [r2, #12]
10004c3e:	4c12      	ldr	r4, [pc, #72]	; (10004c88 <ds3231_check_alarm_0+0x54>)
10004c40:	3b0e      	subs	r3, #14
10004c42:	9300      	str	r3, [sp, #0]
10004c44:	aa03      	add	r2, sp, #12
10004c46:	2168      	movs	r1, #104	; 0x68
10004c48:	0020      	movs	r0, r4
10004c4a:	f004 fa37 	bl	100090bc <i2c_write_blocking>
10004c4e:	2300      	movs	r3, #0
10004c50:	9300      	str	r3, [sp, #0]
10004c52:	3301      	adds	r3, #1
10004c54:	220d      	movs	r2, #13
10004c56:	446a      	add	r2, sp
10004c58:	2168      	movs	r1, #104	; 0x68
10004c5a:	0020      	movs	r0, r4
10004c5c:	f004 fa3a 	bl	100090d4 <i2c_read_blocking>
10004c60:	466b      	mov	r3, sp
10004c62:	7b5b      	ldrb	r3, [r3, #13]
10004c64:	07da      	lsls	r2, r3, #31
10004c66:	d402      	bmi.n	10004c6e <ds3231_check_alarm_0+0x3a>
10004c68:	2000      	movs	r0, #0
10004c6a:	b004      	add	sp, #16
10004c6c:	bd10      	pop	{r4, pc}
10004c6e:	aa03      	add	r2, sp, #12
10004c70:	2101      	movs	r1, #1
10004c72:	438b      	bics	r3, r1
10004c74:	7053      	strb	r3, [r2, #1]
10004c76:	2300      	movs	r3, #0
10004c78:	9300      	str	r3, [sp, #0]
10004c7a:	3302      	adds	r3, #2
10004c7c:	3167      	adds	r1, #103	; 0x67
10004c7e:	4802      	ldr	r0, [pc, #8]	; (10004c88 <ds3231_check_alarm_0+0x54>)
10004c80:	f004 fa1c 	bl	100090bc <i2c_write_blocking>
10004c84:	2001      	movs	r0, #1
10004c86:	e7f0      	b.n	10004c6a <ds3231_check_alarm_0+0x36>
10004c88:	20000aac 	.word	0x20000aac

10004c8c <ds3231_check_alarm_1>:
10004c8c:	b510      	push	{r4, lr}
10004c8e:	b084      	sub	sp, #16
10004c90:	230f      	movs	r3, #15
10004c92:	466a      	mov	r2, sp
10004c94:	8193      	strh	r3, [r2, #12]
10004c96:	4c12      	ldr	r4, [pc, #72]	; (10004ce0 <ds3231_check_alarm_1+0x54>)
10004c98:	3b0e      	subs	r3, #14
10004c9a:	9300      	str	r3, [sp, #0]
10004c9c:	aa03      	add	r2, sp, #12
10004c9e:	2168      	movs	r1, #104	; 0x68
10004ca0:	0020      	movs	r0, r4
10004ca2:	f004 fa0b 	bl	100090bc <i2c_write_blocking>
10004ca6:	2300      	movs	r3, #0
10004ca8:	9300      	str	r3, [sp, #0]
10004caa:	3301      	adds	r3, #1
10004cac:	220d      	movs	r2, #13
10004cae:	446a      	add	r2, sp
10004cb0:	2168      	movs	r1, #104	; 0x68
10004cb2:	0020      	movs	r0, r4
10004cb4:	f004 fa0e 	bl	100090d4 <i2c_read_blocking>
10004cb8:	466b      	mov	r3, sp
10004cba:	7b5b      	ldrb	r3, [r3, #13]
10004cbc:	079a      	lsls	r2, r3, #30
10004cbe:	d402      	bmi.n	10004cc6 <ds3231_check_alarm_1+0x3a>
10004cc0:	2000      	movs	r0, #0
10004cc2:	b004      	add	sp, #16
10004cc4:	bd10      	pop	{r4, pc}
10004cc6:	aa03      	add	r2, sp, #12
10004cc8:	2102      	movs	r1, #2
10004cca:	438b      	bics	r3, r1
10004ccc:	7053      	strb	r3, [r2, #1]
10004cce:	2300      	movs	r3, #0
10004cd0:	9300      	str	r3, [sp, #0]
10004cd2:	3302      	adds	r3, #2
10004cd4:	3166      	adds	r1, #102	; 0x66
10004cd6:	4802      	ldr	r0, [pc, #8]	; (10004ce0 <ds3231_check_alarm_1+0x54>)
10004cd8:	f004 f9f0 	bl	100090bc <i2c_write_blocking>
10004cdc:	2001      	movs	r0, #1
10004cde:	e7f0      	b.n	10004cc2 <ds3231_check_alarm_1+0x36>
10004ce0:	20000aac 	.word	0x20000aac

10004ce4 <ds3231_register_read>:
10004ce4:	b530      	push	{r4, r5, lr}
10004ce6:	b083      	sub	sp, #12
10004ce8:	2400      	movs	r4, #0
10004cea:	e013      	b.n	10004d14 <ds3231_register_read+0x30>
10004cec:	4a0b      	ldr	r2, [pc, #44]	; (10004d1c <ds3231_register_read+0x38>)
10004cee:	1912      	adds	r2, r2, r4
10004cf0:	4d0b      	ldr	r5, [pc, #44]	; (10004d20 <ds3231_register_read+0x3c>)
10004cf2:	2301      	movs	r3, #1
10004cf4:	9300      	str	r3, [sp, #0]
10004cf6:	2168      	movs	r1, #104	; 0x68
10004cf8:	0028      	movs	r0, r5
10004cfa:	f004 f9df 	bl	100090bc <i2c_write_blocking>
10004cfe:	4a09      	ldr	r2, [pc, #36]	; (10004d24 <ds3231_register_read+0x40>)
10004d00:	1912      	adds	r2, r2, r4
10004d02:	2300      	movs	r3, #0
10004d04:	9300      	str	r3, [sp, #0]
10004d06:	3301      	adds	r3, #1
10004d08:	2168      	movs	r1, #104	; 0x68
10004d0a:	0028      	movs	r0, r5
10004d0c:	f004 f9e2 	bl	100090d4 <i2c_read_blocking>
10004d10:	3401      	adds	r4, #1
10004d12:	b2e4      	uxtb	r4, r4
10004d14:	2c0f      	cmp	r4, #15
10004d16:	d9e9      	bls.n	10004cec <ds3231_register_read+0x8>
10004d18:	b003      	add	sp, #12
10004d1a:	bd30      	pop	{r4, r5, pc}
10004d1c:	200009e0 	.word	0x200009e0
10004d20:	20000aac 	.word	0x20000aac
10004d24:	20001a54 	.word	0x20001a54

10004d28 <byte_data>:
10004d28:	b510      	push	{r4, lr}
10004d2a:	f7ff ffdb 	bl	10004ce4 <ds3231_register_read>
10004d2e:	2400      	movs	r4, #0
10004d30:	e006      	b.n	10004d40 <byte_data+0x18>
10004d32:	4b05      	ldr	r3, [pc, #20]	; (10004d48 <byte_data+0x20>)
10004d34:	5d18      	ldrb	r0, [r3, r4]
10004d36:	f7ff ff65 	bl	10004c04 <bcd_to_byte>
10004d3a:	4b04      	ldr	r3, [pc, #16]	; (10004d4c <byte_data+0x24>)
10004d3c:	5518      	strb	r0, [r3, r4]
10004d3e:	3401      	adds	r4, #1
10004d40:	2c0d      	cmp	r4, #13
10004d42:	ddf6      	ble.n	10004d32 <byte_data+0xa>
10004d44:	bd10      	pop	{r4, pc}
10004d46:	46c0      	nop			; (mov r8, r8)
10004d48:	20001a54 	.word	0x20001a54
10004d4c:	20001050 	.word	0x20001050

10004d50 <Read_RTC>:
10004d50:	b5f0      	push	{r4, r5, r6, r7, lr}
10004d52:	b087      	sub	sp, #28
10004d54:	0004      	movs	r4, r0
10004d56:	220f      	movs	r2, #15
10004d58:	446a      	add	r2, sp
10004d5a:	2700      	movs	r7, #0
10004d5c:	7017      	strb	r7, [r2, #0]
10004d5e:	4e10      	ldr	r6, [pc, #64]	; (10004da0 <Read_RTC+0x50>)
10004d60:	2301      	movs	r3, #1
10004d62:	9300      	str	r3, [sp, #0]
10004d64:	2168      	movs	r1, #104	; 0x68
10004d66:	0030      	movs	r0, r6
10004d68:	f004 f9a8 	bl	100090bc <i2c_write_blocking>
10004d6c:	ad04      	add	r5, sp, #16
10004d6e:	9700      	str	r7, [sp, #0]
10004d70:	2307      	movs	r3, #7
10004d72:	002a      	movs	r2, r5
10004d74:	2168      	movs	r1, #104	; 0x68
10004d76:	0030      	movs	r0, r6
10004d78:	f004 f9ac 	bl	100090d4 <i2c_read_blocking>
10004d7c:	782b      	ldrb	r3, [r5, #0]
10004d7e:	7023      	strb	r3, [r4, #0]
10004d80:	786b      	ldrb	r3, [r5, #1]
10004d82:	7063      	strb	r3, [r4, #1]
10004d84:	78ab      	ldrb	r3, [r5, #2]
10004d86:	70a3      	strb	r3, [r4, #2]
10004d88:	78eb      	ldrb	r3, [r5, #3]
10004d8a:	70e3      	strb	r3, [r4, #3]
10004d8c:	792b      	ldrb	r3, [r5, #4]
10004d8e:	7123      	strb	r3, [r4, #4]
10004d90:	796b      	ldrb	r3, [r5, #5]
10004d92:	7163      	strb	r3, [r4, #5]
10004d94:	79ab      	ldrb	r3, [r5, #6]
10004d96:	71a3      	strb	r3, [r4, #6]
10004d98:	0020      	movs	r0, r4
10004d9a:	b007      	add	sp, #28
10004d9c:	bdf0      	pop	{r4, r5, r6, r7, pc}
10004d9e:	46c0      	nop			; (mov r8, r8)
10004da0:	20000aac 	.word	0x20000aac

10004da4 <set_alarm1_clock>:
10004da4:	b5f0      	push	{r4, r5, r6, r7, lr}
10004da6:	46de      	mov	lr, fp
10004da8:	4657      	mov	r7, sl
10004daa:	b580      	push	{r7, lr}
10004dac:	b089      	sub	sp, #36	; 0x24
10004dae:	0004      	movs	r4, r0
10004db0:	0008      	movs	r0, r1
10004db2:	0016      	movs	r6, r2
10004db4:	001d      	movs	r5, r3
10004db6:	ab10      	add	r3, sp, #64	; 0x40
10004db8:	781b      	ldrb	r3, [r3, #0]
10004dba:	469b      	mov	fp, r3
10004dbc:	f7ff ff2c 	bl	10004c18 <dec_to_bcd>
10004dc0:	9003      	str	r0, [sp, #12]
10004dc2:	4682      	mov	sl, r0
10004dc4:	0030      	movs	r0, r6
10004dc6:	f7ff ff27 	bl	10004c18 <dec_to_bcd>
10004dca:	9002      	str	r0, [sp, #8]
10004dcc:	0006      	movs	r6, r0
10004dce:	0028      	movs	r0, r5
10004dd0:	f7ff ff22 	bl	10004c18 <dec_to_bcd>
10004dd4:	0005      	movs	r5, r0
10004dd6:	0007      	movs	r7, r0
10004dd8:	4658      	mov	r0, fp
10004dda:	f7ff ff1d 	bl	10004c18 <dec_to_bcd>
10004dde:	0001      	movs	r1, r0
10004de0:	2c03      	cmp	r4, #3
10004de2:	d057      	beq.n	10004e94 <set_alarm1_clock+0xf0>
10004de4:	d80a      	bhi.n	10004dfc <set_alarm1_clock+0x58>
10004de6:	2c01      	cmp	r4, #1
10004de8:	d018      	beq.n	10004e1c <set_alarm1_clock+0x78>
10004dea:	2c02      	cmp	r4, #2
10004dec:	d11a      	bne.n	10004e24 <set_alarm1_clock+0x80>
10004dee:	2380      	movs	r3, #128	; 0x80
10004df0:	425b      	negs	r3, r3
10004df2:	4318      	orrs	r0, r3
10004df4:	b2c1      	uxtb	r1, r0
10004df6:	432b      	orrs	r3, r5
10004df8:	b2df      	uxtb	r7, r3
10004dfa:	e013      	b.n	10004e24 <set_alarm1_clock+0x80>
10004dfc:	2c04      	cmp	r4, #4
10004dfe:	d111      	bne.n	10004e24 <set_alarm1_clock+0x80>
10004e00:	2380      	movs	r3, #128	; 0x80
10004e02:	425b      	negs	r3, r3
10004e04:	4318      	orrs	r0, r3
10004e06:	b2c1      	uxtb	r1, r0
10004e08:	431d      	orrs	r5, r3
10004e0a:	b2ef      	uxtb	r7, r5
10004e0c:	9e02      	ldr	r6, [sp, #8]
10004e0e:	431e      	orrs	r6, r3
10004e10:	b2f6      	uxtb	r6, r6
10004e12:	9a03      	ldr	r2, [sp, #12]
10004e14:	4313      	orrs	r3, r2
10004e16:	b2db      	uxtb	r3, r3
10004e18:	469a      	mov	sl, r3
10004e1a:	e003      	b.n	10004e24 <set_alarm1_clock+0x80>
10004e1c:	2180      	movs	r1, #128	; 0x80
10004e1e:	4249      	negs	r1, r1
10004e20:	4301      	orrs	r1, r0
10004e22:	b2c9      	uxtb	r1, r1
10004e24:	aa06      	add	r2, sp, #24
10004e26:	2307      	movs	r3, #7
10004e28:	7013      	strb	r3, [r2, #0]
10004e2a:	4653      	mov	r3, sl
10004e2c:	7053      	strb	r3, [r2, #1]
10004e2e:	7096      	strb	r6, [r2, #2]
10004e30:	70d7      	strb	r7, [r2, #3]
10004e32:	7111      	strb	r1, [r2, #4]
10004e34:	4d1c      	ldr	r5, [pc, #112]	; (10004ea8 <set_alarm1_clock+0x104>)
10004e36:	2600      	movs	r6, #0
10004e38:	9600      	str	r6, [sp, #0]
10004e3a:	2305      	movs	r3, #5
10004e3c:	2168      	movs	r1, #104	; 0x68
10004e3e:	0028      	movs	r0, r5
10004e40:	f004 f93c 	bl	100090bc <i2c_write_blocking>
10004e44:	ac05      	add	r4, sp, #20
10004e46:	230e      	movs	r3, #14
10004e48:	8023      	strh	r3, [r4, #0]
10004e4a:	3b0d      	subs	r3, #13
10004e4c:	9300      	str	r3, [sp, #0]
10004e4e:	0022      	movs	r2, r4
10004e50:	2168      	movs	r1, #104	; 0x68
10004e52:	0028      	movs	r0, r5
10004e54:	f004 f932 	bl	100090bc <i2c_write_blocking>
10004e58:	9600      	str	r6, [sp, #0]
10004e5a:	2301      	movs	r3, #1
10004e5c:	220d      	movs	r2, #13
10004e5e:	a902      	add	r1, sp, #8
10004e60:	468c      	mov	ip, r1
10004e62:	4462      	add	r2, ip
10004e64:	2168      	movs	r1, #104	; 0x68
10004e66:	0028      	movs	r0, r5
10004e68:	f004 f934 	bl	100090d4 <i2c_read_blocking>
10004e6c:	7863      	ldrb	r3, [r4, #1]
10004e6e:	2201      	movs	r2, #1
10004e70:	4313      	orrs	r3, r2
10004e72:	b2db      	uxtb	r3, r3
10004e74:	7063      	strb	r3, [r4, #1]
10004e76:	2204      	movs	r2, #4
10004e78:	4313      	orrs	r3, r2
10004e7a:	7063      	strb	r3, [r4, #1]
10004e7c:	9600      	str	r6, [sp, #0]
10004e7e:	2302      	movs	r3, #2
10004e80:	0022      	movs	r2, r4
10004e82:	2168      	movs	r1, #104	; 0x68
10004e84:	0028      	movs	r0, r5
10004e86:	f004 f919 	bl	100090bc <i2c_write_blocking>
10004e8a:	b009      	add	sp, #36	; 0x24
10004e8c:	bcc0      	pop	{r6, r7}
10004e8e:	46bb      	mov	fp, r7
10004e90:	46b2      	mov	sl, r6
10004e92:	bdf0      	pop	{r4, r5, r6, r7, pc}
10004e94:	2380      	movs	r3, #128	; 0x80
10004e96:	425b      	negs	r3, r3
10004e98:	4318      	orrs	r0, r3
10004e9a:	b2c1      	uxtb	r1, r0
10004e9c:	431d      	orrs	r5, r3
10004e9e:	b2ef      	uxtb	r7, r5
10004ea0:	9a02      	ldr	r2, [sp, #8]
10004ea2:	4313      	orrs	r3, r2
10004ea4:	b2de      	uxtb	r6, r3
10004ea6:	e7bd      	b.n	10004e24 <set_alarm1_clock+0x80>
10004ea8:	20000aac 	.word	0x20000aac

10004eac <set_alarm2_clock>:
10004eac:	b570      	push	{r4, r5, r6, lr}
10004eae:	b084      	sub	sp, #16
10004eb0:	000c      	movs	r4, r1
10004eb2:	0016      	movs	r6, r2
10004eb4:	f7ff feb0 	bl	10004c18 <dec_to_bcd>
10004eb8:	0005      	movs	r5, r0
10004eba:	0020      	movs	r0, r4
10004ebc:	f7ff feac 	bl	10004c18 <dec_to_bcd>
10004ec0:	0004      	movs	r4, r0
10004ec2:	0030      	movs	r0, r6
10004ec4:	f7ff fea8 	bl	10004c18 <dec_to_bcd>
10004ec8:	2380      	movs	r3, #128	; 0x80
10004eca:	425b      	negs	r3, r3
10004ecc:	4303      	orrs	r3, r0
10004ece:	aa03      	add	r2, sp, #12
10004ed0:	210b      	movs	r1, #11
10004ed2:	7011      	strb	r1, [r2, #0]
10004ed4:	7055      	strb	r5, [r2, #1]
10004ed6:	7094      	strb	r4, [r2, #2]
10004ed8:	70d3      	strb	r3, [r2, #3]
10004eda:	4d15      	ldr	r5, [pc, #84]	; (10004f30 <set_alarm2_clock+0x84>)
10004edc:	2600      	movs	r6, #0
10004ede:	9600      	str	r6, [sp, #0]
10004ee0:	2304      	movs	r3, #4
10004ee2:	315d      	adds	r1, #93	; 0x5d
10004ee4:	0028      	movs	r0, r5
10004ee6:	f004 f8e9 	bl	100090bc <i2c_write_blocking>
10004eea:	ac02      	add	r4, sp, #8
10004eec:	230e      	movs	r3, #14
10004eee:	8023      	strh	r3, [r4, #0]
10004ef0:	3b0d      	subs	r3, #13
10004ef2:	9300      	str	r3, [sp, #0]
10004ef4:	0022      	movs	r2, r4
10004ef6:	2168      	movs	r1, #104	; 0x68
10004ef8:	0028      	movs	r0, r5
10004efa:	f004 f8df 	bl	100090bc <i2c_write_blocking>
10004efe:	9600      	str	r6, [sp, #0]
10004f00:	2301      	movs	r3, #1
10004f02:	2209      	movs	r2, #9
10004f04:	446a      	add	r2, sp
10004f06:	2168      	movs	r1, #104	; 0x68
10004f08:	0028      	movs	r0, r5
10004f0a:	f004 f8e3 	bl	100090d4 <i2c_read_blocking>
10004f0e:	7863      	ldrb	r3, [r4, #1]
10004f10:	2202      	movs	r2, #2
10004f12:	4313      	orrs	r3, r2
10004f14:	b2db      	uxtb	r3, r3
10004f16:	7063      	strb	r3, [r4, #1]
10004f18:	2204      	movs	r2, #4
10004f1a:	4313      	orrs	r3, r2
10004f1c:	7063      	strb	r3, [r4, #1]
10004f1e:	9600      	str	r6, [sp, #0]
10004f20:	2302      	movs	r3, #2
10004f22:	0022      	movs	r2, r4
10004f24:	2168      	movs	r1, #104	; 0x68
10004f26:	0028      	movs	r0, r5
10004f28:	f004 f8c8 	bl	100090bc <i2c_write_blocking>
10004f2c:	b004      	add	sp, #16
10004f2e:	bd70      	pop	{r4, r5, r6, pc}
10004f30:	20000aac 	.word	0x20000aac

10004f34 <set_day_of_month>:
10004f34:	b500      	push	{lr}
10004f36:	b085      	sub	sp, #20
10004f38:	2304      	movs	r3, #4
10004f3a:	466a      	mov	r2, sp
10004f3c:	8193      	strh	r3, [r2, #12]
10004f3e:	f7ff fe6b 	bl	10004c18 <dec_to_bcd>
10004f42:	466b      	mov	r3, sp
10004f44:	7358      	strb	r0, [r3, #13]
10004f46:	2300      	movs	r3, #0
10004f48:	9300      	str	r3, [sp, #0]
10004f4a:	3302      	adds	r3, #2
10004f4c:	aa03      	add	r2, sp, #12
10004f4e:	2168      	movs	r1, #104	; 0x68
10004f50:	4802      	ldr	r0, [pc, #8]	; (10004f5c <set_day_of_month+0x28>)
10004f52:	f004 f8b3 	bl	100090bc <i2c_write_blocking>
10004f56:	b005      	add	sp, #20
10004f58:	bd00      	pop	{pc}
10004f5a:	46c0      	nop			; (mov r8, r8)
10004f5c:	20000aac 	.word	0x20000aac

10004f60 <set_day_of_week>:
10004f60:	b500      	push	{lr}
10004f62:	b085      	sub	sp, #20
10004f64:	2303      	movs	r3, #3
10004f66:	466a      	mov	r2, sp
10004f68:	8193      	strh	r3, [r2, #12]
10004f6a:	f7ff fe55 	bl	10004c18 <dec_to_bcd>
10004f6e:	466b      	mov	r3, sp
10004f70:	7358      	strb	r0, [r3, #13]
10004f72:	2300      	movs	r3, #0
10004f74:	9300      	str	r3, [sp, #0]
10004f76:	3302      	adds	r3, #2
10004f78:	aa03      	add	r2, sp, #12
10004f7a:	2168      	movs	r1, #104	; 0x68
10004f7c:	4802      	ldr	r0, [pc, #8]	; (10004f88 <set_day_of_week+0x28>)
10004f7e:	f004 f89d 	bl	100090bc <i2c_write_blocking>
10004f82:	b005      	add	sp, #20
10004f84:	bd00      	pop	{pc}
10004f86:	46c0      	nop			; (mov r8, r8)
10004f88:	20000aac 	.word	0x20000aac

10004f8c <set_hour>:
10004f8c:	b500      	push	{lr}
10004f8e:	b085      	sub	sp, #20
10004f90:	2302      	movs	r3, #2
10004f92:	466a      	mov	r2, sp
10004f94:	8193      	strh	r3, [r2, #12]
10004f96:	f7ff fe3f 	bl	10004c18 <dec_to_bcd>
10004f9a:	466b      	mov	r3, sp
10004f9c:	7358      	strb	r0, [r3, #13]
10004f9e:	2300      	movs	r3, #0
10004fa0:	9300      	str	r3, [sp, #0]
10004fa2:	3302      	adds	r3, #2
10004fa4:	aa03      	add	r2, sp, #12
10004fa6:	2168      	movs	r1, #104	; 0x68
10004fa8:	4802      	ldr	r0, [pc, #8]	; (10004fb4 <set_hour+0x28>)
10004faa:	f004 f887 	bl	100090bc <i2c_write_blocking>
10004fae:	b005      	add	sp, #20
10004fb0:	bd00      	pop	{pc}
10004fb2:	46c0      	nop			; (mov r8, r8)
10004fb4:	20000aac 	.word	0x20000aac

10004fb8 <set_minute>:
10004fb8:	b530      	push	{r4, r5, lr}
10004fba:	b085      	sub	sp, #20
10004fbc:	0005      	movs	r5, r0
10004fbe:	ac03      	add	r4, sp, #12
10004fc0:	4b0b      	ldr	r3, [pc, #44]	; (10004ff0 <set_minute+0x38>)
10004fc2:	881a      	ldrh	r2, [r3, #0]
10004fc4:	8022      	strh	r2, [r4, #0]
10004fc6:	789b      	ldrb	r3, [r3, #2]
10004fc8:	70a3      	strb	r3, [r4, #2]
10004fca:	2032      	movs	r0, #50	; 0x32
10004fcc:	f7ff fe24 	bl	10004c18 <dec_to_bcd>
10004fd0:	7060      	strb	r0, [r4, #1]
10004fd2:	0028      	movs	r0, r5
10004fd4:	f7ff fe20 	bl	10004c18 <dec_to_bcd>
10004fd8:	70a0      	strb	r0, [r4, #2]
10004fda:	2300      	movs	r3, #0
10004fdc:	9300      	str	r3, [sp, #0]
10004fde:	3303      	adds	r3, #3
10004fe0:	0022      	movs	r2, r4
10004fe2:	2168      	movs	r1, #104	; 0x68
10004fe4:	4803      	ldr	r0, [pc, #12]	; (10004ff4 <set_minute+0x3c>)
10004fe6:	f004 f869 	bl	100090bc <i2c_write_blocking>
10004fea:	b005      	add	sp, #20
10004fec:	bd30      	pop	{r4, r5, pc}
10004fee:	46c0      	nop			; (mov r8, r8)
10004ff0:	10009ad0 	.word	0x10009ad0
10004ff4:	20000aac 	.word	0x20000aac

10004ff8 <set_month>:
10004ff8:	b500      	push	{lr}
10004ffa:	b085      	sub	sp, #20
10004ffc:	2305      	movs	r3, #5
10004ffe:	466a      	mov	r2, sp
10005000:	8193      	strh	r3, [r2, #12]
10005002:	f7ff fe09 	bl	10004c18 <dec_to_bcd>
10005006:	466b      	mov	r3, sp
10005008:	7358      	strb	r0, [r3, #13]
1000500a:	2300      	movs	r3, #0
1000500c:	9300      	str	r3, [sp, #0]
1000500e:	3302      	adds	r3, #2
10005010:	aa03      	add	r2, sp, #12
10005012:	2168      	movs	r1, #104	; 0x68
10005014:	4802      	ldr	r0, [pc, #8]	; (10005020 <set_month+0x28>)
10005016:	f004 f851 	bl	100090bc <i2c_write_blocking>
1000501a:	b005      	add	sp, #20
1000501c:	bd00      	pop	{pc}
1000501e:	46c0      	nop			; (mov r8, r8)
10005020:	20000aac 	.word	0x20000aac

10005024 <set_year>:
10005024:	b500      	push	{lr}
10005026:	b085      	sub	sp, #20
10005028:	2306      	movs	r3, #6
1000502a:	466a      	mov	r2, sp
1000502c:	8193      	strh	r3, [r2, #12]
1000502e:	f7ff fdf3 	bl	10004c18 <dec_to_bcd>
10005032:	466b      	mov	r3, sp
10005034:	7358      	strb	r0, [r3, #13]
10005036:	2300      	movs	r3, #0
10005038:	9300      	str	r3, [sp, #0]
1000503a:	3302      	adds	r3, #2
1000503c:	aa03      	add	r2, sp, #12
1000503e:	2168      	movs	r1, #104	; 0x68
10005040:	4802      	ldr	r0, [pc, #8]	; (1000504c <set_year+0x28>)
10005042:	f004 f83b 	bl	100090bc <i2c_write_blocking>
10005046:	b005      	add	sp, #20
10005048:	bd00      	pop	{pc}
1000504a:	46c0      	nop			; (mov r8, r8)
1000504c:	20000aac 	.word	0x20000aac

10005050 <gpio_set_function>:
10005050:	b510      	push	{r4, lr}
10005052:	0083      	lsls	r3, r0, #2
10005054:	4a08      	ldr	r2, [pc, #32]	; (10005078 <gpio_set_function+0x28>)
10005056:	4694      	mov	ip, r2
10005058:	4463      	add	r3, ip
1000505a:	681c      	ldr	r4, [r3, #0]
1000505c:	2240      	movs	r2, #64	; 0x40
1000505e:	4062      	eors	r2, r4
10005060:	24c0      	movs	r4, #192	; 0xc0
10005062:	4014      	ands	r4, r2
10005064:	2280      	movs	r2, #128	; 0x80
10005066:	0152      	lsls	r2, r2, #5
10005068:	4313      	orrs	r3, r2
1000506a:	601c      	str	r4, [r3, #0]
1000506c:	00c0      	lsls	r0, r0, #3
1000506e:	4b03      	ldr	r3, [pc, #12]	; (1000507c <gpio_set_function+0x2c>)
10005070:	469c      	mov	ip, r3
10005072:	4460      	add	r0, ip
10005074:	6041      	str	r1, [r0, #4]
10005076:	bd10      	pop	{r4, pc}
10005078:	4001c004 	.word	0x4001c004
1000507c:	40014000 	.word	0x40014000

10005080 <gpio_set_pulls>:
10005080:	0080      	lsls	r0, r0, #2
10005082:	4b0b      	ldr	r3, [pc, #44]	; (100050b0 <gpio_set_pulls+0x30>)
10005084:	469c      	mov	ip, r3
10005086:	4460      	add	r0, ip
10005088:	2900      	cmp	r1, #0
1000508a:	d00d      	beq.n	100050a8 <gpio_set_pulls+0x28>
1000508c:	2308      	movs	r3, #8
1000508e:	2a00      	cmp	r2, #0
10005090:	d00c      	beq.n	100050ac <gpio_set_pulls+0x2c>
10005092:	2204      	movs	r2, #4
10005094:	4313      	orrs	r3, r2
10005096:	6802      	ldr	r2, [r0, #0]
10005098:	4053      	eors	r3, r2
1000509a:	220c      	movs	r2, #12
1000509c:	4013      	ands	r3, r2
1000509e:	2280      	movs	r2, #128	; 0x80
100050a0:	0152      	lsls	r2, r2, #5
100050a2:	4310      	orrs	r0, r2
100050a4:	6003      	str	r3, [r0, #0]
100050a6:	4770      	bx	lr
100050a8:	2300      	movs	r3, #0
100050aa:	e7f0      	b.n	1000508e <gpio_set_pulls+0xe>
100050ac:	2200      	movs	r2, #0
100050ae:	e7f1      	b.n	10005094 <gpio_set_pulls+0x14>
100050b0:	4001c004 	.word	0x4001c004

100050b4 <gpio_set_input_enabled>:
100050b4:	2900      	cmp	r1, #0
100050b6:	d009      	beq.n	100050cc <gpio_set_input_enabled+0x18>
100050b8:	0080      	lsls	r0, r0, #2
100050ba:	4b09      	ldr	r3, [pc, #36]	; (100050e0 <gpio_set_input_enabled+0x2c>)
100050bc:	469c      	mov	ip, r3
100050be:	4460      	add	r0, ip
100050c0:	2380      	movs	r3, #128	; 0x80
100050c2:	019b      	lsls	r3, r3, #6
100050c4:	4318      	orrs	r0, r3
100050c6:	2340      	movs	r3, #64	; 0x40
100050c8:	6003      	str	r3, [r0, #0]
100050ca:	4770      	bx	lr
100050cc:	0080      	lsls	r0, r0, #2
100050ce:	4b04      	ldr	r3, [pc, #16]	; (100050e0 <gpio_set_input_enabled+0x2c>)
100050d0:	469c      	mov	ip, r3
100050d2:	4460      	add	r0, ip
100050d4:	23c0      	movs	r3, #192	; 0xc0
100050d6:	019b      	lsls	r3, r3, #6
100050d8:	4318      	orrs	r0, r3
100050da:	2340      	movs	r3, #64	; 0x40
100050dc:	6003      	str	r3, [r0, #0]
100050de:	e7f4      	b.n	100050ca <gpio_set_input_enabled+0x16>
100050e0:	4001c004 	.word	0x4001c004

100050e4 <gpio_init>:
100050e4:	b510      	push	{r4, lr}
100050e6:	2301      	movs	r3, #1
100050e8:	4083      	lsls	r3, r0
100050ea:	22d0      	movs	r2, #208	; 0xd0
100050ec:	0612      	lsls	r2, r2, #24
100050ee:	6293      	str	r3, [r2, #40]	; 0x28
100050f0:	6193      	str	r3, [r2, #24]
100050f2:	2105      	movs	r1, #5
100050f4:	f7ff ffac 	bl	10005050 <gpio_set_function>
100050f8:	bd10      	pop	{r4, pc}
	...

100050fc <hw_claim_lock>:
100050fc:	f3ef 8010 	mrs	r0, PRIMASK
10005100:	b672      	cpsid	i
10005102:	4b03      	ldr	r3, [pc, #12]	; (10005110 <hw_claim_lock+0x14>)
10005104:	681b      	ldr	r3, [r3, #0]
10005106:	2b00      	cmp	r3, #0
10005108:	d0fb      	beq.n	10005102 <hw_claim_lock+0x6>
1000510a:	f3bf 8f5f 	dmb	sy
1000510e:	4770      	bx	lr
10005110:	d000012c 	.word	0xd000012c

10005114 <hw_claim_unlock>:
10005114:	f3bf 8f5f 	dmb	sy
10005118:	4b02      	ldr	r3, [pc, #8]	; (10005124 <hw_claim_unlock+0x10>)
1000511a:	2200      	movs	r2, #0
1000511c:	601a      	str	r2, [r3, #0]
1000511e:	f380 8810 	msr	PRIMASK, r0
10005122:	4770      	bx	lr
10005124:	d000012c 	.word	0xd000012c

10005128 <hw_claim_or_assert>:
10005128:	b5f8      	push	{r3, r4, r5, r6, r7, lr}
1000512a:	0006      	movs	r6, r0
1000512c:	000c      	movs	r4, r1
1000512e:	0015      	movs	r5, r2
10005130:	f7ff ffe4 	bl	100050fc <hw_claim_lock>
10005134:	08e3      	lsrs	r3, r4, #3
10005136:	18f7      	adds	r7, r6, r3
10005138:	5cf1      	ldrb	r1, [r6, r3]
1000513a:	2207      	movs	r2, #7
1000513c:	4022      	ands	r2, r4
1000513e:	2301      	movs	r3, #1
10005140:	4093      	lsls	r3, r2
10005142:	420b      	tst	r3, r1
10005144:	d105      	bne.n	10005152 <hw_claim_or_assert+0x2a>
10005146:	b2db      	uxtb	r3, r3
10005148:	430b      	orrs	r3, r1
1000514a:	703b      	strb	r3, [r7, #0]
1000514c:	f7ff ffe2 	bl	10005114 <hw_claim_unlock>
10005150:	bdf8      	pop	{r3, r4, r5, r6, r7, pc}
10005152:	0021      	movs	r1, r4
10005154:	0028      	movs	r0, r5
10005156:	f001 fcad 	bl	10006ab4 <panic>
	...

1000515c <running_on_fpga>:
1000515c:	4b03      	ldr	r3, [pc, #12]	; (1000516c <running_on_fpga+0x10>)
1000515e:	681b      	ldr	r3, [r3, #0]
10005160:	2002      	movs	r0, #2
10005162:	4018      	ands	r0, r3
10005164:	1e43      	subs	r3, r0, #1
10005166:	4198      	sbcs	r0, r3
10005168:	b2c0      	uxtb	r0, r0
1000516a:	4770      	bx	lr
1000516c:	4006c000 	.word	0x4006c000

10005170 <spin_locks_reset>:
10005170:	2300      	movs	r3, #0
10005172:	e007      	b.n	10005184 <spin_locks_reset+0x14>
10005174:	4a05      	ldr	r2, [pc, #20]	; (1000518c <spin_locks_reset+0x1c>)
10005176:	189a      	adds	r2, r3, r2
10005178:	0092      	lsls	r2, r2, #2
1000517a:	f3bf 8f5f 	dmb	sy
1000517e:	2100      	movs	r1, #0
10005180:	6011      	str	r1, [r2, #0]
10005182:	3301      	adds	r3, #1
10005184:	2b1f      	cmp	r3, #31
10005186:	d9f5      	bls.n	10005174 <spin_locks_reset+0x4>
10005188:	4770      	bx	lr
1000518a:	46c0      	nop			; (mov r8, r8)
1000518c:	34000040 	.word	0x34000040

10005190 <next_striped_spin_lock_num>:
10005190:	4a05      	ldr	r2, [pc, #20]	; (100051a8 <next_striped_spin_lock_num+0x18>)
10005192:	7810      	ldrb	r0, [r2, #0]
10005194:	1c43      	adds	r3, r0, #1
10005196:	b2db      	uxtb	r3, r3
10005198:	7013      	strb	r3, [r2, #0]
1000519a:	2b17      	cmp	r3, #23
1000519c:	d902      	bls.n	100051a4 <next_striped_spin_lock_num+0x14>
1000519e:	0013      	movs	r3, r2
100051a0:	2210      	movs	r2, #16
100051a2:	701a      	strb	r2, [r3, #0]
100051a4:	4770      	bx	lr
100051a6:	46c0      	nop			; (mov r8, r8)
100051a8:	200009f1 	.word	0x200009f1

100051ac <set_raw_irq_handler_and_unlock>:
100051ac:	4b07      	ldr	r3, [pc, #28]	; (100051cc <set_raw_irq_handler_and_unlock+0x20>)
100051ae:	689b      	ldr	r3, [r3, #8]
100051b0:	3010      	adds	r0, #16
100051b2:	0080      	lsls	r0, r0, #2
100051b4:	5019      	str	r1, [r3, r0]
100051b6:	f3bf 8f5f 	dmb	sy
100051ba:	f3bf 8f5f 	dmb	sy
100051be:	4b04      	ldr	r3, [pc, #16]	; (100051d0 <set_raw_irq_handler_and_unlock+0x24>)
100051c0:	2100      	movs	r1, #0
100051c2:	6019      	str	r1, [r3, #0]
100051c4:	f382 8810 	msr	PRIMASK, r2
100051c8:	4770      	bx	lr
100051ca:	46c0      	nop			; (mov r8, r8)
100051cc:	e000ed00 	.word	0xe000ed00
100051d0:	d0000124 	.word	0xd0000124

100051d4 <make_branch>:
100051d4:	b510      	push	{r4, lr}
100051d6:	1a09      	subs	r1, r1, r0
100051d8:	1f08      	subs	r0, r1, #4
100051da:	4b0a      	ldr	r3, [pc, #40]	; (10005204 <make_branch+0x30>)
100051dc:	469c      	mov	ip, r3
100051de:	4461      	add	r1, ip
100051e0:	4a09      	ldr	r2, [pc, #36]	; (10005208 <make_branch+0x34>)
100051e2:	4291      	cmp	r1, r2
100051e4:	d808      	bhi.n	100051f8 <make_branch+0x24>
100051e6:	07c3      	lsls	r3, r0, #31
100051e8:	d406      	bmi.n	100051f8 <make_branch+0x24>
100051ea:	1040      	asrs	r0, r0, #1
100051ec:	0540      	lsls	r0, r0, #21
100051ee:	0d40      	lsrs	r0, r0, #21
100051f0:	4b06      	ldr	r3, [pc, #24]	; (1000520c <make_branch+0x38>)
100051f2:	4318      	orrs	r0, r3
100051f4:	b280      	uxth	r0, r0
100051f6:	bd10      	pop	{r4, pc}
100051f8:	4b05      	ldr	r3, [pc, #20]	; (10005210 <make_branch+0x3c>)
100051fa:	4a06      	ldr	r2, [pc, #24]	; (10005214 <make_branch+0x40>)
100051fc:	2199      	movs	r1, #153	; 0x99
100051fe:	4806      	ldr	r0, [pc, #24]	; (10005218 <make_branch+0x44>)
10005200:	f001 fbbe 	bl	10006980 <__assert_func>
10005204:	000007fc 	.word	0x000007fc
10005208:	00000ffe 	.word	0x00000ffe
1000520c:	ffffe000 	.word	0xffffe000
10005210:	10009ad4 	.word	0x10009ad4
10005214:	10009d14 	.word	0x10009d14
10005218:	10009b04 	.word	0x10009b04

1000521c <insert_branch_and_link>:
1000521c:	b510      	push	{r4, lr}
1000521e:	1a09      	subs	r1, r1, r0
10005220:	3904      	subs	r1, #4
10005222:	084c      	lsrs	r4, r1, #1
10005224:	0b09      	lsrs	r1, r1, #12
10005226:	d108      	bne.n	1000523a <insert_branch_and_link+0x1e>
10005228:	0549      	lsls	r1, r1, #21
1000522a:	0d49      	lsrs	r1, r1, #21
1000522c:	4a06      	ldr	r2, [pc, #24]	; (10005248 <insert_branch_and_link+0x2c>)
1000522e:	4311      	orrs	r1, r2
10005230:	8001      	strh	r1, [r0, #0]
10005232:	4b06      	ldr	r3, [pc, #24]	; (1000524c <insert_branch_and_link+0x30>)
10005234:	4323      	orrs	r3, r4
10005236:	8043      	strh	r3, [r0, #2]
10005238:	bd10      	pop	{r4, pc}
1000523a:	4b05      	ldr	r3, [pc, #20]	; (10005250 <insert_branch_and_link+0x34>)
1000523c:	4a05      	ldr	r2, [pc, #20]	; (10005254 <insert_branch_and_link+0x38>)
1000523e:	21a1      	movs	r1, #161	; 0xa1
10005240:	4805      	ldr	r0, [pc, #20]	; (10005258 <insert_branch_and_link+0x3c>)
10005242:	f001 fb9d 	bl	10006980 <__assert_func>
10005246:	46c0      	nop			; (mov r8, r8)
10005248:	fffff000 	.word	0xfffff000
1000524c:	fffff800 	.word	0xfffff800
10005250:	10009b40 	.word	0x10009b40
10005254:	10009ce8 	.word	0x10009ce8
10005258:	10009b04 	.word	0x10009b04

1000525c <irq_is_enabled>:
1000525c:	2301      	movs	r3, #1
1000525e:	4083      	lsls	r3, r0
10005260:	4a03      	ldr	r2, [pc, #12]	; (10005270 <irq_is_enabled+0x14>)
10005262:	6810      	ldr	r0, [r2, #0]
10005264:	4018      	ands	r0, r3
10005266:	1e43      	subs	r3, r0, #1
10005268:	4198      	sbcs	r0, r3
1000526a:	b2c0      	uxtb	r0, r0
1000526c:	4770      	bx	lr
1000526e:	46c0      	nop			; (mov r8, r8)
10005270:	e000e100 	.word	0xe000e100

10005274 <irq_set_mask_enabled>:
10005274:	2900      	cmp	r1, #0
10005276:	d004      	beq.n	10005282 <irq_set_mask_enabled+0xe>
10005278:	4b03      	ldr	r3, [pc, #12]	; (10005288 <irq_set_mask_enabled+0x14>)
1000527a:	6018      	str	r0, [r3, #0]
1000527c:	4b03      	ldr	r3, [pc, #12]	; (1000528c <irq_set_mask_enabled+0x18>)
1000527e:	6018      	str	r0, [r3, #0]
10005280:	4770      	bx	lr
10005282:	4b03      	ldr	r3, [pc, #12]	; (10005290 <irq_set_mask_enabled+0x1c>)
10005284:	6018      	str	r0, [r3, #0]
10005286:	e7fb      	b.n	10005280 <irq_set_mask_enabled+0xc>
10005288:	e000e280 	.word	0xe000e280
1000528c:	e000e100 	.word	0xe000e100
10005290:	e000e180 	.word	0xe000e180

10005294 <irq_set_enabled>:
10005294:	b510      	push	{r4, lr}
10005296:	2301      	movs	r3, #1
10005298:	4083      	lsls	r3, r0
1000529a:	0018      	movs	r0, r3
1000529c:	f7ff ffea 	bl	10005274 <irq_set_mask_enabled>
100052a0:	bd10      	pop	{r4, pc}
	...

100052a4 <irq_get_vtable_handler>:
100052a4:	4b02      	ldr	r3, [pc, #8]	; (100052b0 <irq_get_vtable_handler+0xc>)
100052a6:	689b      	ldr	r3, [r3, #8]
100052a8:	3010      	adds	r0, #16
100052aa:	0080      	lsls	r0, r0, #2
100052ac:	58c0      	ldr	r0, [r0, r3]
100052ae:	4770      	bx	lr
100052b0:	e000ed00 	.word	0xe000ed00

100052b4 <irq_set_exclusive_handler>:
100052b4:	b570      	push	{r4, r5, r6, lr}
100052b6:	0004      	movs	r4, r0
100052b8:	000d      	movs	r5, r1
100052ba:	f3ef 8610 	mrs	r6, PRIMASK
100052be:	b672      	cpsid	i
100052c0:	4b0c      	ldr	r3, [pc, #48]	; (100052f4 <irq_set_exclusive_handler+0x40>)
100052c2:	681b      	ldr	r3, [r3, #0]
100052c4:	2b00      	cmp	r3, #0
100052c6:	d0fb      	beq.n	100052c0 <irq_set_exclusive_handler+0xc>
100052c8:	f3bf 8f5f 	dmb	sy
100052cc:	0020      	movs	r0, r4
100052ce:	f7ff ffe9 	bl	100052a4 <irq_get_vtable_handler>
100052d2:	4b09      	ldr	r3, [pc, #36]	; (100052f8 <irq_set_exclusive_handler+0x44>)
100052d4:	4298      	cmp	r0, r3
100052d6:	d001      	beq.n	100052dc <irq_set_exclusive_handler+0x28>
100052d8:	42a8      	cmp	r0, r5
100052da:	d105      	bne.n	100052e8 <irq_set_exclusive_handler+0x34>
100052dc:	0032      	movs	r2, r6
100052de:	0029      	movs	r1, r5
100052e0:	0020      	movs	r0, r4
100052e2:	f7ff ff63 	bl	100051ac <set_raw_irq_handler_and_unlock>
100052e6:	bd70      	pop	{r4, r5, r6, pc}
100052e8:	4b04      	ldr	r3, [pc, #16]	; (100052fc <irq_set_exclusive_handler+0x48>)
100052ea:	4a05      	ldr	r2, [pc, #20]	; (10005300 <irq_set_exclusive_handler+0x4c>)
100052ec:	217c      	movs	r1, #124	; 0x7c
100052ee:	4805      	ldr	r0, [pc, #20]	; (10005304 <irq_set_exclusive_handler+0x50>)
100052f0:	f001 fb46 	bl	10006980 <__assert_func>
100052f4:	d0000124 	.word	0xd0000124
100052f8:	100001cd 	.word	0x100001cd
100052fc:	10009b50 	.word	0x10009b50
10005300:	10009d30 	.word	0x10009d30
10005304:	10009b04 	.word	0x10009b04

10005308 <irq_remove_handler>:
10005308:	b5f0      	push	{r4, r5, r6, r7, lr}
1000530a:	46ce      	mov	lr, r9
1000530c:	4647      	mov	r7, r8
1000530e:	b580      	push	{r7, lr}
10005310:	b083      	sub	sp, #12
10005312:	0006      	movs	r6, r0
10005314:	000d      	movs	r5, r1
10005316:	f3ef 8810 	mrs	r8, PRIMASK
1000531a:	b672      	cpsid	i
1000531c:	4b56      	ldr	r3, [pc, #344]	; (10005478 <irq_remove_handler+0x170>)
1000531e:	681b      	ldr	r3, [r3, #0]
10005320:	2b00      	cmp	r3, #0
10005322:	d0fb      	beq.n	1000531c <irq_remove_handler+0x14>
10005324:	f3bf 8f5f 	dmb	sy
10005328:	4b54      	ldr	r3, [pc, #336]	; (1000547c <irq_remove_handler+0x174>)
1000532a:	689a      	ldr	r2, [r3, #8]
1000532c:	0034      	movs	r4, r6
1000532e:	3410      	adds	r4, #16
10005330:	00a3      	lsls	r3, r4, #2
10005332:	58d7      	ldr	r7, [r2, r3]
10005334:	4b52      	ldr	r3, [pc, #328]	; (10005480 <irq_remove_handler+0x178>)
10005336:	429f      	cmp	r7, r3
10005338:	d007      	beq.n	1000534a <irq_remove_handler+0x42>
1000533a:	42af      	cmp	r7, r5
1000533c:	d100      	bne.n	10005340 <irq_remove_handler+0x38>
1000533e:	e099      	b.n	10005474 <irq_remove_handler+0x16c>
10005340:	9701      	str	r7, [sp, #4]
10005342:	4b50      	ldr	r3, [pc, #320]	; (10005484 <irq_remove_handler+0x17c>)
10005344:	1afb      	subs	r3, r7, r3
10005346:	2b2f      	cmp	r3, #47	; 0x2f
10005348:	d909      	bls.n	1000535e <irq_remove_handler+0x56>
1000534a:	4642      	mov	r2, r8
1000534c:	0039      	movs	r1, r7
1000534e:	0030      	movs	r0, r6
10005350:	f7ff ff2c 	bl	100051ac <set_raw_irq_handler_and_unlock>
10005354:	b003      	add	sp, #12
10005356:	bcc0      	pop	{r6, r7}
10005358:	46b9      	mov	r9, r7
1000535a:	46b0      	mov	r8, r6
1000535c:	bdf0      	pop	{r4, r5, r6, r7, pc}
1000535e:	0030      	movs	r0, r6
10005360:	f7ff ff7c 	bl	1000525c <irq_is_enabled>
10005364:	4681      	mov	r9, r0
10005366:	2100      	movs	r1, #0
10005368:	0030      	movs	r0, r6
1000536a:	f7ff ff93 	bl	10005294 <irq_set_enabled>
1000536e:	f3bf 8f5f 	dmb	sy
10005372:	f7fa ff78 	bl	10000266 <__get_current_exception>
10005376:	2800      	cmp	r0, #0
10005378:	d001      	beq.n	1000537e <irq_remove_handler+0x76>
1000537a:	4284      	cmp	r4, r0
1000537c:	d111      	bne.n	100053a2 <irq_remove_handler+0x9a>
1000537e:	2301      	movs	r3, #1
10005380:	9c01      	ldr	r4, [sp, #4]
10005382:	439c      	bics	r4, r3
10005384:	2200      	movs	r2, #0
10005386:	68a3      	ldr	r3, [r4, #8]
10005388:	42ab      	cmp	r3, r5
1000538a:	d012      	beq.n	100053b2 <irq_remove_handler+0xaa>
1000538c:	2206      	movs	r2, #6
1000538e:	56a2      	ldrsb	r2, [r4, r2]
10005390:	2a00      	cmp	r2, #0
10005392:	db0d      	blt.n	100053b0 <irq_remove_handler+0xa8>
10005394:	0053      	lsls	r3, r2, #1
10005396:	189b      	adds	r3, r3, r2
10005398:	009b      	lsls	r3, r3, #2
1000539a:	0022      	movs	r2, r4
1000539c:	4c39      	ldr	r4, [pc, #228]	; (10005484 <irq_remove_handler+0x17c>)
1000539e:	18e4      	adds	r4, r4, r3
100053a0:	e7f1      	b.n	10005386 <irq_remove_handler+0x7e>
100053a2:	212c      	movs	r1, #44	; 0x2c
100053a4:	4b38      	ldr	r3, [pc, #224]	; (10005488 <irq_remove_handler+0x180>)
100053a6:	4a39      	ldr	r2, [pc, #228]	; (1000548c <irq_remove_handler+0x184>)
100053a8:	31ff      	adds	r1, #255	; 0xff
100053aa:	4839      	ldr	r0, [pc, #228]	; (10005490 <irq_remove_handler+0x188>)
100053ac:	f001 fae8 	bl	10006980 <__assert_func>
100053b0:	0022      	movs	r2, r4
100053b2:	42ab      	cmp	r3, r5
100053b4:	d157      	bne.n	10005466 <irq_remove_handler+0x15e>
100053b6:	2506      	movs	r5, #6
100053b8:	5765      	ldrsb	r5, [r4, r5]
100053ba:	2d00      	cmp	r5, #0
100053bc:	db39      	blt.n	10005432 <irq_remove_handler+0x12a>
100053be:	006b      	lsls	r3, r5, #1
100053c0:	195b      	adds	r3, r3, r5
100053c2:	009a      	lsls	r2, r3, #2
100053c4:	4b2f      	ldr	r3, [pc, #188]	; (10005484 <irq_remove_handler+0x17c>)
100053c6:	189b      	adds	r3, r3, r2
100053c8:	689a      	ldr	r2, [r3, #8]
100053ca:	60a2      	str	r2, [r4, #8]
100053cc:	79da      	ldrb	r2, [r3, #7]
100053ce:	71e2      	strb	r2, [r4, #7]
100053d0:	2206      	movs	r2, #6
100053d2:	569a      	ldrsb	r2, [r3, r2]
100053d4:	71a2      	strb	r2, [r4, #6]
100053d6:	799b      	ldrb	r3, [r3, #6]
100053d8:	b25b      	sxtb	r3, r3
100053da:	2b00      	cmp	r3, #0
100053dc:	da10      	bge.n	10005400 <irq_remove_handler+0xf8>
100053de:	20bd      	movs	r0, #189	; 0xbd
100053e0:	0200      	lsls	r0, r0, #8
100053e2:	80a0      	strh	r0, [r4, #4]
100053e4:	006b      	lsls	r3, r5, #1
100053e6:	195b      	adds	r3, r3, r5
100053e8:	009b      	lsls	r3, r3, #2
100053ea:	4a26      	ldr	r2, [pc, #152]	; (10005484 <irq_remove_handler+0x17c>)
100053ec:	18d3      	adds	r3, r2, r3
100053ee:	4a29      	ldr	r2, [pc, #164]	; (10005494 <irq_remove_handler+0x18c>)
100053f0:	7811      	ldrb	r1, [r2, #0]
100053f2:	7199      	strb	r1, [r3, #6]
100053f4:	7015      	strb	r5, [r2, #0]
100053f6:	4649      	mov	r1, r9
100053f8:	0030      	movs	r0, r6
100053fa:	f7ff ff4b 	bl	10005294 <irq_set_enabled>
100053fe:	e7a4      	b.n	1000534a <irq_remove_handler+0x42>
10005400:	1d20      	adds	r0, r4, #4
10005402:	006b      	lsls	r3, r5, #1
10005404:	195b      	adds	r3, r3, r5
10005406:	009b      	lsls	r3, r3, #2
10005408:	4a1e      	ldr	r2, [pc, #120]	; (10005484 <irq_remove_handler+0x17c>)
1000540a:	189b      	adds	r3, r3, r2
1000540c:	1d1a      	adds	r2, r3, #4
1000540e:	889b      	ldrh	r3, [r3, #4]
10005410:	0ad9      	lsrs	r1, r3, #11
10005412:	291c      	cmp	r1, #28
10005414:	d107      	bne.n	10005426 <irq_remove_handler+0x11e>
10005416:	055b      	lsls	r3, r3, #21
10005418:	155b      	asrs	r3, r3, #21
1000541a:	3302      	adds	r3, #2
1000541c:	0059      	lsls	r1, r3, #1
1000541e:	1851      	adds	r1, r2, r1
10005420:	f7ff fed8 	bl	100051d4 <make_branch>
10005424:	e7dd      	b.n	100053e2 <irq_remove_handler+0xda>
10005426:	4b1c      	ldr	r3, [pc, #112]	; (10005498 <irq_remove_handler+0x190>)
10005428:	4a1c      	ldr	r2, [pc, #112]	; (1000549c <irq_remove_handler+0x194>)
1000542a:	21a7      	movs	r1, #167	; 0xa7
1000542c:	4818      	ldr	r0, [pc, #96]	; (10005490 <irq_remove_handler+0x188>)
1000542e:	f001 faa7 	bl	10006980 <__assert_func>
10005432:	2800      	cmp	r0, #0
10005434:	d112      	bne.n	1000545c <irq_remove_handler+0x154>
10005436:	2a00      	cmp	r2, #0
10005438:	d00e      	beq.n	10005458 <irq_remove_handler+0x150>
1000543a:	23ff      	movs	r3, #255	; 0xff
1000543c:	7193      	strb	r3, [r2, #6]
1000543e:	4b18      	ldr	r3, [pc, #96]	; (100054a0 <irq_remove_handler+0x198>)
10005440:	8093      	strh	r3, [r2, #4]
10005442:	4a14      	ldr	r2, [pc, #80]	; (10005494 <irq_remove_handler+0x18c>)
10005444:	7813      	ldrb	r3, [r2, #0]
10005446:	71a3      	strb	r3, [r4, #6]
10005448:	4b16      	ldr	r3, [pc, #88]	; (100054a4 <irq_remove_handler+0x19c>)
1000544a:	490e      	ldr	r1, [pc, #56]	; (10005484 <irq_remove_handler+0x17c>)
1000544c:	1a64      	subs	r4, r4, r1
1000544e:	4164      	adcs	r4, r4
10005450:	4363      	muls	r3, r4
10005452:	0d1b      	lsrs	r3, r3, #20
10005454:	7013      	strb	r3, [r2, #0]
10005456:	e7ce      	b.n	100053f6 <irq_remove_handler+0xee>
10005458:	4f09      	ldr	r7, [pc, #36]	; (10005480 <irq_remove_handler+0x178>)
1000545a:	e7f2      	b.n	10005442 <irq_remove_handler+0x13a>
1000545c:	1d20      	adds	r0, r4, #4
1000545e:	4912      	ldr	r1, [pc, #72]	; (100054a8 <irq_remove_handler+0x1a0>)
10005460:	f7ff fedc 	bl	1000521c <insert_branch_and_link>
10005464:	e7c7      	b.n	100053f6 <irq_remove_handler+0xee>
10005466:	2160      	movs	r1, #96	; 0x60
10005468:	4b10      	ldr	r3, [pc, #64]	; (100054ac <irq_remove_handler+0x1a4>)
1000546a:	4a08      	ldr	r2, [pc, #32]	; (1000548c <irq_remove_handler+0x184>)
1000546c:	31ff      	adds	r1, #255	; 0xff
1000546e:	4808      	ldr	r0, [pc, #32]	; (10005490 <irq_remove_handler+0x188>)
10005470:	f001 fa86 	bl	10006980 <__assert_func>
10005474:	4f02      	ldr	r7, [pc, #8]	; (10005480 <irq_remove_handler+0x178>)
10005476:	e768      	b.n	1000534a <irq_remove_handler+0x42>
10005478:	d0000124 	.word	0xd0000124
1000547c:	e000ed00 	.word	0xe000ed00
10005480:	100001cd 	.word	0x100001cd
10005484:	200009f4 	.word	0x200009f4
10005488:	10009c64 	.word	0x10009c64
1000548c:	10009d00 	.word	0x10009d00
10005490:	10009b04 	.word	0x10009b04
10005494:	20002b7a 	.word	0x20002b7a
10005498:	10009c4c 	.word	0x10009c4c
1000549c:	10009d20 	.word	0x10009d20
100054a0:	ffffbd00 	.word	0xffffbd00
100054a4:	0000aaaa 	.word	0x0000aaaa
100054a8:	20000a2e 	.word	0x20000a2e
100054ac:	10009c88 	.word	0x10009c88

100054b0 <irq_add_tail_to_free_list>:
100054b0:	b570      	push	{r4, r5, r6, lr}
100054b2:	0004      	movs	r4, r0
100054b4:	2601      	movs	r6, #1
100054b6:	4306      	orrs	r6, r0
100054b8:	4b2d      	ldr	r3, [pc, #180]	; (10005570 <irq_add_tail_to_free_list+0xc0>)
100054ba:	1af3      	subs	r3, r6, r3
100054bc:	2b2f      	cmp	r3, #47	; 0x2f
100054be:	d828      	bhi.n	10005512 <irq_add_tail_to_free_list+0x62>
100054c0:	f7fa fed1 	bl	10000266 <__get_current_exception>
100054c4:	2800      	cmp	r0, #0
100054c6:	d02b      	beq.n	10005520 <irq_add_tail_to_free_list+0x70>
100054c8:	f3ef 8c10 	mrs	ip, PRIMASK
100054cc:	b672      	cpsid	i
100054ce:	4b29      	ldr	r3, [pc, #164]	; (10005574 <irq_add_tail_to_free_list+0xc4>)
100054d0:	681b      	ldr	r3, [r3, #0]
100054d2:	2b00      	cmp	r3, #0
100054d4:	d0fb      	beq.n	100054ce <irq_add_tail_to_free_list+0x1e>
100054d6:	f3bf 8f5f 	dmb	sy
100054da:	4d27      	ldr	r5, [pc, #156]	; (10005578 <irq_add_tail_to_free_list+0xc8>)
100054dc:	0022      	movs	r2, r4
100054de:	4924      	ldr	r1, [pc, #144]	; (10005570 <irq_add_tail_to_free_list+0xc0>)
100054e0:	1a52      	subs	r2, r2, r1
100054e2:	4152      	adcs	r2, r2
100054e4:	4355      	muls	r5, r2
100054e6:	0d2d      	lsrs	r5, r5, #20
100054e8:	b26d      	sxtb	r5, r5
100054ea:	4b24      	ldr	r3, [pc, #144]	; (1000557c <irq_add_tail_to_free_list+0xcc>)
100054ec:	689b      	ldr	r3, [r3, #8]
100054ee:	0080      	lsls	r0, r0, #2
100054f0:	581b      	ldr	r3, [r3, r0]
100054f2:	42b3      	cmp	r3, r6
100054f4:	d01b      	beq.n	1000552e <irq_add_tail_to_free_list+0x7e>
100054f6:	2200      	movs	r2, #0
100054f8:	2a03      	cmp	r2, #3
100054fa:	d832      	bhi.n	10005562 <irq_add_tail_to_free_list+0xb2>
100054fc:	0053      	lsls	r3, r2, #1
100054fe:	189b      	adds	r3, r3, r2
10005500:	009b      	lsls	r3, r3, #2
10005502:	491b      	ldr	r1, [pc, #108]	; (10005570 <irq_add_tail_to_free_list+0xc0>)
10005504:	18cb      	adds	r3, r1, r3
10005506:	799b      	ldrb	r3, [r3, #6]
10005508:	b25b      	sxtb	r3, r3
1000550a:	42ab      	cmp	r3, r5
1000550c:	d01f      	beq.n	1000554e <irq_add_tail_to_free_list+0x9e>
1000550e:	3201      	adds	r2, #1
10005510:	e7f2      	b.n	100054f8 <irq_add_tail_to_free_list+0x48>
10005512:	21c2      	movs	r1, #194	; 0xc2
10005514:	4b1a      	ldr	r3, [pc, #104]	; (10005580 <irq_add_tail_to_free_list+0xd0>)
10005516:	4a1b      	ldr	r2, [pc, #108]	; (10005584 <irq_add_tail_to_free_list+0xd4>)
10005518:	0049      	lsls	r1, r1, #1
1000551a:	481b      	ldr	r0, [pc, #108]	; (10005588 <irq_add_tail_to_free_list+0xd8>)
1000551c:	f001 fa30 	bl	10006980 <__assert_func>
10005520:	2188      	movs	r1, #136	; 0x88
10005522:	4b1a      	ldr	r3, [pc, #104]	; (1000558c <irq_add_tail_to_free_list+0xdc>)
10005524:	4a17      	ldr	r2, [pc, #92]	; (10005584 <irq_add_tail_to_free_list+0xd4>)
10005526:	31ff      	adds	r1, #255	; 0xff
10005528:	4817      	ldr	r0, [pc, #92]	; (10005588 <irq_add_tail_to_free_list+0xd8>)
1000552a:	f001 fa29 	bl	10006980 <__assert_func>
1000552e:	4b13      	ldr	r3, [pc, #76]	; (1000557c <irq_add_tail_to_free_list+0xcc>)
10005530:	689b      	ldr	r3, [r3, #8]
10005532:	4a17      	ldr	r2, [pc, #92]	; (10005590 <irq_add_tail_to_free_list+0xe0>)
10005534:	501a      	str	r2, [r3, r0]
10005536:	4b17      	ldr	r3, [pc, #92]	; (10005594 <irq_add_tail_to_free_list+0xe4>)
10005538:	781a      	ldrb	r2, [r3, #0]
1000553a:	71a2      	strb	r2, [r4, #6]
1000553c:	701d      	strb	r5, [r3, #0]
1000553e:	f3bf 8f5f 	dmb	sy
10005542:	4b0c      	ldr	r3, [pc, #48]	; (10005574 <irq_add_tail_to_free_list+0xc4>)
10005544:	2200      	movs	r2, #0
10005546:	601a      	str	r2, [r3, #0]
10005548:	f38c 8810 	msr	PRIMASK, ip
1000554c:	bd70      	pop	{r4, r5, r6, pc}
1000554e:	0008      	movs	r0, r1
10005550:	0053      	lsls	r3, r2, #1
10005552:	1899      	adds	r1, r3, r2
10005554:	0089      	lsls	r1, r1, #2
10005556:	1841      	adds	r1, r0, r1
10005558:	26ff      	movs	r6, #255	; 0xff
1000555a:	718e      	strb	r6, [r1, #6]
1000555c:	4a0e      	ldr	r2, [pc, #56]	; (10005598 <irq_add_tail_to_free_list+0xe8>)
1000555e:	808a      	strh	r2, [r1, #4]
10005560:	e7e9      	b.n	10005536 <irq_add_tail_to_free_list+0x86>
10005562:	21cc      	movs	r1, #204	; 0xcc
10005564:	4b0d      	ldr	r3, [pc, #52]	; (1000559c <irq_add_tail_to_free_list+0xec>)
10005566:	4a07      	ldr	r2, [pc, #28]	; (10005584 <irq_add_tail_to_free_list+0xd4>)
10005568:	0049      	lsls	r1, r1, #1
1000556a:	4807      	ldr	r0, [pc, #28]	; (10005588 <irq_add_tail_to_free_list+0xd8>)
1000556c:	f001 fa08 	bl	10006980 <__assert_func>
10005570:	200009f4 	.word	0x200009f4
10005574:	d0000124 	.word	0xd0000124
10005578:	0000aaaa 	.word	0x0000aaaa
1000557c:	e000ed00 	.word	0xe000ed00
10005580:	10009c90 	.word	0x10009c90
10005584:	10009ccc 	.word	0x10009ccc
10005588:	10009b04 	.word	0x10009b04
1000558c:	10009cb8 	.word	0x10009cb8
10005590:	100001cd 	.word	0x100001cd
10005594:	20002b7a 	.word	0x20002b7a
10005598:	ffffbd00 	.word	0xffffbd00
1000559c:	10009cc4 	.word	0x10009cc4

100055a0 <irq_init_priorities>:
100055a0:	2200      	movs	r2, #0
100055a2:	4b04      	ldr	r3, [pc, #16]	; (100055b4 <irq_init_priorities+0x14>)
100055a4:	e002      	b.n	100055ac <irq_init_priorities+0xc>
100055a6:	4904      	ldr	r1, [pc, #16]	; (100055b8 <irq_init_priorities+0x18>)
100055a8:	c302      	stmia	r3!, {r1}
100055aa:	3201      	adds	r2, #1
100055ac:	2a07      	cmp	r2, #7
100055ae:	d9fa      	bls.n	100055a6 <irq_init_priorities+0x6>
100055b0:	4770      	bx	lr
100055b2:	46c0      	nop			; (mov r8, r8)
100055b4:	e000e400 	.word	0xe000e400
100055b8:	80808080 	.word	0x80808080

100055bc <sem_init>:
100055bc:	b570      	push	{r4, r5, r6, lr}
100055be:	0004      	movs	r4, r0
100055c0:	000e      	movs	r6, r1
100055c2:	0015      	movs	r5, r2
100055c4:	f7ff fde4 	bl	10005190 <next_striped_spin_lock_num>
100055c8:	0001      	movs	r1, r0
100055ca:	0020      	movs	r0, r4
100055cc:	f000 f806 	bl	100055dc <lock_init>
100055d0:	80a6      	strh	r6, [r4, #4]
100055d2:	80e5      	strh	r5, [r4, #6]
100055d4:	f3bf 8f5f 	dmb	sy
100055d8:	bd70      	pop	{r4, r5, r6, pc}
	...

100055dc <lock_init>:
100055dc:	4b02      	ldr	r3, [pc, #8]	; (100055e8 <lock_init+0xc>)
100055de:	469c      	mov	ip, r3
100055e0:	4461      	add	r1, ip
100055e2:	0089      	lsls	r1, r1, #2
100055e4:	6001      	str	r1, [r0, #0]
100055e6:	4770      	bx	lr
100055e8:	34000040 	.word	0x34000040

100055ec <repeating_timer_callback>:
100055ec:	b510      	push	{r4, lr}
100055ee:	000c      	movs	r4, r1
100055f0:	68cb      	ldr	r3, [r1, #12]
100055f2:	4283      	cmp	r3, r0
100055f4:	d107      	bne.n	10005606 <repeating_timer_callback+0x1a>
100055f6:	0008      	movs	r0, r1
100055f8:	690b      	ldr	r3, [r1, #16]
100055fa:	4798      	blx	r3
100055fc:	2800      	cmp	r0, #0
100055fe:	d009      	beq.n	10005614 <repeating_timer_callback+0x28>
10005600:	6820      	ldr	r0, [r4, #0]
10005602:	6861      	ldr	r1, [r4, #4]
10005604:	bd10      	pop	{r4, pc}
10005606:	2196      	movs	r1, #150	; 0x96
10005608:	4b05      	ldr	r3, [pc, #20]	; (10005620 <repeating_timer_callback+0x34>)
1000560a:	4a06      	ldr	r2, [pc, #24]	; (10005624 <repeating_timer_callback+0x38>)
1000560c:	0049      	lsls	r1, r1, #1
1000560e:	4806      	ldr	r0, [pc, #24]	; (10005628 <repeating_timer_callback+0x3c>)
10005610:	f001 f9b6 	bl	10006980 <__assert_func>
10005614:	2300      	movs	r3, #0
10005616:	60e3      	str	r3, [r4, #12]
10005618:	2000      	movs	r0, #0
1000561a:	2100      	movs	r1, #0
1000561c:	e7f2      	b.n	10005604 <repeating_timer_callback+0x18>
1000561e:	46c0      	nop			; (mov r8, r8)
10005620:	10009d4c 	.word	0x10009d4c
10005624:	1000a008 	.word	0x1000a008
10005628:	10009d60 	.word	0x10009d60

1000562c <alarm_pool_post_alloc_init>:
1000562c:	b570      	push	{r4, r5, r6, lr}
1000562e:	0005      	movs	r5, r0
10005630:	000c      	movs	r4, r1
10005632:	0008      	movs	r0, r1
10005634:	f000 fde8 	bl	10006208 <hardware_alarm_claim>
10005638:	0020      	movs	r0, r4
1000563a:	f000 fecd 	bl	100063d8 <hardware_alarm_cancel>
1000563e:	4908      	ldr	r1, [pc, #32]	; (10005660 <alarm_pool_post_alloc_init+0x34>)
10005640:	0020      	movs	r0, r4
10005642:	f000 fe0d 	bl	10006260 <hardware_alarm_set_callback>
10005646:	f7ff fda3 	bl	10005190 <next_striped_spin_lock_num>
1000564a:	4b06      	ldr	r3, [pc, #24]	; (10005664 <alarm_pool_post_alloc_init+0x38>)
1000564c:	469c      	mov	ip, r3
1000564e:	4460      	add	r0, ip
10005650:	0080      	lsls	r0, r0, #2
10005652:	6068      	str	r0, [r5, #4]
10005654:	752c      	strb	r4, [r5, #20]
10005656:	00a4      	lsls	r4, r4, #2
10005658:	4b03      	ldr	r3, [pc, #12]	; (10005668 <alarm_pool_post_alloc_init+0x3c>)
1000565a:	50e5      	str	r5, [r4, r3]
1000565c:	bd70      	pop	{r4, r5, r6, pc}
1000565e:	46c0      	nop			; (mov r8, r8)
10005660:	10005971 	.word	0x10005971
10005664:	34000040 	.word	0x34000040
10005668:	200028f0 	.word	0x200028f0

1000566c <sleep_until_callback>:
1000566c:	4b0a      	ldr	r3, [pc, #40]	; (10005698 <sleep_until_callback+0x2c>)
1000566e:	681a      	ldr	r2, [r3, #0]
10005670:	f3ef 8110 	mrs	r1, PRIMASK
10005674:	b672      	cpsid	i
10005676:	6813      	ldr	r3, [r2, #0]
10005678:	2b00      	cmp	r3, #0
1000567a:	d0fc      	beq.n	10005676 <sleep_until_callback+0xa>
1000567c:	f3bf 8f5f 	dmb	sy
10005680:	4b05      	ldr	r3, [pc, #20]	; (10005698 <sleep_until_callback+0x2c>)
10005682:	681b      	ldr	r3, [r3, #0]
10005684:	f3bf 8f5f 	dmb	sy
10005688:	2200      	movs	r2, #0
1000568a:	601a      	str	r2, [r3, #0]
1000568c:	f381 8810 	msr	PRIMASK, r1
10005690:	bf40      	sev
10005692:	2000      	movs	r0, #0
10005694:	2100      	movs	r1, #0
10005696:	4770      	bx	lr
10005698:	20002b0c 	.word	0x20002b0c

1000569c <timer_pool_entry_comparator>:
1000569c:	b510      	push	{r4, lr}
1000569e:	2900      	cmp	r1, #0
100056a0:	d022      	beq.n	100056e8 <timer_pool_entry_comparator+0x4c>
100056a2:	6803      	ldr	r3, [r0, #0]
100056a4:	7b1b      	ldrb	r3, [r3, #12]
100056a6:	4299      	cmp	r1, r3
100056a8:	d81e      	bhi.n	100056e8 <timer_pool_entry_comparator+0x4c>
100056aa:	4b17      	ldr	r3, [pc, #92]	; (10005708 <timer_pool_entry_comparator+0x6c>)
100056ac:	469c      	mov	ip, r3
100056ae:	4461      	add	r1, ip
100056b0:	0109      	lsls	r1, r1, #4
100056b2:	6883      	ldr	r3, [r0, #8]
100056b4:	469c      	mov	ip, r3
100056b6:	4461      	add	r1, ip
100056b8:	680c      	ldr	r4, [r1, #0]
100056ba:	6849      	ldr	r1, [r1, #4]
100056bc:	2a00      	cmp	r2, #0
100056be:	d019      	beq.n	100056f4 <timer_pool_entry_comparator+0x58>
100056c0:	6803      	ldr	r3, [r0, #0]
100056c2:	7b1b      	ldrb	r3, [r3, #12]
100056c4:	429a      	cmp	r2, r3
100056c6:	d815      	bhi.n	100056f4 <timer_pool_entry_comparator+0x58>
100056c8:	6883      	ldr	r3, [r0, #8]
100056ca:	480f      	ldr	r0, [pc, #60]	; (10005708 <timer_pool_entry_comparator+0x6c>)
100056cc:	4684      	mov	ip, r0
100056ce:	4462      	add	r2, ip
100056d0:	0112      	lsls	r2, r2, #4
100056d2:	189a      	adds	r2, r3, r2
100056d4:	6810      	ldr	r0, [r2, #0]
100056d6:	6853      	ldr	r3, [r2, #4]
100056d8:	0002      	movs	r2, r0
100056da:	2001      	movs	r0, #1
100056dc:	428b      	cmp	r3, r1
100056de:	d801      	bhi.n	100056e4 <timer_pool_entry_comparator+0x48>
100056e0:	d00e      	beq.n	10005700 <timer_pool_entry_comparator+0x64>
100056e2:	2000      	movs	r0, #0
100056e4:	b2c0      	uxtb	r0, r0
100056e6:	bd10      	pop	{r4, pc}
100056e8:	4b08      	ldr	r3, [pc, #32]	; (1000570c <timer_pool_entry_comparator+0x70>)
100056ea:	4a09      	ldr	r2, [pc, #36]	; (10005710 <timer_pool_entry_comparator+0x74>)
100056ec:	213b      	movs	r1, #59	; 0x3b
100056ee:	4809      	ldr	r0, [pc, #36]	; (10005714 <timer_pool_entry_comparator+0x78>)
100056f0:	f001 f946 	bl	10006980 <__assert_func>
100056f4:	4b05      	ldr	r3, [pc, #20]	; (1000570c <timer_pool_entry_comparator+0x70>)
100056f6:	4a06      	ldr	r2, [pc, #24]	; (10005710 <timer_pool_entry_comparator+0x74>)
100056f8:	213b      	movs	r1, #59	; 0x3b
100056fa:	4806      	ldr	r0, [pc, #24]	; (10005714 <timer_pool_entry_comparator+0x78>)
100056fc:	f001 f940 	bl	10006980 <__assert_func>
10005700:	42a2      	cmp	r2, r4
10005702:	d8ef      	bhi.n	100056e4 <timer_pool_entry_comparator+0x48>
10005704:	e7ed      	b.n	100056e2 <timer_pool_entry_comparator+0x46>
10005706:	46c0      	nop			; (mov r8, r8)
10005708:	0fffffff 	.word	0x0fffffff
1000570c:	10009d98 	.word	0x10009d98
10005710:	1000a070 	.word	0x1000a070
10005714:	10009d60 	.word	0x10009d60

10005718 <ph_add_child_node>:
10005718:	b510      	push	{r4, lr}
1000571a:	2900      	cmp	r1, #0
1000571c:	d01e      	beq.n	1000575c <ph_add_child_node+0x44>
1000571e:	7b03      	ldrb	r3, [r0, #12]
10005720:	4299      	cmp	r1, r3
10005722:	d81b      	bhi.n	1000575c <ph_add_child_node+0x44>
10005724:	004b      	lsls	r3, r1, #1
10005726:	185b      	adds	r3, r3, r1
10005728:	3b03      	subs	r3, #3
1000572a:	6804      	ldr	r4, [r0, #0]
1000572c:	46a4      	mov	ip, r4
1000572e:	4463      	add	r3, ip
10005730:	2900      	cmp	r1, #0
10005732:	d019      	beq.n	10005768 <ph_add_child_node+0x50>
10005734:	2a00      	cmp	r2, #0
10005736:	d01d      	beq.n	10005774 <ph_add_child_node+0x5c>
10005738:	4291      	cmp	r1, r2
1000573a:	d021      	beq.n	10005780 <ph_add_child_node+0x68>
1000573c:	2a00      	cmp	r2, #0
1000573e:	d025      	beq.n	1000578c <ph_add_child_node+0x74>
10005740:	7b04      	ldrb	r4, [r0, #12]
10005742:	42a2      	cmp	r2, r4
10005744:	d822      	bhi.n	1000578c <ph_add_child_node+0x74>
10005746:	6804      	ldr	r4, [r0, #0]
10005748:	0050      	lsls	r0, r2, #1
1000574a:	1880      	adds	r0, r0, r2
1000574c:	3803      	subs	r0, #3
1000574e:	1820      	adds	r0, r4, r0
10005750:	7081      	strb	r1, [r0, #2]
10005752:	7819      	ldrb	r1, [r3, #0]
10005754:	2900      	cmp	r1, #0
10005756:	d11f      	bne.n	10005798 <ph_add_child_node+0x80>
10005758:	701a      	strb	r2, [r3, #0]
1000575a:	bd10      	pop	{r4, pc}
1000575c:	4b10      	ldr	r3, [pc, #64]	; (100057a0 <ph_add_child_node+0x88>)
1000575e:	4a11      	ldr	r2, [pc, #68]	; (100057a4 <ph_add_child_node+0x8c>)
10005760:	2168      	movs	r1, #104	; 0x68
10005762:	4811      	ldr	r0, [pc, #68]	; (100057a8 <ph_add_child_node+0x90>)
10005764:	f001 f90c 	bl	10006980 <__assert_func>
10005768:	4b10      	ldr	r3, [pc, #64]	; (100057ac <ph_add_child_node+0x94>)
1000576a:	4a11      	ldr	r2, [pc, #68]	; (100057b0 <ph_add_child_node+0x98>)
1000576c:	316f      	adds	r1, #111	; 0x6f
1000576e:	480e      	ldr	r0, [pc, #56]	; (100057a8 <ph_add_child_node+0x90>)
10005770:	f001 f906 	bl	10006980 <__assert_func>
10005774:	4b0f      	ldr	r3, [pc, #60]	; (100057b4 <ph_add_child_node+0x9c>)
10005776:	4a0e      	ldr	r2, [pc, #56]	; (100057b0 <ph_add_child_node+0x98>)
10005778:	2170      	movs	r1, #112	; 0x70
1000577a:	480b      	ldr	r0, [pc, #44]	; (100057a8 <ph_add_child_node+0x90>)
1000577c:	f001 f900 	bl	10006980 <__assert_func>
10005780:	4b0d      	ldr	r3, [pc, #52]	; (100057b8 <ph_add_child_node+0xa0>)
10005782:	4a0b      	ldr	r2, [pc, #44]	; (100057b0 <ph_add_child_node+0x98>)
10005784:	2171      	movs	r1, #113	; 0x71
10005786:	4808      	ldr	r0, [pc, #32]	; (100057a8 <ph_add_child_node+0x90>)
10005788:	f001 f8fa 	bl	10006980 <__assert_func>
1000578c:	4b04      	ldr	r3, [pc, #16]	; (100057a0 <ph_add_child_node+0x88>)
1000578e:	4a05      	ldr	r2, [pc, #20]	; (100057a4 <ph_add_child_node+0x8c>)
10005790:	2168      	movs	r1, #104	; 0x68
10005792:	4805      	ldr	r0, [pc, #20]	; (100057a8 <ph_add_child_node+0x90>)
10005794:	f001 f8f4 	bl	10006980 <__assert_func>
10005798:	7041      	strb	r1, [r0, #1]
1000579a:	701a      	strb	r2, [r3, #0]
1000579c:	e7dd      	b.n	1000575a <ph_add_child_node+0x42>
1000579e:	46c0      	nop			; (mov r8, r8)
100057a0:	10009dcc 	.word	0x10009dcc
100057a4:	1000a0dc 	.word	0x1000a0dc
100057a8:	10009de8 	.word	0x10009de8
100057ac:	10009e30 	.word	0x10009e30
100057b0:	1000a0b8 	.word	0x1000a0b8
100057b4:	10009e3c 	.word	0x10009e3c
100057b8:	10009e48 	.word	0x10009e48

100057bc <ph_merge_nodes>:
100057bc:	b570      	push	{r4, r5, r6, lr}
100057be:	0006      	movs	r6, r0
100057c0:	000d      	movs	r5, r1
100057c2:	0014      	movs	r4, r2
100057c4:	2900      	cmp	r1, #0
100057c6:	d014      	beq.n	100057f2 <ph_merge_nodes+0x36>
100057c8:	2a00      	cmp	r2, #0
100057ca:	d014      	beq.n	100057f6 <ph_merge_nodes+0x3a>
100057cc:	6880      	ldr	r0, [r0, #8]
100057ce:	6873      	ldr	r3, [r6, #4]
100057d0:	4798      	blx	r3
100057d2:	2800      	cmp	r0, #0
100057d4:	d006      	beq.n	100057e4 <ph_merge_nodes+0x28>
100057d6:	0022      	movs	r2, r4
100057d8:	0029      	movs	r1, r5
100057da:	0030      	movs	r0, r6
100057dc:	f7ff ff9c 	bl	10005718 <ph_add_child_node>
100057e0:	0028      	movs	r0, r5
100057e2:	e007      	b.n	100057f4 <ph_merge_nodes+0x38>
100057e4:	002a      	movs	r2, r5
100057e6:	0021      	movs	r1, r4
100057e8:	0030      	movs	r0, r6
100057ea:	f7ff ff95 	bl	10005718 <ph_add_child_node>
100057ee:	0020      	movs	r0, r4
100057f0:	e000      	b.n	100057f4 <ph_merge_nodes+0x38>
100057f2:	0010      	movs	r0, r2
100057f4:	bd70      	pop	{r4, r5, r6, pc}
100057f6:	0008      	movs	r0, r1
100057f8:	e7fc      	b.n	100057f4 <ph_merge_nodes+0x38>
	...

100057fc <add_alarm_under_lock>:
100057fc:	b5f0      	push	{r4, r5, r6, r7, lr}
100057fe:	b083      	sub	sp, #12
10005800:	0005      	movs	r5, r0
10005802:	9200      	str	r2, [sp, #0]
10005804:	9301      	str	r3, [sp, #4]
10005806:	ab0a      	add	r3, sp, #40	; 0x28
10005808:	781c      	ldrb	r4, [r3, #0]
1000580a:	ab0b      	add	r3, sp, #44	; 0x2c
1000580c:	781f      	ldrb	r7, [r3, #0]
1000580e:	2c00      	cmp	r4, #0
10005810:	d026      	beq.n	10005860 <add_alarm_under_lock+0x64>
10005812:	6803      	ldr	r3, [r0, #0]
10005814:	7b5a      	ldrb	r2, [r3, #13]
10005816:	4294      	cmp	r4, r2
10005818:	d107      	bne.n	1000582a <add_alarm_under_lock+0x2e>
1000581a:	2301      	movs	r3, #1
1000581c:	2b00      	cmp	r3, #0
1000581e:	d119      	bne.n	10005854 <add_alarm_under_lock+0x58>
10005820:	2c00      	cmp	r4, #0
10005822:	d13b      	bne.n	1000589c <add_alarm_under_lock+0xa0>
10005824:	0020      	movs	r0, r4
10005826:	b003      	add	sp, #12
10005828:	bdf0      	pop	{r4, r5, r6, r7, pc}
1000582a:	2c00      	cmp	r4, #0
1000582c:	d00c      	beq.n	10005848 <add_alarm_under_lock+0x4c>
1000582e:	7b1a      	ldrb	r2, [r3, #12]
10005830:	4294      	cmp	r4, r2
10005832:	d809      	bhi.n	10005848 <add_alarm_under_lock+0x4c>
10005834:	681a      	ldr	r2, [r3, #0]
10005836:	0063      	lsls	r3, r4, #1
10005838:	191b      	adds	r3, r3, r4
1000583a:	3b03      	subs	r3, #3
1000583c:	18d3      	adds	r3, r2, r3
1000583e:	789b      	ldrb	r3, [r3, #2]
10005840:	2b00      	cmp	r3, #0
10005842:	d0eb      	beq.n	1000581c <add_alarm_under_lock+0x20>
10005844:	2301      	movs	r3, #1
10005846:	e7e9      	b.n	1000581c <add_alarm_under_lock+0x20>
10005848:	4b3e      	ldr	r3, [pc, #248]	; (10005944 <add_alarm_under_lock+0x148>)
1000584a:	4a3f      	ldr	r2, [pc, #252]	; (10005948 <add_alarm_under_lock+0x14c>)
1000584c:	2168      	movs	r1, #104	; 0x68
1000584e:	483f      	ldr	r0, [pc, #252]	; (1000594c <add_alarm_under_lock+0x150>)
10005850:	f001 f896 	bl	10006980 <__assert_func>
10005854:	4b3e      	ldr	r3, [pc, #248]	; (10005950 <add_alarm_under_lock+0x154>)
10005856:	4a3f      	ldr	r2, [pc, #252]	; (10005954 <add_alarm_under_lock+0x158>)
10005858:	2165      	movs	r1, #101	; 0x65
1000585a:	483f      	ldr	r0, [pc, #252]	; (10005958 <add_alarm_under_lock+0x15c>)
1000585c:	f001 f890 	bl	10006980 <__assert_func>
10005860:	6803      	ldr	r3, [r0, #0]
10005862:	7b9c      	ldrb	r4, [r3, #14]
10005864:	2c00      	cmp	r4, #0
10005866:	d0db      	beq.n	10005820 <add_alarm_under_lock+0x24>
10005868:	d012      	beq.n	10005890 <add_alarm_under_lock+0x94>
1000586a:	7b1a      	ldrb	r2, [r3, #12]
1000586c:	4294      	cmp	r4, r2
1000586e:	d80f      	bhi.n	10005890 <add_alarm_under_lock+0x94>
10005870:	0062      	lsls	r2, r4, #1
10005872:	1912      	adds	r2, r2, r4
10005874:	3a03      	subs	r2, #3
10005876:	6819      	ldr	r1, [r3, #0]
10005878:	468c      	mov	ip, r1
1000587a:	4462      	add	r2, ip
1000587c:	7851      	ldrb	r1, [r2, #1]
1000587e:	7399      	strb	r1, [r3, #14]
10005880:	2900      	cmp	r1, #0
10005882:	d100      	bne.n	10005886 <add_alarm_under_lock+0x8a>
10005884:	73d9      	strb	r1, [r3, #15]
10005886:	2300      	movs	r3, #0
10005888:	7093      	strb	r3, [r2, #2]
1000588a:	7053      	strb	r3, [r2, #1]
1000588c:	7013      	strb	r3, [r2, #0]
1000588e:	e7c7      	b.n	10005820 <add_alarm_under_lock+0x24>
10005890:	4b2c      	ldr	r3, [pc, #176]	; (10005944 <add_alarm_under_lock+0x148>)
10005892:	4a2d      	ldr	r2, [pc, #180]	; (10005948 <add_alarm_under_lock+0x14c>)
10005894:	2168      	movs	r1, #104	; 0x68
10005896:	482d      	ldr	r0, [pc, #180]	; (1000594c <add_alarm_under_lock+0x150>)
10005898:	f001 f872 	bl	10006980 <__assert_func>
1000589c:	2c00      	cmp	r4, #0
1000589e:	d03a      	beq.n	10005916 <add_alarm_under_lock+0x11a>
100058a0:	682b      	ldr	r3, [r5, #0]
100058a2:	7b1b      	ldrb	r3, [r3, #12]
100058a4:	429c      	cmp	r4, r3
100058a6:	d836      	bhi.n	10005916 <add_alarm_under_lock+0x11a>
100058a8:	4b2c      	ldr	r3, [pc, #176]	; (1000595c <add_alarm_under_lock+0x160>)
100058aa:	18e3      	adds	r3, r4, r3
100058ac:	011b      	lsls	r3, r3, #4
100058ae:	68aa      	ldr	r2, [r5, #8]
100058b0:	4694      	mov	ip, r2
100058b2:	4463      	add	r3, ip
100058b4:	9a00      	ldr	r2, [sp, #0]
100058b6:	601a      	str	r2, [r3, #0]
100058b8:	9a01      	ldr	r2, [sp, #4]
100058ba:	605a      	str	r2, [r3, #4]
100058bc:	9a08      	ldr	r2, [sp, #32]
100058be:	609a      	str	r2, [r3, #8]
100058c0:	9a09      	ldr	r2, [sp, #36]	; 0x24
100058c2:	60da      	str	r2, [r3, #12]
100058c4:	682e      	ldr	r6, [r5, #0]
100058c6:	2c00      	cmp	r4, #0
100058c8:	d02b      	beq.n	10005922 <add_alarm_under_lock+0x126>
100058ca:	d030      	beq.n	1000592e <add_alarm_under_lock+0x132>
100058cc:	7b33      	ldrb	r3, [r6, #12]
100058ce:	429c      	cmp	r4, r3
100058d0:	d82d      	bhi.n	1000592e <add_alarm_under_lock+0x132>
100058d2:	0063      	lsls	r3, r4, #1
100058d4:	191b      	adds	r3, r3, r4
100058d6:	3b03      	subs	r3, #3
100058d8:	6832      	ldr	r2, [r6, #0]
100058da:	4694      	mov	ip, r2
100058dc:	4463      	add	r3, ip
100058de:	2200      	movs	r2, #0
100058e0:	709a      	strb	r2, [r3, #2]
100058e2:	705a      	strb	r2, [r3, #1]
100058e4:	701a      	strb	r2, [r3, #0]
100058e6:	7b71      	ldrb	r1, [r6, #13]
100058e8:	0022      	movs	r2, r4
100058ea:	0030      	movs	r0, r6
100058ec:	f7ff ff66 	bl	100057bc <ph_merge_nodes>
100058f0:	7370      	strb	r0, [r6, #13]
100058f2:	4284      	cmp	r4, r0
100058f4:	d000      	beq.n	100058f8 <add_alarm_under_lock+0xfc>
100058f6:	e795      	b.n	10005824 <add_alarm_under_lock+0x28>
100058f8:	7d28      	ldrb	r0, [r5, #20]
100058fa:	9a00      	ldr	r2, [sp, #0]
100058fc:	9b01      	ldr	r3, [sp, #4]
100058fe:	f000 fcf7 	bl	100062f0 <hardware_alarm_set_target>
10005902:	1e06      	subs	r6, r0, #0
10005904:	d001      	beq.n	1000590a <add_alarm_under_lock+0x10e>
10005906:	2f00      	cmp	r7, #0
10005908:	d017      	beq.n	1000593a <add_alarm_under_lock+0x13e>
1000590a:	9b0c      	ldr	r3, [sp, #48]	; 0x30
1000590c:	2b00      	cmp	r3, #0
1000590e:	d100      	bne.n	10005912 <add_alarm_under_lock+0x116>
10005910:	e788      	b.n	10005824 <add_alarm_under_lock+0x28>
10005912:	701e      	strb	r6, [r3, #0]
10005914:	e786      	b.n	10005824 <add_alarm_under_lock+0x28>
10005916:	4b12      	ldr	r3, [pc, #72]	; (10005960 <add_alarm_under_lock+0x164>)
10005918:	4a12      	ldr	r2, [pc, #72]	; (10005964 <add_alarm_under_lock+0x168>)
1000591a:	213b      	movs	r1, #59	; 0x3b
1000591c:	480e      	ldr	r0, [pc, #56]	; (10005958 <add_alarm_under_lock+0x15c>)
1000591e:	f001 f82f 	bl	10006980 <__assert_func>
10005922:	4b11      	ldr	r3, [pc, #68]	; (10005968 <add_alarm_under_lock+0x16c>)
10005924:	4a11      	ldr	r2, [pc, #68]	; (1000596c <add_alarm_under_lock+0x170>)
10005926:	21a5      	movs	r1, #165	; 0xa5
10005928:	4808      	ldr	r0, [pc, #32]	; (1000594c <add_alarm_under_lock+0x150>)
1000592a:	f001 f829 	bl	10006980 <__assert_func>
1000592e:	4b05      	ldr	r3, [pc, #20]	; (10005944 <add_alarm_under_lock+0x148>)
10005930:	4a05      	ldr	r2, [pc, #20]	; (10005948 <add_alarm_under_lock+0x14c>)
10005932:	2168      	movs	r1, #104	; 0x68
10005934:	4805      	ldr	r0, [pc, #20]	; (1000594c <add_alarm_under_lock+0x150>)
10005936:	f001 f823 	bl	10006980 <__assert_func>
1000593a:	6828      	ldr	r0, [r5, #0]
1000593c:	0021      	movs	r1, r4
1000593e:	f000 feff 	bl	10006740 <ph_remove_and_free_node>
10005942:	e7e2      	b.n	1000590a <add_alarm_under_lock+0x10e>
10005944:	10009dcc 	.word	0x10009dcc
10005948:	1000a0dc 	.word	0x1000a0dc
1000594c:	10009de8 	.word	0x10009de8
10005950:	10009e60 	.word	0x10009e60
10005954:	1000a0e8 	.word	0x1000a0e8
10005958:	10009d60 	.word	0x10009d60
1000595c:	0fffffff 	.word	0x0fffffff
10005960:	10009d98 	.word	0x10009d98
10005964:	1000a070 	.word	0x1000a070
10005968:	10009d5c 	.word	0x10009d5c
1000596c:	1000a0cc 	.word	0x1000a0cc

10005970 <alarm_pool_alarm_callback>:
10005970:	b5f0      	push	{r4, r5, r6, r7, lr}
10005972:	46de      	mov	lr, fp
10005974:	4657      	mov	r7, sl
10005976:	464e      	mov	r6, r9
10005978:	4645      	mov	r5, r8
1000597a:	b5e0      	push	{r5, r6, r7, lr}
1000597c:	b08b      	sub	sp, #44	; 0x2c
1000597e:	9009      	str	r0, [sp, #36]	; 0x24
10005980:	2300      	movs	r3, #0
10005982:	9308      	str	r3, [sp, #32]
10005984:	0082      	lsls	r2, r0, #2
10005986:	4bb2      	ldr	r3, [pc, #712]	; (10005c50 <alarm_pool_alarm_callback+0x2e0>)
10005988:	58d6      	ldr	r6, [r2, r3]
1000598a:	0037      	movs	r7, r6
1000598c:	e032      	b.n	100059f4 <alarm_pool_alarm_callback+0x84>
1000598e:	4bb1      	ldr	r3, [pc, #708]	; (10005c54 <alarm_pool_alarm_callback+0x2e4>)
10005990:	4ab1      	ldr	r2, [pc, #708]	; (10005c58 <alarm_pool_alarm_callback+0x2e8>)
10005992:	213f      	movs	r1, #63	; 0x3f
10005994:	48b1      	ldr	r0, [pc, #708]	; (10005c5c <alarm_pool_alarm_callback+0x2ec>)
10005996:	f000 fff3 	bl	10006980 <__assert_func>
1000599a:	4bb1      	ldr	r3, [pc, #708]	; (10005c60 <alarm_pool_alarm_callback+0x2f0>)
1000599c:	4ab1      	ldr	r2, [pc, #708]	; (10005c64 <alarm_pool_alarm_callback+0x2f4>)
1000599e:	213b      	movs	r1, #59	; 0x3b
100059a0:	48b1      	ldr	r0, [pc, #708]	; (10005c68 <alarm_pool_alarm_callback+0x2f8>)
100059a2:	f000 ffed 	bl	10006980 <__assert_func>
100059a6:	4bb1      	ldr	r3, [pc, #708]	; (10005c6c <alarm_pool_alarm_callback+0x2fc>)
100059a8:	4ab1      	ldr	r2, [pc, #708]	; (10005c70 <alarm_pool_alarm_callback+0x300>)
100059aa:	218c      	movs	r1, #140	; 0x8c
100059ac:	48ae      	ldr	r0, [pc, #696]	; (10005c68 <alarm_pool_alarm_callback+0x2f8>)
100059ae:	f000 ffe7 	bl	10006980 <__assert_func>
100059b2:	4bb0      	ldr	r3, [pc, #704]	; (10005c74 <alarm_pool_alarm_callback+0x304>)
100059b4:	4aae      	ldr	r2, [pc, #696]	; (10005c70 <alarm_pool_alarm_callback+0x300>)
100059b6:	2190      	movs	r1, #144	; 0x90
100059b8:	48ab      	ldr	r0, [pc, #684]	; (10005c68 <alarm_pool_alarm_callback+0x2f8>)
100059ba:	f000 ffe1 	bl	10006980 <__assert_func>
100059be:	4ba8      	ldr	r3, [pc, #672]	; (10005c60 <alarm_pool_alarm_callback+0x2f0>)
100059c0:	4aad      	ldr	r2, [pc, #692]	; (10005c78 <alarm_pool_alarm_callback+0x308>)
100059c2:	2140      	movs	r1, #64	; 0x40
100059c4:	48a8      	ldr	r0, [pc, #672]	; (10005c68 <alarm_pool_alarm_callback+0x2f8>)
100059c6:	f000 ffdb 	bl	10006980 <__assert_func>
100059ca:	682a      	ldr	r2, [r5, #0]
100059cc:	686b      	ldr	r3, [r5, #4]
100059ce:	9809      	ldr	r0, [sp, #36]	; 0x24
100059d0:	f000 fc8e 	bl	100062f0 <hardware_alarm_set_target>
100059d4:	2300      	movs	r3, #0
100059d6:	469a      	mov	sl, r3
100059d8:	4698      	mov	r8, r3
100059da:	687b      	ldr	r3, [r7, #4]
100059dc:	f3bf 8f5f 	dmb	sy
100059e0:	2200      	movs	r2, #0
100059e2:	601a      	str	r2, [r3, #0]
100059e4:	f386 8810 	msr	PRIMASK, r6
100059e8:	4643      	mov	r3, r8
100059ea:	2b00      	cmp	r3, #0
100059ec:	d151      	bne.n	10005a92 <alarm_pool_alarm_callback+0x122>
100059ee:	2800      	cmp	r0, #0
100059f0:	d100      	bne.n	100059f4 <alarm_pool_alarm_callback+0x84>
100059f2:	e126      	b.n	10005c42 <alarm_pool_alarm_callback+0x2d2>
100059f4:	f000 fc14 	bl	10006220 <time_us_64>
100059f8:	0002      	movs	r2, r0
100059fa:	1e0b      	subs	r3, r1, #0
100059fc:	dbc7      	blt.n	1000598e <alarm_pool_alarm_callback+0x1e>
100059fe:	2000      	movs	r0, #0
10005a00:	2100      	movs	r1, #0
10005a02:	9006      	str	r0, [sp, #24]
10005a04:	9107      	str	r1, [sp, #28]
10005a06:	6878      	ldr	r0, [r7, #4]
10005a08:	f3ef 8610 	mrs	r6, PRIMASK
10005a0c:	b672      	cpsid	i
10005a0e:	6801      	ldr	r1, [r0, #0]
10005a10:	2900      	cmp	r1, #0
10005a12:	d0fc      	beq.n	10005a0e <alarm_pool_alarm_callback+0x9e>
10005a14:	f3bf 8f5f 	dmb	sy
10005a18:	6839      	ldr	r1, [r7, #0]
10005a1a:	4688      	mov	r8, r1
10005a1c:	7b4c      	ldrb	r4, [r1, #13]
10005a1e:	2c00      	cmp	r4, #0
10005a20:	d032      	beq.n	10005a88 <alarm_pool_alarm_callback+0x118>
10005a22:	d0ba      	beq.n	1000599a <alarm_pool_alarm_callback+0x2a>
10005a24:	7b09      	ldrb	r1, [r1, #12]
10005a26:	428c      	cmp	r4, r1
10005a28:	d8b7      	bhi.n	1000599a <alarm_pool_alarm_callback+0x2a>
10005a2a:	4994      	ldr	r1, [pc, #592]	; (10005c7c <alarm_pool_alarm_callback+0x30c>)
10005a2c:	1865      	adds	r5, r4, r1
10005a2e:	012d      	lsls	r5, r5, #4
10005a30:	68b9      	ldr	r1, [r7, #8]
10005a32:	468c      	mov	ip, r1
10005a34:	4465      	add	r5, ip
10005a36:	6828      	ldr	r0, [r5, #0]
10005a38:	6869      	ldr	r1, [r5, #4]
10005a3a:	1a80      	subs	r0, r0, r2
10005a3c:	4199      	sbcs	r1, r3
10005a3e:	2900      	cmp	r1, #0
10005a40:	dcc3      	bgt.n	100059ca <alarm_pool_alarm_callback+0x5a>
10005a42:	d101      	bne.n	10005a48 <alarm_pool_alarm_callback+0xd8>
10005a44:	2800      	cmp	r0, #0
10005a46:	d1c0      	bne.n	100059ca <alarm_pool_alarm_callback+0x5a>
10005a48:	2100      	movs	r1, #0
10005a4a:	4640      	mov	r0, r8
10005a4c:	f000 fe6e 	bl	1000672c <ph_remove_head>
10005a50:	42a0      	cmp	r0, r4
10005a52:	d1a8      	bne.n	100059a6 <alarm_pool_alarm_callback+0x36>
10005a54:	682a      	ldr	r2, [r5, #0]
10005a56:	686b      	ldr	r3, [r5, #4]
10005a58:	9206      	str	r2, [sp, #24]
10005a5a:	9307      	str	r3, [sp, #28]
10005a5c:	68ab      	ldr	r3, [r5, #8]
10005a5e:	4698      	mov	r8, r3
10005a60:	68eb      	ldr	r3, [r5, #12]
10005a62:	469a      	mov	sl, r3
10005a64:	4643      	mov	r3, r8
10005a66:	2b00      	cmp	r3, #0
10005a68:	d0a3      	beq.n	100059b2 <alarm_pool_alarm_callback+0x42>
10005a6a:	2c00      	cmp	r4, #0
10005a6c:	d0a7      	beq.n	100059be <alarm_pool_alarm_callback+0x4e>
10005a6e:	683b      	ldr	r3, [r7, #0]
10005a70:	7b1b      	ldrb	r3, [r3, #12]
10005a72:	429c      	cmp	r4, r3
10005a74:	d8a3      	bhi.n	100059be <alarm_pool_alarm_callback+0x4e>
10005a76:	1e63      	subs	r3, r4, #1
10005a78:	68fa      	ldr	r2, [r7, #12]
10005a7a:	5cd3      	ldrb	r3, [r2, r3]
10005a7c:	9308      	str	r3, [sp, #32]
10005a7e:	021b      	lsls	r3, r3, #8
10005a80:	4318      	orrs	r0, r3
10005a82:	6138      	str	r0, [r7, #16]
10005a84:	2000      	movs	r0, #0
10005a86:	e7a8      	b.n	100059da <alarm_pool_alarm_callback+0x6a>
10005a88:	2300      	movs	r3, #0
10005a8a:	469a      	mov	sl, r3
10005a8c:	4698      	mov	r8, r3
10005a8e:	2000      	movs	r0, #0
10005a90:	e7a3      	b.n	100059da <alarm_pool_alarm_callback+0x6a>
10005a92:	9b08      	ldr	r3, [sp, #32]
10005a94:	021b      	lsls	r3, r3, #8
10005a96:	4323      	orrs	r3, r4
10005a98:	4699      	mov	r9, r3
10005a9a:	4651      	mov	r1, sl
10005a9c:	0018      	movs	r0, r3
10005a9e:	47c0      	blx	r8
10005aa0:	0005      	movs	r5, r0
10005aa2:	000e      	movs	r6, r1
10005aa4:	687a      	ldr	r2, [r7, #4]
10005aa6:	f3ef 8b10 	mrs	fp, PRIMASK
10005aaa:	b672      	cpsid	i
10005aac:	6813      	ldr	r3, [r2, #0]
10005aae:	4259      	negs	r1, r3
10005ab0:	414b      	adcs	r3, r1
10005ab2:	b2d9      	uxtb	r1, r3
10005ab4:	2b00      	cmp	r3, #0
10005ab6:	d1f9      	bne.n	10005aac <alarm_pool_alarm_callback+0x13c>
10005ab8:	f3bf 8f5f 	dmb	sy
10005abc:	2e00      	cmp	r6, #0
10005abe:	db26      	blt.n	10005b0e <alarm_pool_alarm_callback+0x19e>
10005ac0:	2e00      	cmp	r6, #0
10005ac2:	dd52      	ble.n	10005b6a <alarm_pool_alarm_callback+0x1fa>
10005ac4:	693b      	ldr	r3, [r7, #16]
10005ac6:	2b00      	cmp	r3, #0
10005ac8:	d053      	beq.n	10005b72 <alarm_pool_alarm_callback+0x202>
10005aca:	454b      	cmp	r3, r9
10005acc:	d172      	bne.n	10005bb4 <alarm_pool_alarm_callback+0x244>
10005ace:	f000 fba7 	bl	10006220 <time_us_64>
10005ad2:	0002      	movs	r2, r0
10005ad4:	1e0b      	subs	r3, r1, #0
10005ad6:	db73      	blt.n	10005bc0 <alarm_pool_alarm_callback+0x250>
10005ad8:	0001      	movs	r1, r0
10005ada:	0018      	movs	r0, r3
10005adc:	1952      	adds	r2, r2, r5
10005ade:	4173      	adcs	r3, r6
10005ae0:	4298      	cmp	r0, r3
10005ae2:	d802      	bhi.n	10005aea <alarm_pool_alarm_callback+0x17a>
10005ae4:	d104      	bne.n	10005af0 <alarm_pool_alarm_callback+0x180>
10005ae6:	4291      	cmp	r1, r2
10005ae8:	d902      	bls.n	10005af0 <alarm_pool_alarm_callback+0x180>
10005aea:	2201      	movs	r2, #1
10005aec:	4252      	negs	r2, r2
10005aee:	17d3      	asrs	r3, r2, #31
10005af0:	2b00      	cmp	r3, #0
10005af2:	db6b      	blt.n	10005bcc <alarm_pool_alarm_callback+0x25c>
10005af4:	2100      	movs	r1, #0
10005af6:	9104      	str	r1, [sp, #16]
10005af8:	3101      	adds	r1, #1
10005afa:	9103      	str	r1, [sp, #12]
10005afc:	9402      	str	r4, [sp, #8]
10005afe:	4651      	mov	r1, sl
10005b00:	9101      	str	r1, [sp, #4]
10005b02:	4641      	mov	r1, r8
10005b04:	9100      	str	r1, [sp, #0]
10005b06:	0038      	movs	r0, r7
10005b08:	f7ff fe78 	bl	100057fc <add_alarm_under_lock>
10005b0c:	e049      	b.n	10005ba2 <alarm_pool_alarm_callback+0x232>
10005b0e:	693b      	ldr	r3, [r7, #16]
10005b10:	2b00      	cmp	r3, #0
10005b12:	d0d5      	beq.n	10005ac0 <alarm_pool_alarm_callback+0x150>
10005b14:	454b      	cmp	r3, r9
10005b16:	d11c      	bne.n	10005b52 <alarm_pool_alarm_callback+0x1e2>
10005b18:	9a06      	ldr	r2, [sp, #24]
10005b1a:	9b07      	ldr	r3, [sp, #28]
10005b1c:	0010      	movs	r0, r2
10005b1e:	0019      	movs	r1, r3
10005b20:	1b52      	subs	r2, r2, r5
10005b22:	41b3      	sbcs	r3, r6
10005b24:	4299      	cmp	r1, r3
10005b26:	d802      	bhi.n	10005b2e <alarm_pool_alarm_callback+0x1be>
10005b28:	d104      	bne.n	10005b34 <alarm_pool_alarm_callback+0x1c4>
10005b2a:	4290      	cmp	r0, r2
10005b2c:	d902      	bls.n	10005b34 <alarm_pool_alarm_callback+0x1c4>
10005b2e:	2201      	movs	r2, #1
10005b30:	4252      	negs	r2, r2
10005b32:	17d3      	asrs	r3, r2, #31
10005b34:	2b00      	cmp	r3, #0
10005b36:	db12      	blt.n	10005b5e <alarm_pool_alarm_callback+0x1ee>
10005b38:	2100      	movs	r1, #0
10005b3a:	9104      	str	r1, [sp, #16]
10005b3c:	3101      	adds	r1, #1
10005b3e:	9103      	str	r1, [sp, #12]
10005b40:	9402      	str	r4, [sp, #8]
10005b42:	4651      	mov	r1, sl
10005b44:	9101      	str	r1, [sp, #4]
10005b46:	4641      	mov	r1, r8
10005b48:	9100      	str	r1, [sp, #0]
10005b4a:	0038      	movs	r0, r7
10005b4c:	f7ff fe56 	bl	100057fc <add_alarm_under_lock>
10005b50:	e027      	b.n	10005ba2 <alarm_pool_alarm_callback+0x232>
10005b52:	4b4b      	ldr	r3, [pc, #300]	; (10005c80 <alarm_pool_alarm_callback+0x310>)
10005b54:	4a46      	ldr	r2, [pc, #280]	; (10005c70 <alarm_pool_alarm_callback+0x300>)
10005b56:	219f      	movs	r1, #159	; 0x9f
10005b58:	4843      	ldr	r0, [pc, #268]	; (10005c68 <alarm_pool_alarm_callback+0x2f8>)
10005b5a:	f000 ff11 	bl	10006980 <__assert_func>
10005b5e:	4b3d      	ldr	r3, [pc, #244]	; (10005c54 <alarm_pool_alarm_callback+0x2e4>)
10005b60:	4a3d      	ldr	r2, [pc, #244]	; (10005c58 <alarm_pool_alarm_callback+0x2e8>)
10005b62:	213f      	movs	r1, #63	; 0x3f
10005b64:	483d      	ldr	r0, [pc, #244]	; (10005c5c <alarm_pool_alarm_callback+0x2ec>)
10005b66:	f000 ff0b 	bl	10006980 <__assert_func>
10005b6a:	2e00      	cmp	r6, #0
10005b6c:	d101      	bne.n	10005b72 <alarm_pool_alarm_callback+0x202>
10005b6e:	2d00      	cmp	r5, #0
10005b70:	d1a8      	bne.n	10005ac4 <alarm_pool_alarm_callback+0x154>
10005b72:	683a      	ldr	r2, [r7, #0]
10005b74:	2c00      	cmp	r4, #0
10005b76:	d045      	beq.n	10005c04 <alarm_pool_alarm_callback+0x294>
10005b78:	7b53      	ldrb	r3, [r2, #13]
10005b7a:	429c      	cmp	r4, r3
10005b7c:	d12c      	bne.n	10005bd8 <alarm_pool_alarm_callback+0x268>
10005b7e:	2101      	movs	r1, #1
10005b80:	2900      	cmp	r1, #0
10005b82:	d13f      	bne.n	10005c04 <alarm_pool_alarm_callback+0x294>
10005b84:	7bd3      	ldrb	r3, [r2, #15]
10005b86:	2b00      	cmp	r3, #0
10005b88:	d142      	bne.n	10005c10 <alarm_pool_alarm_callback+0x2a0>
10005b8a:	73d4      	strb	r4, [r2, #15]
10005b8c:	2c00      	cmp	r4, #0
10005b8e:	d052      	beq.n	10005c36 <alarm_pool_alarm_callback+0x2c6>
10005b90:	683b      	ldr	r3, [r7, #0]
10005b92:	7b1b      	ldrb	r3, [r3, #12]
10005b94:	429c      	cmp	r4, r3
10005b96:	d84e      	bhi.n	10005c36 <alarm_pool_alarm_callback+0x2c6>
10005b98:	68fa      	ldr	r2, [r7, #12]
10005b9a:	3c01      	subs	r4, #1
10005b9c:	5d13      	ldrb	r3, [r2, r4]
10005b9e:	3301      	adds	r3, #1
10005ba0:	5513      	strb	r3, [r2, r4]
10005ba2:	2300      	movs	r3, #0
10005ba4:	613b      	str	r3, [r7, #16]
10005ba6:	687a      	ldr	r2, [r7, #4]
10005ba8:	f3bf 8f5f 	dmb	sy
10005bac:	6013      	str	r3, [r2, #0]
10005bae:	f38b 8810 	msr	PRIMASK, fp
10005bb2:	e71f      	b.n	100059f4 <alarm_pool_alarm_callback+0x84>
10005bb4:	4b32      	ldr	r3, [pc, #200]	; (10005c80 <alarm_pool_alarm_callback+0x310>)
10005bb6:	4a2e      	ldr	r2, [pc, #184]	; (10005c70 <alarm_pool_alarm_callback+0x300>)
10005bb8:	21a2      	movs	r1, #162	; 0xa2
10005bba:	482b      	ldr	r0, [pc, #172]	; (10005c68 <alarm_pool_alarm_callback+0x2f8>)
10005bbc:	f000 fee0 	bl	10006980 <__assert_func>
10005bc0:	4b24      	ldr	r3, [pc, #144]	; (10005c54 <alarm_pool_alarm_callback+0x2e4>)
10005bc2:	4a25      	ldr	r2, [pc, #148]	; (10005c58 <alarm_pool_alarm_callback+0x2e8>)
10005bc4:	213f      	movs	r1, #63	; 0x3f
10005bc6:	4825      	ldr	r0, [pc, #148]	; (10005c5c <alarm_pool_alarm_callback+0x2ec>)
10005bc8:	f000 feda 	bl	10006980 <__assert_func>
10005bcc:	4b21      	ldr	r3, [pc, #132]	; (10005c54 <alarm_pool_alarm_callback+0x2e4>)
10005bce:	4a22      	ldr	r2, [pc, #136]	; (10005c58 <alarm_pool_alarm_callback+0x2e8>)
10005bd0:	213f      	movs	r1, #63	; 0x3f
10005bd2:	4822      	ldr	r0, [pc, #136]	; (10005c5c <alarm_pool_alarm_callback+0x2ec>)
10005bd4:	f000 fed4 	bl	10006980 <__assert_func>
10005bd8:	2c00      	cmp	r4, #0
10005bda:	d00d      	beq.n	10005bf8 <alarm_pool_alarm_callback+0x288>
10005bdc:	7b13      	ldrb	r3, [r2, #12]
10005bde:	429c      	cmp	r4, r3
10005be0:	d80a      	bhi.n	10005bf8 <alarm_pool_alarm_callback+0x288>
10005be2:	0063      	lsls	r3, r4, #1
10005be4:	191b      	adds	r3, r3, r4
10005be6:	3b03      	subs	r3, #3
10005be8:	6810      	ldr	r0, [r2, #0]
10005bea:	4684      	mov	ip, r0
10005bec:	4463      	add	r3, ip
10005bee:	789b      	ldrb	r3, [r3, #2]
10005bf0:	2b00      	cmp	r3, #0
10005bf2:	d0c5      	beq.n	10005b80 <alarm_pool_alarm_callback+0x210>
10005bf4:	2101      	movs	r1, #1
10005bf6:	e7c3      	b.n	10005b80 <alarm_pool_alarm_callback+0x210>
10005bf8:	4b22      	ldr	r3, [pc, #136]	; (10005c84 <alarm_pool_alarm_callback+0x314>)
10005bfa:	4a23      	ldr	r2, [pc, #140]	; (10005c88 <alarm_pool_alarm_callback+0x318>)
10005bfc:	2168      	movs	r1, #104	; 0x68
10005bfe:	4823      	ldr	r0, [pc, #140]	; (10005c8c <alarm_pool_alarm_callback+0x31c>)
10005c00:	f000 febe 	bl	10006980 <__assert_func>
10005c04:	4b22      	ldr	r3, [pc, #136]	; (10005c90 <alarm_pool_alarm_callback+0x320>)
10005c06:	4a23      	ldr	r2, [pc, #140]	; (10005c94 <alarm_pool_alarm_callback+0x324>)
10005c08:	21f6      	movs	r1, #246	; 0xf6
10005c0a:	4820      	ldr	r0, [pc, #128]	; (10005c8c <alarm_pool_alarm_callback+0x31c>)
10005c0c:	f000 feb8 	bl	10006980 <__assert_func>
10005c10:	2b00      	cmp	r3, #0
10005c12:	d00a      	beq.n	10005c2a <alarm_pool_alarm_callback+0x2ba>
10005c14:	7b11      	ldrb	r1, [r2, #12]
10005c16:	428b      	cmp	r3, r1
10005c18:	d807      	bhi.n	10005c2a <alarm_pool_alarm_callback+0x2ba>
10005c1a:	0059      	lsls	r1, r3, #1
10005c1c:	18cb      	adds	r3, r1, r3
10005c1e:	3b03      	subs	r3, #3
10005c20:	6811      	ldr	r1, [r2, #0]
10005c22:	468c      	mov	ip, r1
10005c24:	4463      	add	r3, ip
10005c26:	705c      	strb	r4, [r3, #1]
10005c28:	e7af      	b.n	10005b8a <alarm_pool_alarm_callback+0x21a>
10005c2a:	4b16      	ldr	r3, [pc, #88]	; (10005c84 <alarm_pool_alarm_callback+0x314>)
10005c2c:	4a16      	ldr	r2, [pc, #88]	; (10005c88 <alarm_pool_alarm_callback+0x318>)
10005c2e:	2168      	movs	r1, #104	; 0x68
10005c30:	4816      	ldr	r0, [pc, #88]	; (10005c8c <alarm_pool_alarm_callback+0x31c>)
10005c32:	f000 fea5 	bl	10006980 <__assert_func>
10005c36:	4b0a      	ldr	r3, [pc, #40]	; (10005c60 <alarm_pool_alarm_callback+0x2f0>)
10005c38:	4a0f      	ldr	r2, [pc, #60]	; (10005c78 <alarm_pool_alarm_callback+0x308>)
10005c3a:	2140      	movs	r1, #64	; 0x40
10005c3c:	480a      	ldr	r0, [pc, #40]	; (10005c68 <alarm_pool_alarm_callback+0x2f8>)
10005c3e:	f000 fe9f 	bl	10006980 <__assert_func>
10005c42:	b00b      	add	sp, #44	; 0x2c
10005c44:	bcf0      	pop	{r4, r5, r6, r7}
10005c46:	46bb      	mov	fp, r7
10005c48:	46b2      	mov	sl, r6
10005c4a:	46a9      	mov	r9, r5
10005c4c:	46a0      	mov	r8, r4
10005c4e:	bdf0      	pop	{r4, r5, r6, r7, pc}
10005c50:	200028f0 	.word	0x200028f0
10005c54:	10009e88 	.word	0x10009e88
10005c58:	1000a03c 	.word	0x1000a03c
10005c5c:	10009ea4 	.word	0x10009ea4
10005c60:	10009d98 	.word	0x10009d98
10005c64:	1000a070 	.word	0x1000a070
10005c68:	10009d60 	.word	0x10009d60
10005c6c:	10009ee8 	.word	0x10009ee8
10005c70:	1000a054 	.word	0x1000a054
10005c74:	10009f00 	.word	0x10009f00
10005c78:	1000a094 	.word	0x1000a094
10005c7c:	0fffffff 	.word	0x0fffffff
10005c80:	10009f0c 	.word	0x10009f0c
10005c84:	10009dcc 	.word	0x10009dcc
10005c88:	1000a0dc 	.word	0x1000a0dc
10005c8c:	10009de8 	.word	0x10009de8
10005c90:	10009f48 	.word	0x10009f48
10005c94:	1000a0a8 	.word	0x1000a0a8

10005c98 <alarm_pool_init_default>:
10005c98:	b510      	push	{r4, lr}
10005c9a:	4b0a      	ldr	r3, [pc, #40]	; (10005cc4 <alarm_pool_init_default+0x2c>)
10005c9c:	685b      	ldr	r3, [r3, #4]
10005c9e:	2b00      	cmp	r3, #0
10005ca0:	d004      	beq.n	10005cac <alarm_pool_init_default+0x14>
10005ca2:	210a      	movs	r1, #10
10005ca4:	4808      	ldr	r0, [pc, #32]	; (10005cc8 <alarm_pool_init_default+0x30>)
10005ca6:	f7ff fc99 	bl	100055dc <lock_init>
10005caa:	bd10      	pop	{r4, pc}
10005cac:	4c05      	ldr	r4, [pc, #20]	; (10005cc4 <alarm_pool_init_default+0x2c>)
10005cae:	0023      	movs	r3, r4
10005cb0:	4a06      	ldr	r2, [pc, #24]	; (10005ccc <alarm_pool_init_default+0x34>)
10005cb2:	2110      	movs	r1, #16
10005cb4:	6820      	ldr	r0, [r4, #0]
10005cb6:	f000 fc59 	bl	1000656c <ph_post_alloc_init>
10005cba:	2103      	movs	r1, #3
10005cbc:	0020      	movs	r0, r4
10005cbe:	f7ff fcb5 	bl	1000562c <alarm_pool_post_alloc_init>
10005cc2:	e7ee      	b.n	10005ca2 <alarm_pool_init_default+0xa>
10005cc4:	20000a3c 	.word	0x20000a3c
10005cc8:	20002b0c 	.word	0x20002b0c
10005ccc:	1000569d 	.word	0x1000569d

10005cd0 <alarm_pool_get_default>:
10005cd0:	b510      	push	{r4, lr}
10005cd2:	4b06      	ldr	r3, [pc, #24]	; (10005cec <alarm_pool_get_default+0x1c>)
10005cd4:	685b      	ldr	r3, [r3, #4]
10005cd6:	2b00      	cmp	r3, #0
10005cd8:	d001      	beq.n	10005cde <alarm_pool_get_default+0xe>
10005cda:	4804      	ldr	r0, [pc, #16]	; (10005cec <alarm_pool_get_default+0x1c>)
10005cdc:	bd10      	pop	{r4, pc}
10005cde:	4b04      	ldr	r3, [pc, #16]	; (10005cf0 <alarm_pool_get_default+0x20>)
10005ce0:	4a04      	ldr	r2, [pc, #16]	; (10005cf4 <alarm_pool_get_default+0x24>)
10005ce2:	215c      	movs	r1, #92	; 0x5c
10005ce4:	4804      	ldr	r0, [pc, #16]	; (10005cf8 <alarm_pool_get_default+0x28>)
10005ce6:	f000 fe4b 	bl	10006980 <__assert_func>
10005cea:	46c0      	nop			; (mov r8, r8)
10005cec:	20000a3c 	.word	0x20000a3c
10005cf0:	10009f6c 	.word	0x10009f6c
10005cf4:	1000a07c 	.word	0x1000a07c
10005cf8:	10009d60 	.word	0x10009d60

10005cfc <alarm_pool_add_alarm_at>:
10005cfc:	b5f0      	push	{r4, r5, r6, r7, lr}
10005cfe:	46de      	mov	lr, fp
10005d00:	4657      	mov	r7, sl
10005d02:	464e      	mov	r6, r9
10005d04:	4645      	mov	r5, r8
10005d06:	b5e0      	push	{r5, r6, r7, lr}
10005d08:	b08b      	sub	sp, #44	; 0x2c
10005d0a:	4680      	mov	r8, r0
10005d0c:	0016      	movs	r6, r2
10005d0e:	001f      	movs	r7, r3
10005d10:	9b14      	ldr	r3, [sp, #80]	; 0x50
10005d12:	469a      	mov	sl, r3
10005d14:	9b15      	ldr	r3, [sp, #84]	; 0x54
10005d16:	4699      	mov	r9, r3
10005d18:	ab16      	add	r3, sp, #88	; 0x58
10005d1a:	781b      	ldrb	r3, [r3, #0]
10005d1c:	469b      	mov	fp, r3
10005d1e:	231f      	movs	r3, #31
10005d20:	aa02      	add	r2, sp, #8
10005d22:	4694      	mov	ip, r2
10005d24:	4463      	add	r3, ip
10005d26:	2200      	movs	r2, #0
10005d28:	701a      	strb	r2, [r3, #0]
10005d2a:	e032      	b.n	10005d92 <alarm_pool_add_alarm_at+0x96>
10005d2c:	2800      	cmp	r0, #0
10005d2e:	d009      	beq.n	10005d44 <alarm_pool_add_alarm_at+0x48>
10005d30:	4642      	mov	r2, r8
10005d32:	6812      	ldr	r2, [r2, #0]
10005d34:	7b12      	ldrb	r2, [r2, #12]
10005d36:	4290      	cmp	r0, r2
10005d38:	d804      	bhi.n	10005d44 <alarm_pool_add_alarm_at+0x48>
10005d3a:	1e42      	subs	r2, r0, #1
10005d3c:	4641      	mov	r1, r8
10005d3e:	68c9      	ldr	r1, [r1, #12]
10005d40:	5c8a      	ldrb	r2, [r1, r2]
10005d42:	e048      	b.n	10005dd6 <alarm_pool_add_alarm_at+0xda>
10005d44:	4b43      	ldr	r3, [pc, #268]	; (10005e54 <alarm_pool_add_alarm_at+0x158>)
10005d46:	4a44      	ldr	r2, [pc, #272]	; (10005e58 <alarm_pool_add_alarm_at+0x15c>)
10005d48:	2140      	movs	r1, #64	; 0x40
10005d4a:	4844      	ldr	r0, [pc, #272]	; (10005e5c <alarm_pool_add_alarm_at+0x160>)
10005d4c:	f000 fe18 	bl	10006980 <__assert_func>
10005d50:	9807      	ldr	r0, [sp, #28]
10005d52:	2b00      	cmp	r3, #0
10005d54:	d075      	beq.n	10005e42 <alarm_pool_add_alarm_at+0x146>
10005d56:	465b      	mov	r3, fp
10005d58:	2b00      	cmp	r3, #0
10005d5a:	d072      	beq.n	10005e42 <alarm_pool_add_alarm_at+0x146>
10005d5c:	4649      	mov	r1, r9
10005d5e:	47d0      	blx	sl
10005d60:	0004      	movs	r4, r0
10005d62:	000d      	movs	r5, r1
10005d64:	0003      	movs	r3, r0
10005d66:	430b      	orrs	r3, r1
10005d68:	d100      	bne.n	10005d6c <alarm_pool_add_alarm_at+0x70>
10005d6a:	e071      	b.n	10005e50 <alarm_pool_add_alarm_at+0x154>
10005d6c:	2900      	cmp	r1, #0
10005d6e:	db46      	blt.n	10005dfe <alarm_pool_add_alarm_at+0x102>
10005d70:	f000 fa56 	bl	10006220 <time_us_64>
10005d74:	0006      	movs	r6, r0
10005d76:	1e0f      	subs	r7, r1, #0
10005d78:	db55      	blt.n	10005e26 <alarm_pool_add_alarm_at+0x12a>
10005d7a:	1936      	adds	r6, r6, r4
10005d7c:	416f      	adcs	r7, r5
10005d7e:	42b9      	cmp	r1, r7
10005d80:	d802      	bhi.n	10005d88 <alarm_pool_add_alarm_at+0x8c>
10005d82:	d104      	bne.n	10005d8e <alarm_pool_add_alarm_at+0x92>
10005d84:	42b0      	cmp	r0, r6
10005d86:	d902      	bls.n	10005d8e <alarm_pool_add_alarm_at+0x92>
10005d88:	2601      	movs	r6, #1
10005d8a:	4276      	negs	r6, r6
10005d8c:	17f7      	asrs	r7, r6, #31
10005d8e:	2f00      	cmp	r7, #0
10005d90:	db4f      	blt.n	10005e32 <alarm_pool_add_alarm_at+0x136>
10005d92:	4643      	mov	r3, r8
10005d94:	685a      	ldr	r2, [r3, #4]
10005d96:	f3ef 8410 	mrs	r4, PRIMASK
10005d9a:	b672      	cpsid	i
10005d9c:	6813      	ldr	r3, [r2, #0]
10005d9e:	4259      	negs	r1, r3
10005da0:	414b      	adcs	r3, r1
10005da2:	b2d9      	uxtb	r1, r3
10005da4:	9107      	str	r1, [sp, #28]
10005da6:	2b00      	cmp	r3, #0
10005da8:	d1f8      	bne.n	10005d9c <alarm_pool_add_alarm_at+0xa0>
10005daa:	f3bf 8f5f 	dmb	sy
10005dae:	331f      	adds	r3, #31
10005db0:	aa02      	add	r2, sp, #8
10005db2:	4694      	mov	ip, r2
10005db4:	4463      	add	r3, ip
10005db6:	9304      	str	r3, [sp, #16]
10005db8:	2300      	movs	r3, #0
10005dba:	9303      	str	r3, [sp, #12]
10005dbc:	9302      	str	r3, [sp, #8]
10005dbe:	464b      	mov	r3, r9
10005dc0:	9301      	str	r3, [sp, #4]
10005dc2:	4653      	mov	r3, sl
10005dc4:	9300      	str	r3, [sp, #0]
10005dc6:	0032      	movs	r2, r6
10005dc8:	003b      	movs	r3, r7
10005dca:	4640      	mov	r0, r8
10005dcc:	f7ff fd16 	bl	100057fc <add_alarm_under_lock>
10005dd0:	1e03      	subs	r3, r0, #0
10005dd2:	d1ab      	bne.n	10005d2c <alarm_pool_add_alarm_at+0x30>
10005dd4:	0002      	movs	r2, r0
10005dd6:	4641      	mov	r1, r8
10005dd8:	6849      	ldr	r1, [r1, #4]
10005dda:	f3bf 8f5f 	dmb	sy
10005dde:	2500      	movs	r5, #0
10005de0:	600d      	str	r5, [r1, #0]
10005de2:	f384 8810 	msr	PRIMASK, r4
10005de6:	2b00      	cmp	r3, #0
10005de8:	d029      	beq.n	10005e3e <alarm_pool_add_alarm_at+0x142>
10005dea:	231f      	movs	r3, #31
10005dec:	a902      	add	r1, sp, #8
10005dee:	468c      	mov	ip, r1
10005df0:	4463      	add	r3, ip
10005df2:	781b      	ldrb	r3, [r3, #0]
10005df4:	2b00      	cmp	r3, #0
10005df6:	d1ab      	bne.n	10005d50 <alarm_pool_add_alarm_at+0x54>
10005df8:	0212      	lsls	r2, r2, #8
10005dfa:	4310      	orrs	r0, r2
10005dfc:	e7a9      	b.n	10005d52 <alarm_pool_add_alarm_at+0x56>
10005dfe:	0032      	movs	r2, r6
10005e00:	003b      	movs	r3, r7
10005e02:	1b36      	subs	r6, r6, r4
10005e04:	41af      	sbcs	r7, r5
10005e06:	42bb      	cmp	r3, r7
10005e08:	d802      	bhi.n	10005e10 <alarm_pool_add_alarm_at+0x114>
10005e0a:	d104      	bne.n	10005e16 <alarm_pool_add_alarm_at+0x11a>
10005e0c:	42b2      	cmp	r2, r6
10005e0e:	d902      	bls.n	10005e16 <alarm_pool_add_alarm_at+0x11a>
10005e10:	2601      	movs	r6, #1
10005e12:	4276      	negs	r6, r6
10005e14:	17f7      	asrs	r7, r6, #31
10005e16:	2f00      	cmp	r7, #0
10005e18:	dabb      	bge.n	10005d92 <alarm_pool_add_alarm_at+0x96>
10005e1a:	4b11      	ldr	r3, [pc, #68]	; (10005e60 <alarm_pool_add_alarm_at+0x164>)
10005e1c:	4a11      	ldr	r2, [pc, #68]	; (10005e64 <alarm_pool_add_alarm_at+0x168>)
10005e1e:	213f      	movs	r1, #63	; 0x3f
10005e20:	4811      	ldr	r0, [pc, #68]	; (10005e68 <alarm_pool_add_alarm_at+0x16c>)
10005e22:	f000 fdad 	bl	10006980 <__assert_func>
10005e26:	4b0e      	ldr	r3, [pc, #56]	; (10005e60 <alarm_pool_add_alarm_at+0x164>)
10005e28:	4a0e      	ldr	r2, [pc, #56]	; (10005e64 <alarm_pool_add_alarm_at+0x168>)
10005e2a:	213f      	movs	r1, #63	; 0x3f
10005e2c:	480e      	ldr	r0, [pc, #56]	; (10005e68 <alarm_pool_add_alarm_at+0x16c>)
10005e2e:	f000 fda7 	bl	10006980 <__assert_func>
10005e32:	4b0b      	ldr	r3, [pc, #44]	; (10005e60 <alarm_pool_add_alarm_at+0x164>)
10005e34:	4a0b      	ldr	r2, [pc, #44]	; (10005e64 <alarm_pool_add_alarm_at+0x168>)
10005e36:	213f      	movs	r1, #63	; 0x3f
10005e38:	480b      	ldr	r0, [pc, #44]	; (10005e68 <alarm_pool_add_alarm_at+0x16c>)
10005e3a:	f000 fda1 	bl	10006980 <__assert_func>
10005e3e:	2001      	movs	r0, #1
10005e40:	4240      	negs	r0, r0
10005e42:	b00b      	add	sp, #44	; 0x2c
10005e44:	bcf0      	pop	{r4, r5, r6, r7}
10005e46:	46bb      	mov	fp, r7
10005e48:	46b2      	mov	sl, r6
10005e4a:	46a9      	mov	r9, r5
10005e4c:	46a0      	mov	r8, r4
10005e4e:	bdf0      	pop	{r4, r5, r6, r7, pc}
10005e50:	9807      	ldr	r0, [sp, #28]
10005e52:	e7f6      	b.n	10005e42 <alarm_pool_add_alarm_at+0x146>
10005e54:	10009d98 	.word	0x10009d98
10005e58:	1000a094 	.word	0x1000a094
10005e5c:	10009d60 	.word	0x10009d60
10005e60:	10009e88 	.word	0x10009e88
10005e64:	1000a03c 	.word	0x1000a03c
10005e68:	10009ea4 	.word	0x10009ea4

10005e6c <alarm_pool_cancel_alarm>:
10005e6c:	b5f8      	push	{r3, r4, r5, r6, r7, lr}
10005e6e:	0004      	movs	r4, r0
10005e70:	6842      	ldr	r2, [r0, #4]
10005e72:	f3ef 8510 	mrs	r5, PRIMASK
10005e76:	b672      	cpsid	i
10005e78:	6813      	ldr	r3, [r2, #0]
10005e7a:	4258      	negs	r0, r3
10005e7c:	4143      	adcs	r3, r0
10005e7e:	b2d8      	uxtb	r0, r3
10005e80:	2b00      	cmp	r3, #0
10005e82:	d1f9      	bne.n	10005e78 <alarm_pool_cancel_alarm+0xc>
10005e84:	f3bf 8f5f 	dmb	sy
10005e88:	b2cb      	uxtb	r3, r1
10005e8a:	6822      	ldr	r2, [r4, #0]
10005e8c:	7b56      	ldrb	r6, [r2, #13]
10005e8e:	42b3      	cmp	r3, r6
10005e90:	d11b      	bne.n	10005eca <alarm_pool_cancel_alarm+0x5e>
10005e92:	2001      	movs	r0, #1
10005e94:	2800      	cmp	r0, #0
10005e96:	d048      	beq.n	10005f2a <alarm_pool_cancel_alarm+0xbe>
10005e98:	6920      	ldr	r0, [r4, #16]
10005e9a:	4288      	cmp	r0, r1
10005e9c:	d02b      	beq.n	10005ef6 <alarm_pool_cancel_alarm+0x8a>
10005e9e:	0a09      	lsrs	r1, r1, #8
10005ea0:	b2c9      	uxtb	r1, r1
10005ea2:	2b00      	cmp	r3, #0
10005ea4:	d02e      	beq.n	10005f04 <alarm_pool_cancel_alarm+0x98>
10005ea6:	6820      	ldr	r0, [r4, #0]
10005ea8:	7b00      	ldrb	r0, [r0, #12]
10005eaa:	4283      	cmp	r3, r0
10005eac:	d82a      	bhi.n	10005f04 <alarm_pool_cancel_alarm+0x98>
10005eae:	1e58      	subs	r0, r3, #1
10005eb0:	68e6      	ldr	r6, [r4, #12]
10005eb2:	5c30      	ldrb	r0, [r6, r0]
10005eb4:	4288      	cmp	r0, r1
10005eb6:	d02b      	beq.n	10005f10 <alarm_pool_cancel_alarm+0xa4>
10005eb8:	2000      	movs	r0, #0
10005eba:	6863      	ldr	r3, [r4, #4]
10005ebc:	f3bf 8f5f 	dmb	sy
10005ec0:	2200      	movs	r2, #0
10005ec2:	601a      	str	r2, [r3, #0]
10005ec4:	f385 8810 	msr	PRIMASK, r5
10005ec8:	bdf8      	pop	{r3, r4, r5, r6, r7, pc}
10005eca:	2b00      	cmp	r3, #0
10005ecc:	d00d      	beq.n	10005eea <alarm_pool_cancel_alarm+0x7e>
10005ece:	7b16      	ldrb	r6, [r2, #12]
10005ed0:	42b3      	cmp	r3, r6
10005ed2:	d80a      	bhi.n	10005eea <alarm_pool_cancel_alarm+0x7e>
10005ed4:	005e      	lsls	r6, r3, #1
10005ed6:	18f6      	adds	r6, r6, r3
10005ed8:	3e03      	subs	r6, #3
10005eda:	6817      	ldr	r7, [r2, #0]
10005edc:	46bc      	mov	ip, r7
10005ede:	4466      	add	r6, ip
10005ee0:	78b6      	ldrb	r6, [r6, #2]
10005ee2:	2e00      	cmp	r6, #0
10005ee4:	d0d6      	beq.n	10005e94 <alarm_pool_cancel_alarm+0x28>
10005ee6:	2001      	movs	r0, #1
10005ee8:	e7d4      	b.n	10005e94 <alarm_pool_cancel_alarm+0x28>
10005eea:	4b13      	ldr	r3, [pc, #76]	; (10005f38 <alarm_pool_cancel_alarm+0xcc>)
10005eec:	4a13      	ldr	r2, [pc, #76]	; (10005f3c <alarm_pool_cancel_alarm+0xd0>)
10005eee:	2168      	movs	r1, #104	; 0x68
10005ef0:	4813      	ldr	r0, [pc, #76]	; (10005f40 <alarm_pool_cancel_alarm+0xd4>)
10005ef2:	f000 fd45 	bl	10006980 <__assert_func>
10005ef6:	2185      	movs	r1, #133	; 0x85
10005ef8:	4b12      	ldr	r3, [pc, #72]	; (10005f44 <alarm_pool_cancel_alarm+0xd8>)
10005efa:	4a13      	ldr	r2, [pc, #76]	; (10005f48 <alarm_pool_cancel_alarm+0xdc>)
10005efc:	0049      	lsls	r1, r1, #1
10005efe:	4813      	ldr	r0, [pc, #76]	; (10005f4c <alarm_pool_cancel_alarm+0xe0>)
10005f00:	f000 fd3e 	bl	10006980 <__assert_func>
10005f04:	4b12      	ldr	r3, [pc, #72]	; (10005f50 <alarm_pool_cancel_alarm+0xe4>)
10005f06:	4a13      	ldr	r2, [pc, #76]	; (10005f54 <alarm_pool_cancel_alarm+0xe8>)
10005f08:	2140      	movs	r1, #64	; 0x40
10005f0a:	4810      	ldr	r0, [pc, #64]	; (10005f4c <alarm_pool_cancel_alarm+0xe0>)
10005f0c:	f000 fd38 	bl	10006980 <__assert_func>
10005f10:	0019      	movs	r1, r3
10005f12:	0010      	movs	r0, r2
10005f14:	f000 fc14 	bl	10006740 <ph_remove_and_free_node>
10005f18:	2800      	cmp	r0, #0
10005f1a:	d1ce      	bne.n	10005eba <alarm_pool_cancel_alarm+0x4e>
10005f1c:	2112      	movs	r1, #18
10005f1e:	4b0e      	ldr	r3, [pc, #56]	; (10005f58 <alarm_pool_cancel_alarm+0xec>)
10005f20:	4a09      	ldr	r2, [pc, #36]	; (10005f48 <alarm_pool_cancel_alarm+0xdc>)
10005f22:	31ff      	adds	r1, #255	; 0xff
10005f24:	4809      	ldr	r0, [pc, #36]	; (10005f4c <alarm_pool_cancel_alarm+0xe0>)
10005f26:	f000 fd2b 	bl	10006980 <__assert_func>
10005f2a:	6923      	ldr	r3, [r4, #16]
10005f2c:	428b      	cmp	r3, r1
10005f2e:	d1c4      	bne.n	10005eba <alarm_pool_cancel_alarm+0x4e>
10005f30:	2300      	movs	r3, #0
10005f32:	6123      	str	r3, [r4, #16]
10005f34:	e7c1      	b.n	10005eba <alarm_pool_cancel_alarm+0x4e>
10005f36:	46c0      	nop			; (mov r8, r8)
10005f38:	10009dcc 	.word	0x10009dcc
10005f3c:	1000a0dc 	.word	0x1000a0dc
10005f40:	10009de8 	.word	0x10009de8
10005f44:	10009f90 	.word	0x10009f90
10005f48:	1000a024 	.word	0x1000a024
10005f4c:	10009d60 	.word	0x10009d60
10005f50:	10009d98 	.word	0x10009d98
10005f54:	1000a094 	.word	0x1000a094
10005f58:	10009fb4 	.word	0x10009fb4

10005f5c <alarm_pool_add_repeating_timer_us>:
10005f5c:	b5f0      	push	{r4, r5, r6, r7, lr}
10005f5e:	b085      	sub	sp, #20
10005f60:	0007      	movs	r7, r0
10005f62:	0010      	movs	r0, r2
10005f64:	0019      	movs	r1, r3
10005f66:	9e0c      	ldr	r6, [sp, #48]	; 0x30
10005f68:	0013      	movs	r3, r2
10005f6a:	430b      	orrs	r3, r1
10005f6c:	d101      	bne.n	10005f72 <alarm_pool_add_repeating_timer_us+0x16>
10005f6e:	2001      	movs	r0, #1
10005f70:	2100      	movs	r1, #0
10005f72:	60b7      	str	r7, [r6, #8]
10005f74:	9b0a      	ldr	r3, [sp, #40]	; 0x28
10005f76:	6133      	str	r3, [r6, #16]
10005f78:	6030      	str	r0, [r6, #0]
10005f7a:	6071      	str	r1, [r6, #4]
10005f7c:	9b0b      	ldr	r3, [sp, #44]	; 0x2c
10005f7e:	6173      	str	r3, [r6, #20]
10005f80:	17ca      	asrs	r2, r1, #31
10005f82:	0013      	movs	r3, r2
10005f84:	4050      	eors	r0, r2
10005f86:	0004      	movs	r4, r0
10005f88:	4051      	eors	r1, r2
10005f8a:	000d      	movs	r5, r1
10005f8c:	1aa4      	subs	r4, r4, r2
10005f8e:	419d      	sbcs	r5, r3
10005f90:	f000 f946 	bl	10006220 <time_us_64>
10005f94:	0002      	movs	r2, r0
10005f96:	1e0b      	subs	r3, r1, #0
10005f98:	db1a      	blt.n	10005fd0 <alarm_pool_add_repeating_timer_us+0x74>
10005f9a:	0001      	movs	r1, r0
10005f9c:	0018      	movs	r0, r3
10005f9e:	1912      	adds	r2, r2, r4
10005fa0:	416b      	adcs	r3, r5
10005fa2:	4298      	cmp	r0, r3
10005fa4:	d802      	bhi.n	10005fac <alarm_pool_add_repeating_timer_us+0x50>
10005fa6:	d104      	bne.n	10005fb2 <alarm_pool_add_repeating_timer_us+0x56>
10005fa8:	4291      	cmp	r1, r2
10005faa:	d902      	bls.n	10005fb2 <alarm_pool_add_repeating_timer_us+0x56>
10005fac:	2201      	movs	r2, #1
10005fae:	4252      	negs	r2, r2
10005fb0:	17d3      	asrs	r3, r2, #31
10005fb2:	2b00      	cmp	r3, #0
10005fb4:	db12      	blt.n	10005fdc <alarm_pool_add_repeating_timer_us+0x80>
10005fb6:	2101      	movs	r1, #1
10005fb8:	9102      	str	r1, [sp, #8]
10005fba:	9601      	str	r6, [sp, #4]
10005fbc:	490a      	ldr	r1, [pc, #40]	; (10005fe8 <alarm_pool_add_repeating_timer_us+0x8c>)
10005fbe:	9100      	str	r1, [sp, #0]
10005fc0:	0038      	movs	r0, r7
10005fc2:	f7ff fe9b 	bl	10005cfc <alarm_pool_add_alarm_at>
10005fc6:	60f0      	str	r0, [r6, #12]
10005fc8:	43c0      	mvns	r0, r0
10005fca:	0fc0      	lsrs	r0, r0, #31
10005fcc:	b005      	add	sp, #20
10005fce:	bdf0      	pop	{r4, r5, r6, r7, pc}
10005fd0:	4b06      	ldr	r3, [pc, #24]	; (10005fec <alarm_pool_add_repeating_timer_us+0x90>)
10005fd2:	4a07      	ldr	r2, [pc, #28]	; (10005ff0 <alarm_pool_add_repeating_timer_us+0x94>)
10005fd4:	213f      	movs	r1, #63	; 0x3f
10005fd6:	4807      	ldr	r0, [pc, #28]	; (10005ff4 <alarm_pool_add_repeating_timer_us+0x98>)
10005fd8:	f000 fcd2 	bl	10006980 <__assert_func>
10005fdc:	4b03      	ldr	r3, [pc, #12]	; (10005fec <alarm_pool_add_repeating_timer_us+0x90>)
10005fde:	4a04      	ldr	r2, [pc, #16]	; (10005ff0 <alarm_pool_add_repeating_timer_us+0x94>)
10005fe0:	213f      	movs	r1, #63	; 0x3f
10005fe2:	4804      	ldr	r0, [pc, #16]	; (10005ff4 <alarm_pool_add_repeating_timer_us+0x98>)
10005fe4:	f000 fccc 	bl	10006980 <__assert_func>
10005fe8:	100055ed 	.word	0x100055ed
10005fec:	10009e88 	.word	0x10009e88
10005ff0:	1000a03c 	.word	0x1000a03c
10005ff4:	10009ea4 	.word	0x10009ea4

10005ff8 <cancel_repeating_timer>:
10005ff8:	b510      	push	{r4, lr}
10005ffa:	0004      	movs	r4, r0
10005ffc:	68c1      	ldr	r1, [r0, #12]
10005ffe:	2900      	cmp	r1, #0
10006000:	d101      	bne.n	10006006 <cancel_repeating_timer+0xe>
10006002:	2000      	movs	r0, #0
10006004:	bd10      	pop	{r4, pc}
10006006:	6880      	ldr	r0, [r0, #8]
10006008:	f7ff ff30 	bl	10005e6c <alarm_pool_cancel_alarm>
1000600c:	2300      	movs	r3, #0
1000600e:	60e3      	str	r3, [r4, #12]
10006010:	e7f8      	b.n	10006004 <cancel_repeating_timer+0xc>
	...

10006014 <sleep_until>:
10006014:	b5f0      	push	{r4, r5, r6, r7, lr}
10006016:	b087      	sub	sp, #28
10006018:	0006      	movs	r6, r0
1000601a:	000f      	movs	r7, r1
1000601c:	f7fa f923 	bl	10000266 <__get_current_exception>
10006020:	2800      	cmp	r0, #0
10006022:	d11f      	bne.n	10006064 <sleep_until+0x50>
10006024:	2406      	movs	r4, #6
10006026:	4264      	negs	r4, r4
10006028:	17e5      	asrs	r5, r4, #31
1000602a:	19a4      	adds	r4, r4, r6
1000602c:	417d      	adcs	r5, r7
1000602e:	42bd      	cmp	r5, r7
10006030:	d802      	bhi.n	10006038 <sleep_until+0x24>
10006032:	d103      	bne.n	1000603c <sleep_until+0x28>
10006034:	42b4      	cmp	r4, r6
10006036:	d901      	bls.n	1000603c <sleep_until+0x28>
10006038:	2400      	movs	r4, #0
1000603a:	2500      	movs	r5, #0
1000603c:	2d00      	cmp	r5, #0
1000603e:	db14      	blt.n	1000606a <sleep_until+0x56>
10006040:	9404      	str	r4, [sp, #16]
10006042:	9505      	str	r5, [sp, #20]
10006044:	f000 f8ec 	bl	10006220 <time_us_64>
10006048:	0002      	movs	r2, r0
1000604a:	1e0b      	subs	r3, r1, #0
1000604c:	db13      	blt.n	10006076 <sleep_until+0x62>
1000604e:	1aa4      	subs	r4, r4, r2
10006050:	419d      	sbcs	r5, r3
10006052:	2d00      	cmp	r5, #0
10006054:	dc17      	bgt.n	10006086 <sleep_until+0x72>
10006056:	d014      	beq.n	10006082 <sleep_until+0x6e>
10006058:	0030      	movs	r0, r6
1000605a:	0039      	movs	r1, r7
1000605c:	f000 f8ec 	bl	10006238 <busy_wait_until>
10006060:	b007      	add	sp, #28
10006062:	bdf0      	pop	{r4, r5, r6, r7, pc}
10006064:	4823      	ldr	r0, [pc, #140]	; (100060f4 <sleep_until+0xe0>)
10006066:	f000 fd25 	bl	10006ab4 <panic>
1000606a:	4b23      	ldr	r3, [pc, #140]	; (100060f8 <sleep_until+0xe4>)
1000606c:	4a23      	ldr	r2, [pc, #140]	; (100060fc <sleep_until+0xe8>)
1000606e:	213f      	movs	r1, #63	; 0x3f
10006070:	4823      	ldr	r0, [pc, #140]	; (10006100 <sleep_until+0xec>)
10006072:	f000 fc85 	bl	10006980 <__assert_func>
10006076:	4b20      	ldr	r3, [pc, #128]	; (100060f8 <sleep_until+0xe4>)
10006078:	4a20      	ldr	r2, [pc, #128]	; (100060fc <sleep_until+0xe8>)
1000607a:	213f      	movs	r1, #63	; 0x3f
1000607c:	4820      	ldr	r0, [pc, #128]	; (10006100 <sleep_until+0xec>)
1000607e:	f000 fc7f 	bl	10006980 <__assert_func>
10006082:	2c00      	cmp	r4, #0
10006084:	d0e8      	beq.n	10006058 <sleep_until+0x44>
10006086:	f7ff fe23 	bl	10005cd0 <alarm_pool_get_default>
1000608a:	2300      	movs	r3, #0
1000608c:	9302      	str	r3, [sp, #8]
1000608e:	9301      	str	r3, [sp, #4]
10006090:	4b1c      	ldr	r3, [pc, #112]	; (10006104 <sleep_until+0xf0>)
10006092:	9300      	str	r3, [sp, #0]
10006094:	9a04      	ldr	r2, [sp, #16]
10006096:	9b05      	ldr	r3, [sp, #20]
10006098:	f7ff fe30 	bl	10005cfc <alarm_pool_add_alarm_at>
1000609c:	2800      	cmp	r0, #0
1000609e:	da18      	bge.n	100060d2 <sleep_until+0xbe>
100060a0:	e7da      	b.n	10006058 <sleep_until+0x44>
100060a2:	2300      	movs	r3, #0
100060a4:	e000      	b.n	100060a8 <sleep_until+0x94>
100060a6:	2300      	movs	r3, #0
100060a8:	2b00      	cmp	r3, #0
100060aa:	d1d5      	bne.n	10006058 <sleep_until+0x44>
100060ac:	4b16      	ldr	r3, [pc, #88]	; (10006108 <sleep_until+0xf4>)
100060ae:	681a      	ldr	r2, [r3, #0]
100060b0:	f3ef 8110 	mrs	r1, PRIMASK
100060b4:	b672      	cpsid	i
100060b6:	6813      	ldr	r3, [r2, #0]
100060b8:	2b00      	cmp	r3, #0
100060ba:	d0fc      	beq.n	100060b6 <sleep_until+0xa2>
100060bc:	f3bf 8f5f 	dmb	sy
100060c0:	4b11      	ldr	r3, [pc, #68]	; (10006108 <sleep_until+0xf4>)
100060c2:	681b      	ldr	r3, [r3, #0]
100060c4:	f3bf 8f5f 	dmb	sy
100060c8:	2200      	movs	r2, #0
100060ca:	601a      	str	r2, [r3, #0]
100060cc:	f381 8810 	msr	PRIMASK, r1
100060d0:	bf20      	wfe
100060d2:	9904      	ldr	r1, [sp, #16]
100060d4:	9a05      	ldr	r2, [sp, #20]
100060d6:	4b0d      	ldr	r3, [pc, #52]	; (1000610c <sleep_until+0xf8>)
100060d8:	6a5b      	ldr	r3, [r3, #36]	; 0x24
100060da:	429a      	cmp	r2, r3
100060dc:	d8e3      	bhi.n	100060a6 <sleep_until+0x92>
100060de:	480b      	ldr	r0, [pc, #44]	; (1000610c <sleep_until+0xf8>)
100060e0:	6a80      	ldr	r0, [r0, #40]	; 0x28
100060e2:	4288      	cmp	r0, r1
100060e4:	d203      	bcs.n	100060ee <sleep_until+0xda>
100060e6:	429a      	cmp	r2, r3
100060e8:	d0db      	beq.n	100060a2 <sleep_until+0x8e>
100060ea:	2301      	movs	r3, #1
100060ec:	e7dc      	b.n	100060a8 <sleep_until+0x94>
100060ee:	2301      	movs	r3, #1
100060f0:	e7da      	b.n	100060a8 <sleep_until+0x94>
100060f2:	46c0      	nop			; (mov r8, r8)
100060f4:	10009fb8 	.word	0x10009fb8
100060f8:	10009e88 	.word	0x10009e88
100060fc:	1000a03c 	.word	0x1000a03c
10006100:	10009ea4 	.word	0x10009ea4
10006104:	1000566d 	.word	0x1000566d
10006108:	20002b0c 	.word	0x20002b0c
1000610c:	40054000 	.word	0x40054000

10006110 <sleep_us>:
10006110:	b5f8      	push	{r3, r4, r5, r6, r7, lr}
10006112:	0004      	movs	r4, r0
10006114:	000d      	movs	r5, r1
10006116:	f000 f883 	bl	10006220 <time_us_64>
1000611a:	0002      	movs	r2, r0
1000611c:	1e0b      	subs	r3, r1, #0
1000611e:	db10      	blt.n	10006142 <sleep_us+0x32>
10006120:	0020      	movs	r0, r4
10006122:	0029      	movs	r1, r5
10006124:	1880      	adds	r0, r0, r2
10006126:	4159      	adcs	r1, r3
10006128:	428b      	cmp	r3, r1
1000612a:	d802      	bhi.n	10006132 <sleep_us+0x22>
1000612c:	d104      	bne.n	10006138 <sleep_us+0x28>
1000612e:	4282      	cmp	r2, r0
10006130:	d902      	bls.n	10006138 <sleep_us+0x28>
10006132:	2001      	movs	r0, #1
10006134:	4240      	negs	r0, r0
10006136:	17c1      	asrs	r1, r0, #31
10006138:	2900      	cmp	r1, #0
1000613a:	db08      	blt.n	1000614e <sleep_us+0x3e>
1000613c:	f7ff ff6a 	bl	10006014 <sleep_until>
10006140:	bdf8      	pop	{r3, r4, r5, r6, r7, pc}
10006142:	4b06      	ldr	r3, [pc, #24]	; (1000615c <sleep_us+0x4c>)
10006144:	4a06      	ldr	r2, [pc, #24]	; (10006160 <sleep_us+0x50>)
10006146:	213f      	movs	r1, #63	; 0x3f
10006148:	4806      	ldr	r0, [pc, #24]	; (10006164 <sleep_us+0x54>)
1000614a:	f000 fc19 	bl	10006980 <__assert_func>
1000614e:	4b03      	ldr	r3, [pc, #12]	; (1000615c <sleep_us+0x4c>)
10006150:	4a03      	ldr	r2, [pc, #12]	; (10006160 <sleep_us+0x50>)
10006152:	213f      	movs	r1, #63	; 0x3f
10006154:	4803      	ldr	r0, [pc, #12]	; (10006164 <sleep_us+0x54>)
10006156:	f000 fc13 	bl	10006980 <__assert_func>
1000615a:	46c0      	nop			; (mov r8, r8)
1000615c:	10009e88 	.word	0x10009e88
10006160:	1000a03c 	.word	0x1000a03c
10006164:	10009ea4 	.word	0x10009ea4

10006168 <sleep_ms>:
10006168:	b510      	push	{r4, lr}
1000616a:	22fa      	movs	r2, #250	; 0xfa
1000616c:	0092      	lsls	r2, r2, #2
1000616e:	2300      	movs	r3, #0
10006170:	2100      	movs	r1, #0
10006172:	f002 fb35 	bl	100087e0 <__wrap___aeabi_lmul>
10006176:	f7ff ffcb 	bl	10006110 <sleep_us>
1000617a:	bd10      	pop	{r4, pc}

1000617c <hardware_alarm_irq_handler>:
1000617c:	b570      	push	{r4, r5, r6, lr}
1000617e:	f3ef 8305 	mrs	r3, IPSR
10006182:	203f      	movs	r0, #63	; 0x3f
10006184:	4018      	ands	r0, r3
10006186:	3810      	subs	r0, #16
10006188:	f3ef 8c10 	mrs	ip, PRIMASK
1000618c:	b672      	cpsid	i
1000618e:	4b19      	ldr	r3, [pc, #100]	; (100061f4 <hardware_alarm_irq_handler+0x78>)
10006190:	681b      	ldr	r3, [r3, #0]
10006192:	2b00      	cmp	r3, #0
10006194:	d0fb      	beq.n	1000618e <hardware_alarm_irq_handler+0x12>
10006196:	f3bf 8f5f 	dmb	sy
1000619a:	2301      	movs	r3, #1
1000619c:	0019      	movs	r1, r3
1000619e:	4081      	lsls	r1, r0
100061a0:	4a15      	ldr	r2, [pc, #84]	; (100061f8 <hardware_alarm_irq_handler+0x7c>)
100061a2:	6351      	str	r1, [r2, #52]	; 0x34
100061a4:	4a15      	ldr	r2, [pc, #84]	; (100061fc <hardware_alarm_irq_handler+0x80>)
100061a6:	7812      	ldrb	r2, [r2, #0]
100061a8:	0014      	movs	r4, r2
100061aa:	40c4      	lsrs	r4, r0
100061ac:	4223      	tst	r3, r4
100061ae:	d014      	beq.n	100061da <hardware_alarm_irq_handler+0x5e>
100061b0:	4b11      	ldr	r3, [pc, #68]	; (100061f8 <hardware_alarm_irq_handler+0x7c>)
100061b2:	6a5c      	ldr	r4, [r3, #36]	; 0x24
100061b4:	0083      	lsls	r3, r0, #2
100061b6:	4d12      	ldr	r5, [pc, #72]	; (10006200 <hardware_alarm_irq_handler+0x84>)
100061b8:	595b      	ldr	r3, [r3, r5]
100061ba:	429c      	cmp	r4, r3
100061bc:	d306      	bcc.n	100061cc <hardware_alarm_irq_handler+0x50>
100061be:	0083      	lsls	r3, r0, #2
100061c0:	4c10      	ldr	r4, [pc, #64]	; (10006204 <hardware_alarm_irq_handler+0x88>)
100061c2:	591b      	ldr	r3, [r3, r4]
100061c4:	438a      	bics	r2, r1
100061c6:	490d      	ldr	r1, [pc, #52]	; (100061fc <hardware_alarm_irq_handler+0x80>)
100061c8:	700a      	strb	r2, [r1, #0]
100061ca:	e007      	b.n	100061dc <hardware_alarm_irq_handler+0x60>
100061cc:	4a0a      	ldr	r2, [pc, #40]	; (100061f8 <hardware_alarm_irq_handler+0x7c>)
100061ce:	1d03      	adds	r3, r0, #4
100061d0:	009b      	lsls	r3, r3, #2
100061d2:	5899      	ldr	r1, [r3, r2]
100061d4:	5099      	str	r1, [r3, r2]
100061d6:	2300      	movs	r3, #0
100061d8:	e000      	b.n	100061dc <hardware_alarm_irq_handler+0x60>
100061da:	2300      	movs	r3, #0
100061dc:	f3bf 8f5f 	dmb	sy
100061e0:	4a04      	ldr	r2, [pc, #16]	; (100061f4 <hardware_alarm_irq_handler+0x78>)
100061e2:	2100      	movs	r1, #0
100061e4:	6011      	str	r1, [r2, #0]
100061e6:	f38c 8810 	msr	PRIMASK, ip
100061ea:	2b00      	cmp	r3, #0
100061ec:	d000      	beq.n	100061f0 <hardware_alarm_irq_handler+0x74>
100061ee:	4798      	blx	r3
100061f0:	bd70      	pop	{r4, r5, r6, pc}
100061f2:	46c0      	nop			; (mov r8, r8)
100061f4:	d0000128 	.word	0xd0000128
100061f8:	40054000 	.word	0x40054000
100061fc:	20002b7b 	.word	0x20002b7b
10006200:	20002b10 	.word	0x20002b10
10006204:	20002770 	.word	0x20002770

10006208 <hardware_alarm_claim>:
10006208:	b510      	push	{r4, lr}
1000620a:	0001      	movs	r1, r0
1000620c:	4a02      	ldr	r2, [pc, #8]	; (10006218 <hardware_alarm_claim+0x10>)
1000620e:	4803      	ldr	r0, [pc, #12]	; (1000621c <hardware_alarm_claim+0x14>)
10006210:	f7fe ff8a 	bl	10005128 <hw_claim_or_assert>
10006214:	bd10      	pop	{r4, pc}
10006216:	46c0      	nop			; (mov r8, r8)
10006218:	1000a100 	.word	0x1000a100
1000621c:	20002b79 	.word	0x20002b79

10006220 <time_us_64>:
10006220:	4b04      	ldr	r3, [pc, #16]	; (10006234 <time_us_64+0x14>)
10006222:	6a5b      	ldr	r3, [r3, #36]	; 0x24
10006224:	4a03      	ldr	r2, [pc, #12]	; (10006234 <time_us_64+0x14>)
10006226:	6a90      	ldr	r0, [r2, #40]	; 0x28
10006228:	0019      	movs	r1, r3
1000622a:	6a53      	ldr	r3, [r2, #36]	; 0x24
1000622c:	4299      	cmp	r1, r3
1000622e:	d1f9      	bne.n	10006224 <time_us_64+0x4>
10006230:	4770      	bx	lr
10006232:	46c0      	nop			; (mov r8, r8)
10006234:	40054000 	.word	0x40054000

10006238 <busy_wait_until>:
10006238:	4b08      	ldr	r3, [pc, #32]	; (1000625c <busy_wait_until+0x24>)
1000623a:	6a5b      	ldr	r3, [r3, #36]	; 0x24
1000623c:	e001      	b.n	10006242 <busy_wait_until+0xa>
1000623e:	4b07      	ldr	r3, [pc, #28]	; (1000625c <busy_wait_until+0x24>)
10006240:	6a5b      	ldr	r3, [r3, #36]	; 0x24
10006242:	428b      	cmp	r3, r1
10006244:	d3fb      	bcc.n	1000623e <busy_wait_until+0x6>
10006246:	e001      	b.n	1000624c <busy_wait_until+0x14>
10006248:	4b04      	ldr	r3, [pc, #16]	; (1000625c <busy_wait_until+0x24>)
1000624a:	6a5b      	ldr	r3, [r3, #36]	; 0x24
1000624c:	428b      	cmp	r3, r1
1000624e:	d103      	bne.n	10006258 <busy_wait_until+0x20>
10006250:	4b02      	ldr	r3, [pc, #8]	; (1000625c <busy_wait_until+0x24>)
10006252:	6a9b      	ldr	r3, [r3, #40]	; 0x28
10006254:	4283      	cmp	r3, r0
10006256:	d3f7      	bcc.n	10006248 <busy_wait_until+0x10>
10006258:	4770      	bx	lr
1000625a:	46c0      	nop			; (mov r8, r8)
1000625c:	40054000 	.word	0x40054000

10006260 <hardware_alarm_set_callback>:
10006260:	b570      	push	{r4, r5, r6, lr}
10006262:	0004      	movs	r4, r0
10006264:	000d      	movs	r5, r1
10006266:	f3ef 8610 	mrs	r6, PRIMASK
1000626a:	b672      	cpsid	i
1000626c:	4b1b      	ldr	r3, [pc, #108]	; (100062dc <hardware_alarm_set_callback+0x7c>)
1000626e:	681b      	ldr	r3, [r3, #0]
10006270:	2b00      	cmp	r3, #0
10006272:	d0fb      	beq.n	1000626c <hardware_alarm_set_callback+0xc>
10006274:	f3bf 8f5f 	dmb	sy
10006278:	2d00      	cmp	r5, #0
1000627a:	d01c      	beq.n	100062b6 <hardware_alarm_set_callback+0x56>
1000627c:	0020      	movs	r0, r4
1000627e:	f7ff f811 	bl	100052a4 <irq_get_vtable_handler>
10006282:	4b17      	ldr	r3, [pc, #92]	; (100062e0 <hardware_alarm_set_callback+0x80>)
10006284:	4283      	cmp	r3, r0
10006286:	d00b      	beq.n	100062a0 <hardware_alarm_set_callback+0x40>
10006288:	0019      	movs	r1, r3
1000628a:	0020      	movs	r0, r4
1000628c:	f7ff f812 	bl	100052b4 <irq_set_exclusive_handler>
10006290:	2101      	movs	r1, #1
10006292:	0020      	movs	r0, r4
10006294:	f7fe fffe 	bl	10005294 <irq_set_enabled>
10006298:	2301      	movs	r3, #1
1000629a:	40a3      	lsls	r3, r4
1000629c:	4a11      	ldr	r2, [pc, #68]	; (100062e4 <hardware_alarm_set_callback+0x84>)
1000629e:	6013      	str	r3, [r2, #0]
100062a0:	00a4      	lsls	r4, r4, #2
100062a2:	4b11      	ldr	r3, [pc, #68]	; (100062e8 <hardware_alarm_set_callback+0x88>)
100062a4:	50e5      	str	r5, [r4, r3]
100062a6:	f3bf 8f5f 	dmb	sy
100062aa:	4b0c      	ldr	r3, [pc, #48]	; (100062dc <hardware_alarm_set_callback+0x7c>)
100062ac:	2200      	movs	r2, #0
100062ae:	601a      	str	r2, [r3, #0]
100062b0:	f386 8810 	msr	PRIMASK, r6
100062b4:	bd70      	pop	{r4, r5, r6, pc}
100062b6:	00a2      	lsls	r2, r4, #2
100062b8:	4b0b      	ldr	r3, [pc, #44]	; (100062e8 <hardware_alarm_set_callback+0x88>)
100062ba:	2100      	movs	r1, #0
100062bc:	50d1      	str	r1, [r2, r3]
100062be:	2201      	movs	r2, #1
100062c0:	40a2      	lsls	r2, r4
100062c2:	490a      	ldr	r1, [pc, #40]	; (100062ec <hardware_alarm_set_callback+0x8c>)
100062c4:	780b      	ldrb	r3, [r1, #0]
100062c6:	4393      	bics	r3, r2
100062c8:	700b      	strb	r3, [r1, #0]
100062ca:	4905      	ldr	r1, [pc, #20]	; (100062e0 <hardware_alarm_set_callback+0x80>)
100062cc:	0020      	movs	r0, r4
100062ce:	f7ff f81b 	bl	10005308 <irq_remove_handler>
100062d2:	2100      	movs	r1, #0
100062d4:	0020      	movs	r0, r4
100062d6:	f7fe ffdd 	bl	10005294 <irq_set_enabled>
100062da:	e7e4      	b.n	100062a6 <hardware_alarm_set_callback+0x46>
100062dc:	d0000128 	.word	0xd0000128
100062e0:	1000617d 	.word	0x1000617d
100062e4:	40056038 	.word	0x40056038
100062e8:	20002770 	.word	0x20002770
100062ec:	20002b7b 	.word	0x20002b7b

100062f0 <hardware_alarm_set_target>:
100062f0:	b5f0      	push	{r4, r5, r6, r7, lr}
100062f2:	46de      	mov	lr, fp
100062f4:	b500      	push	{lr}
100062f6:	b084      	sub	sp, #16
100062f8:	0004      	movs	r4, r0
100062fa:	0015      	movs	r5, r2
100062fc:	9201      	str	r2, [sp, #4]
100062fe:	001e      	movs	r6, r3
10006300:	9302      	str	r3, [sp, #8]
10006302:	f7ff ff8d 	bl	10006220 <time_us_64>
10006306:	9503      	str	r5, [sp, #12]
10006308:	428e      	cmp	r6, r1
1000630a:	d802      	bhi.n	10006312 <hardware_alarm_set_target+0x22>
1000630c:	d14e      	bne.n	100063ac <hardware_alarm_set_target+0xbc>
1000630e:	4285      	cmp	r5, r0
10006310:	d94c      	bls.n	100063ac <hardware_alarm_set_target+0xbc>
10006312:	f3ef 8b10 	mrs	fp, PRIMASK
10006316:	b672      	cpsid	i
10006318:	4b27      	ldr	r3, [pc, #156]	; (100063b8 <hardware_alarm_set_target+0xc8>)
1000631a:	681b      	ldr	r3, [r3, #0]
1000631c:	2b00      	cmp	r3, #0
1000631e:	d0fb      	beq.n	10006318 <hardware_alarm_set_target+0x28>
10006320:	f3bf 8f5f 	dmb	sy
10006324:	4a25      	ldr	r2, [pc, #148]	; (100063bc <hardware_alarm_set_target+0xcc>)
10006326:	7817      	ldrb	r7, [r2, #0]
10006328:	2501      	movs	r5, #1
1000632a:	40a5      	lsls	r5, r4
1000632c:	b2eb      	uxtb	r3, r5
1000632e:	433b      	orrs	r3, r7
10006330:	7013      	strb	r3, [r2, #0]
10006332:	4b23      	ldr	r3, [pc, #140]	; (100063c0 <hardware_alarm_set_target+0xd0>)
10006334:	635d      	str	r5, [r3, #52]	; 0x34
10006336:	1d22      	adds	r2, r4, #4
10006338:	0092      	lsls	r2, r2, #2
1000633a:	9901      	ldr	r1, [sp, #4]
1000633c:	50d1      	str	r1, [r2, r3]
1000633e:	00a2      	lsls	r2, r4, #2
10006340:	4920      	ldr	r1, [pc, #128]	; (100063c4 <hardware_alarm_set_target+0xd4>)
10006342:	9802      	ldr	r0, [sp, #8]
10006344:	5050      	str	r0, [r2, r1]
10006346:	6a1b      	ldr	r3, [r3, #32]
10006348:	422b      	tst	r3, r5
1000634a:	d112      	bne.n	10006372 <hardware_alarm_set_target+0x82>
1000634c:	4b1c      	ldr	r3, [pc, #112]	; (100063c0 <hardware_alarm_set_target+0xd0>)
1000634e:	6c1b      	ldr	r3, [r3, #64]	; 0x40
10006350:	422b      	tst	r3, r5
10006352:	d008      	beq.n	10006366 <hardware_alarm_set_target+0x76>
10006354:	2000      	movs	r0, #0
10006356:	f3bf 8f5f 	dmb	sy
1000635a:	4b17      	ldr	r3, [pc, #92]	; (100063b8 <hardware_alarm_set_target+0xc8>)
1000635c:	2200      	movs	r2, #0
1000635e:	601a      	str	r2, [r3, #0]
10006360:	f38b 8810 	msr	PRIMASK, fp
10006364:	e023      	b.n	100063ae <hardware_alarm_set_target+0xbe>
10006366:	4b18      	ldr	r3, [pc, #96]	; (100063c8 <hardware_alarm_set_target+0xd8>)
10006368:	4a18      	ldr	r2, [pc, #96]	; (100063cc <hardware_alarm_set_target+0xdc>)
1000636a:	21c1      	movs	r1, #193	; 0xc1
1000636c:	4818      	ldr	r0, [pc, #96]	; (100063d0 <hardware_alarm_set_target+0xe0>)
1000636e:	f000 fb07 	bl	10006980 <__assert_func>
10006372:	f7ff ff55 	bl	10006220 <time_us_64>
10006376:	428e      	cmp	r6, r1
10006378:	d814      	bhi.n	100063a4 <hardware_alarm_set_target+0xb4>
1000637a:	d102      	bne.n	10006382 <hardware_alarm_set_target+0x92>
1000637c:	9b03      	ldr	r3, [sp, #12]
1000637e:	4283      	cmp	r3, r0
10006380:	d810      	bhi.n	100063a4 <hardware_alarm_set_target+0xb4>
10006382:	4b0e      	ldr	r3, [pc, #56]	; (100063bc <hardware_alarm_set_target+0xcc>)
10006384:	781b      	ldrb	r3, [r3, #0]
10006386:	42bb      	cmp	r3, r7
10006388:	d00e      	beq.n	100063a8 <hardware_alarm_set_target+0xb8>
1000638a:	4b0d      	ldr	r3, [pc, #52]	; (100063c0 <hardware_alarm_set_target+0xd0>)
1000638c:	621d      	str	r5, [r3, #32]
1000638e:	635d      	str	r5, [r3, #52]	; 0x34
10006390:	201f      	movs	r0, #31
10006392:	4004      	ands	r4, r0
10006394:	2301      	movs	r3, #1
10006396:	40a3      	lsls	r3, r4
10006398:	4a0e      	ldr	r2, [pc, #56]	; (100063d4 <hardware_alarm_set_target+0xe4>)
1000639a:	6013      	str	r3, [r2, #0]
1000639c:	4b07      	ldr	r3, [pc, #28]	; (100063bc <hardware_alarm_set_target+0xcc>)
1000639e:	701f      	strb	r7, [r3, #0]
100063a0:	381e      	subs	r0, #30
100063a2:	e7d8      	b.n	10006356 <hardware_alarm_set_target+0x66>
100063a4:	2000      	movs	r0, #0
100063a6:	e7d6      	b.n	10006356 <hardware_alarm_set_target+0x66>
100063a8:	2001      	movs	r0, #1
100063aa:	e7d4      	b.n	10006356 <hardware_alarm_set_target+0x66>
100063ac:	2001      	movs	r0, #1
100063ae:	b004      	add	sp, #16
100063b0:	bc80      	pop	{r7}
100063b2:	46bb      	mov	fp, r7
100063b4:	bdf0      	pop	{r4, r5, r6, r7, pc}
100063b6:	46c0      	nop			; (mov r8, r8)
100063b8:	d0000128 	.word	0xd0000128
100063bc:	20002b7b 	.word	0x20002b7b
100063c0:	40054000 	.word	0x40054000
100063c4:	20002b10 	.word	0x20002b10
100063c8:	1000a124 	.word	0x1000a124
100063cc:	1000a188 	.word	0x1000a188
100063d0:	1000a148 	.word	0x1000a148
100063d4:	e000e280 	.word	0xe000e280

100063d8 <hardware_alarm_cancel>:
100063d8:	f3ef 8c10 	mrs	ip, PRIMASK
100063dc:	b672      	cpsid	i
100063de:	4b0b      	ldr	r3, [pc, #44]	; (1000640c <hardware_alarm_cancel+0x34>)
100063e0:	681b      	ldr	r3, [r3, #0]
100063e2:	2b00      	cmp	r3, #0
100063e4:	d0fb      	beq.n	100063de <hardware_alarm_cancel+0x6>
100063e6:	f3bf 8f5f 	dmb	sy
100063ea:	2301      	movs	r3, #1
100063ec:	4083      	lsls	r3, r0
100063ee:	4a08      	ldr	r2, [pc, #32]	; (10006410 <hardware_alarm_cancel+0x38>)
100063f0:	6213      	str	r3, [r2, #32]
100063f2:	4908      	ldr	r1, [pc, #32]	; (10006414 <hardware_alarm_cancel+0x3c>)
100063f4:	780a      	ldrb	r2, [r1, #0]
100063f6:	439a      	bics	r2, r3
100063f8:	700a      	strb	r2, [r1, #0]
100063fa:	f3bf 8f5f 	dmb	sy
100063fe:	4b03      	ldr	r3, [pc, #12]	; (1000640c <hardware_alarm_cancel+0x34>)
10006400:	2200      	movs	r2, #0
10006402:	601a      	str	r2, [r3, #0]
10006404:	f38c 8810 	msr	PRIMASK, ip
10006408:	4770      	bx	lr
1000640a:	46c0      	nop			; (mov r8, r8)
1000640c:	d0000128 	.word	0xd0000128
10006410:	40054000 	.word	0x40054000
10006414:	20002b7b 	.word	0x20002b7b

10006418 <ph_add_child_node>:
10006418:	b510      	push	{r4, lr}
1000641a:	2900      	cmp	r1, #0
1000641c:	d01e      	beq.n	1000645c <ph_add_child_node+0x44>
1000641e:	7b03      	ldrb	r3, [r0, #12]
10006420:	4299      	cmp	r1, r3
10006422:	d81b      	bhi.n	1000645c <ph_add_child_node+0x44>
10006424:	004b      	lsls	r3, r1, #1
10006426:	185b      	adds	r3, r3, r1
10006428:	3b03      	subs	r3, #3
1000642a:	6804      	ldr	r4, [r0, #0]
1000642c:	46a4      	mov	ip, r4
1000642e:	4463      	add	r3, ip
10006430:	2900      	cmp	r1, #0
10006432:	d019      	beq.n	10006468 <ph_add_child_node+0x50>
10006434:	2a00      	cmp	r2, #0
10006436:	d01d      	beq.n	10006474 <ph_add_child_node+0x5c>
10006438:	4291      	cmp	r1, r2
1000643a:	d021      	beq.n	10006480 <ph_add_child_node+0x68>
1000643c:	2a00      	cmp	r2, #0
1000643e:	d025      	beq.n	1000648c <ph_add_child_node+0x74>
10006440:	7b04      	ldrb	r4, [r0, #12]
10006442:	42a2      	cmp	r2, r4
10006444:	d822      	bhi.n	1000648c <ph_add_child_node+0x74>
10006446:	6804      	ldr	r4, [r0, #0]
10006448:	0050      	lsls	r0, r2, #1
1000644a:	1880      	adds	r0, r0, r2
1000644c:	3803      	subs	r0, #3
1000644e:	1820      	adds	r0, r4, r0
10006450:	7081      	strb	r1, [r0, #2]
10006452:	7819      	ldrb	r1, [r3, #0]
10006454:	2900      	cmp	r1, #0
10006456:	d11f      	bne.n	10006498 <ph_add_child_node+0x80>
10006458:	701a      	strb	r2, [r3, #0]
1000645a:	bd10      	pop	{r4, pc}
1000645c:	4b10      	ldr	r3, [pc, #64]	; (100064a0 <ph_add_child_node+0x88>)
1000645e:	4a11      	ldr	r2, [pc, #68]	; (100064a4 <ph_add_child_node+0x8c>)
10006460:	2168      	movs	r1, #104	; 0x68
10006462:	4811      	ldr	r0, [pc, #68]	; (100064a8 <ph_add_child_node+0x90>)
10006464:	f000 fa8c 	bl	10006980 <__assert_func>
10006468:	4b10      	ldr	r3, [pc, #64]	; (100064ac <ph_add_child_node+0x94>)
1000646a:	4a11      	ldr	r2, [pc, #68]	; (100064b0 <ph_add_child_node+0x98>)
1000646c:	316f      	adds	r1, #111	; 0x6f
1000646e:	480e      	ldr	r0, [pc, #56]	; (100064a8 <ph_add_child_node+0x90>)
10006470:	f000 fa86 	bl	10006980 <__assert_func>
10006474:	4b0f      	ldr	r3, [pc, #60]	; (100064b4 <ph_add_child_node+0x9c>)
10006476:	4a0e      	ldr	r2, [pc, #56]	; (100064b0 <ph_add_child_node+0x98>)
10006478:	2170      	movs	r1, #112	; 0x70
1000647a:	480b      	ldr	r0, [pc, #44]	; (100064a8 <ph_add_child_node+0x90>)
1000647c:	f000 fa80 	bl	10006980 <__assert_func>
10006480:	4b0d      	ldr	r3, [pc, #52]	; (100064b8 <ph_add_child_node+0xa0>)
10006482:	4a0b      	ldr	r2, [pc, #44]	; (100064b0 <ph_add_child_node+0x98>)
10006484:	2171      	movs	r1, #113	; 0x71
10006486:	4808      	ldr	r0, [pc, #32]	; (100064a8 <ph_add_child_node+0x90>)
10006488:	f000 fa7a 	bl	10006980 <__assert_func>
1000648c:	4b04      	ldr	r3, [pc, #16]	; (100064a0 <ph_add_child_node+0x88>)
1000648e:	4a05      	ldr	r2, [pc, #20]	; (100064a4 <ph_add_child_node+0x8c>)
10006490:	2168      	movs	r1, #104	; 0x68
10006492:	4805      	ldr	r0, [pc, #20]	; (100064a8 <ph_add_child_node+0x90>)
10006494:	f000 fa74 	bl	10006980 <__assert_func>
10006498:	7041      	strb	r1, [r0, #1]
1000649a:	701a      	strb	r2, [r3, #0]
1000649c:	e7dd      	b.n	1000645a <ph_add_child_node+0x42>
1000649e:	46c0      	nop			; (mov r8, r8)
100064a0:	10009dcc 	.word	0x10009dcc
100064a4:	1000a290 	.word	0x1000a290
100064a8:	10009de8 	.word	0x10009de8
100064ac:	10009e30 	.word	0x10009e30
100064b0:	1000a27c 	.word	0x1000a27c
100064b4:	10009e3c 	.word	0x10009e3c
100064b8:	10009e48 	.word	0x10009e48

100064bc <ph_merge_nodes>:
100064bc:	b570      	push	{r4, r5, r6, lr}
100064be:	0006      	movs	r6, r0
100064c0:	000d      	movs	r5, r1
100064c2:	0014      	movs	r4, r2
100064c4:	2900      	cmp	r1, #0
100064c6:	d014      	beq.n	100064f2 <ph_merge_nodes+0x36>
100064c8:	2a00      	cmp	r2, #0
100064ca:	d014      	beq.n	100064f6 <ph_merge_nodes+0x3a>
100064cc:	6880      	ldr	r0, [r0, #8]
100064ce:	6873      	ldr	r3, [r6, #4]
100064d0:	4798      	blx	r3
100064d2:	2800      	cmp	r0, #0
100064d4:	d006      	beq.n	100064e4 <ph_merge_nodes+0x28>
100064d6:	0022      	movs	r2, r4
100064d8:	0029      	movs	r1, r5
100064da:	0030      	movs	r0, r6
100064dc:	f7ff ff9c 	bl	10006418 <ph_add_child_node>
100064e0:	0028      	movs	r0, r5
100064e2:	e007      	b.n	100064f4 <ph_merge_nodes+0x38>
100064e4:	002a      	movs	r2, r5
100064e6:	0021      	movs	r1, r4
100064e8:	0030      	movs	r0, r6
100064ea:	f7ff ff95 	bl	10006418 <ph_add_child_node>
100064ee:	0020      	movs	r0, r4
100064f0:	e000      	b.n	100064f4 <ph_merge_nodes+0x38>
100064f2:	0010      	movs	r0, r2
100064f4:	bd70      	pop	{r4, r5, r6, pc}
100064f6:	0008      	movs	r0, r1
100064f8:	e7fc      	b.n	100064f4 <ph_merge_nodes+0x38>
	...

100064fc <ph_clear>:
100064fc:	b510      	push	{r4, lr}
100064fe:	2300      	movs	r3, #0
10006500:	7343      	strb	r3, [r0, #13]
10006502:	3301      	adds	r3, #1
10006504:	7383      	strb	r3, [r0, #14]
10006506:	7b03      	ldrb	r3, [r0, #12]
10006508:	73c3      	strb	r3, [r0, #15]
1000650a:	2301      	movs	r3, #1
1000650c:	7b02      	ldrb	r2, [r0, #12]
1000650e:	429a      	cmp	r2, r3
10006510:	d914      	bls.n	1000653c <ph_clear+0x40>
10006512:	2b00      	cmp	r3, #0
10006514:	d00c      	beq.n	10006530 <ph_clear+0x34>
10006516:	7b02      	ldrb	r2, [r0, #12]
10006518:	4293      	cmp	r3, r2
1000651a:	d809      	bhi.n	10006530 <ph_clear+0x34>
1000651c:	005a      	lsls	r2, r3, #1
1000651e:	18d2      	adds	r2, r2, r3
10006520:	3a03      	subs	r2, #3
10006522:	6801      	ldr	r1, [r0, #0]
10006524:	468c      	mov	ip, r1
10006526:	4462      	add	r2, ip
10006528:	3301      	adds	r3, #1
1000652a:	b2db      	uxtb	r3, r3
1000652c:	7053      	strb	r3, [r2, #1]
1000652e:	e7ed      	b.n	1000650c <ph_clear+0x10>
10006530:	4b0b      	ldr	r3, [pc, #44]	; (10006560 <ph_clear+0x64>)
10006532:	4a0c      	ldr	r2, [pc, #48]	; (10006564 <ph_clear+0x68>)
10006534:	2168      	movs	r1, #104	; 0x68
10006536:	480c      	ldr	r0, [pc, #48]	; (10006568 <ph_clear+0x6c>)
10006538:	f000 fa22 	bl	10006980 <__assert_func>
1000653c:	2a00      	cmp	r2, #0
1000653e:	d009      	beq.n	10006554 <ph_clear+0x58>
10006540:	4292      	cmp	r2, r2
10006542:	d807      	bhi.n	10006554 <ph_clear+0x58>
10006544:	6801      	ldr	r1, [r0, #0]
10006546:	0053      	lsls	r3, r2, #1
10006548:	189a      	adds	r2, r3, r2
1000654a:	3a03      	subs	r2, #3
1000654c:	188a      	adds	r2, r1, r2
1000654e:	2300      	movs	r3, #0
10006550:	7053      	strb	r3, [r2, #1]
10006552:	bd10      	pop	{r4, pc}
10006554:	4b02      	ldr	r3, [pc, #8]	; (10006560 <ph_clear+0x64>)
10006556:	4a03      	ldr	r2, [pc, #12]	; (10006564 <ph_clear+0x68>)
10006558:	2168      	movs	r1, #104	; 0x68
1000655a:	4803      	ldr	r0, [pc, #12]	; (10006568 <ph_clear+0x6c>)
1000655c:	f000 fa10 	bl	10006980 <__assert_func>
10006560:	10009dcc 	.word	0x10009dcc
10006564:	1000a290 	.word	0x1000a290
10006568:	10009de8 	.word	0x10009de8

1000656c <ph_post_alloc_init>:
1000656c:	b510      	push	{r4, lr}
1000656e:	7301      	strb	r1, [r0, #12]
10006570:	6042      	str	r2, [r0, #4]
10006572:	6083      	str	r3, [r0, #8]
10006574:	f7ff ffc2 	bl	100064fc <ph_clear>
10006578:	bd10      	pop	{r4, pc}
	...

1000657c <ph_merge_two_pass>:
1000657c:	b570      	push	{r4, r5, r6, lr}
1000657e:	0004      	movs	r4, r0
10006580:	1e08      	subs	r0, r1, #0
10006582:	d100      	bne.n	10006586 <ph_merge_two_pass+0xa>
10006584:	bd70      	pop	{r4, r5, r6, pc}
10006586:	2900      	cmp	r1, #0
10006588:	d034      	beq.n	100065f4 <ph_merge_two_pass+0x78>
1000658a:	7b23      	ldrb	r3, [r4, #12]
1000658c:	4299      	cmp	r1, r3
1000658e:	d831      	bhi.n	100065f4 <ph_merge_two_pass+0x78>
10006590:	004b      	lsls	r3, r1, #1
10006592:	185b      	adds	r3, r3, r1
10006594:	3b03      	subs	r3, #3
10006596:	6822      	ldr	r2, [r4, #0]
10006598:	4694      	mov	ip, r2
1000659a:	4463      	add	r3, ip
1000659c:	785a      	ldrb	r2, [r3, #1]
1000659e:	2a00      	cmp	r2, #0
100065a0:	d0f0      	beq.n	10006584 <ph_merge_two_pass+0x8>
100065a2:	d02d      	beq.n	10006600 <ph_merge_two_pass+0x84>
100065a4:	7b23      	ldrb	r3, [r4, #12]
100065a6:	429a      	cmp	r2, r3
100065a8:	d82a      	bhi.n	10006600 <ph_merge_two_pass+0x84>
100065aa:	0053      	lsls	r3, r2, #1
100065ac:	189b      	adds	r3, r3, r2
100065ae:	3b03      	subs	r3, #3
100065b0:	6821      	ldr	r1, [r4, #0]
100065b2:	468c      	mov	ip, r1
100065b4:	4463      	add	r3, ip
100065b6:	785d      	ldrb	r5, [r3, #1]
100065b8:	2100      	movs	r1, #0
100065ba:	7059      	strb	r1, [r3, #1]
100065bc:	2800      	cmp	r0, #0
100065be:	d025      	beq.n	1000660c <ph_merge_two_pass+0x90>
100065c0:	7b23      	ldrb	r3, [r4, #12]
100065c2:	4298      	cmp	r0, r3
100065c4:	d822      	bhi.n	1000660c <ph_merge_two_pass+0x90>
100065c6:	0043      	lsls	r3, r0, #1
100065c8:	181b      	adds	r3, r3, r0
100065ca:	3b03      	subs	r3, #3
100065cc:	6821      	ldr	r1, [r4, #0]
100065ce:	468c      	mov	ip, r1
100065d0:	4463      	add	r3, ip
100065d2:	2100      	movs	r1, #0
100065d4:	7059      	strb	r1, [r3, #1]
100065d6:	0001      	movs	r1, r0
100065d8:	0020      	movs	r0, r4
100065da:	f7ff ff6f 	bl	100064bc <ph_merge_nodes>
100065de:	0006      	movs	r6, r0
100065e0:	0029      	movs	r1, r5
100065e2:	0020      	movs	r0, r4
100065e4:	f7ff ffca 	bl	1000657c <ph_merge_two_pass>
100065e8:	0002      	movs	r2, r0
100065ea:	0031      	movs	r1, r6
100065ec:	0020      	movs	r0, r4
100065ee:	f7ff ff65 	bl	100064bc <ph_merge_nodes>
100065f2:	e7c7      	b.n	10006584 <ph_merge_two_pass+0x8>
100065f4:	4b08      	ldr	r3, [pc, #32]	; (10006618 <ph_merge_two_pass+0x9c>)
100065f6:	4a09      	ldr	r2, [pc, #36]	; (1000661c <ph_merge_two_pass+0xa0>)
100065f8:	2168      	movs	r1, #104	; 0x68
100065fa:	4809      	ldr	r0, [pc, #36]	; (10006620 <ph_merge_two_pass+0xa4>)
100065fc:	f000 f9c0 	bl	10006980 <__assert_func>
10006600:	4b05      	ldr	r3, [pc, #20]	; (10006618 <ph_merge_two_pass+0x9c>)
10006602:	4a06      	ldr	r2, [pc, #24]	; (1000661c <ph_merge_two_pass+0xa0>)
10006604:	2168      	movs	r1, #104	; 0x68
10006606:	4806      	ldr	r0, [pc, #24]	; (10006620 <ph_merge_two_pass+0xa4>)
10006608:	f000 f9ba 	bl	10006980 <__assert_func>
1000660c:	4b02      	ldr	r3, [pc, #8]	; (10006618 <ph_merge_two_pass+0x9c>)
1000660e:	4a03      	ldr	r2, [pc, #12]	; (1000661c <ph_merge_two_pass+0xa0>)
10006610:	2168      	movs	r1, #104	; 0x68
10006612:	4803      	ldr	r0, [pc, #12]	; (10006620 <ph_merge_two_pass+0xa4>)
10006614:	f000 f9b4 	bl	10006980 <__assert_func>
10006618:	10009dcc 	.word	0x10009dcc
1000661c:	1000a290 	.word	0x1000a290
10006620:	10009de8 	.word	0x10009de8

10006624 <ph_remove_any_head>:
10006624:	b570      	push	{r4, r5, r6, lr}
10006626:	0005      	movs	r5, r0
10006628:	000c      	movs	r4, r1
1000662a:	0016      	movs	r6, r2
1000662c:	2900      	cmp	r1, #0
1000662e:	d028      	beq.n	10006682 <ph_remove_any_head+0x5e>
10006630:	d02d      	beq.n	1000668e <ph_remove_any_head+0x6a>
10006632:	7b03      	ldrb	r3, [r0, #12]
10006634:	4299      	cmp	r1, r3
10006636:	d82a      	bhi.n	1000668e <ph_remove_any_head+0x6a>
10006638:	004b      	lsls	r3, r1, #1
1000663a:	185b      	adds	r3, r3, r1
1000663c:	3b03      	subs	r3, #3
1000663e:	6802      	ldr	r2, [r0, #0]
10006640:	4694      	mov	ip, r2
10006642:	4463      	add	r3, ip
10006644:	785a      	ldrb	r2, [r3, #1]
10006646:	2a00      	cmp	r2, #0
10006648:	d127      	bne.n	1000669a <ph_remove_any_head+0x76>
1000664a:	789a      	ldrb	r2, [r3, #2]
1000664c:	2a00      	cmp	r2, #0
1000664e:	d12a      	bne.n	100066a6 <ph_remove_any_head+0x82>
10006650:	7819      	ldrb	r1, [r3, #0]
10006652:	f7ff ff93 	bl	1000657c <ph_merge_two_pass>
10006656:	0003      	movs	r3, r0
10006658:	2e00      	cmp	r6, #0
1000665a:	d003      	beq.n	10006664 <ph_remove_any_head+0x40>
1000665c:	7bea      	ldrb	r2, [r5, #15]
1000665e:	2a00      	cmp	r2, #0
10006660:	d127      	bne.n	100066b2 <ph_remove_any_head+0x8e>
10006662:	73ec      	strb	r4, [r5, #15]
10006664:	2b00      	cmp	r3, #0
10006666:	d137      	bne.n	100066d8 <ph_remove_any_head+0xb4>
10006668:	2c00      	cmp	r4, #0
1000666a:	d049      	beq.n	10006700 <ph_remove_any_head+0xdc>
1000666c:	7b2b      	ldrb	r3, [r5, #12]
1000666e:	429c      	cmp	r4, r3
10006670:	d846      	bhi.n	10006700 <ph_remove_any_head+0xdc>
10006672:	682b      	ldr	r3, [r5, #0]
10006674:	0061      	lsls	r1, r4, #1
10006676:	190c      	adds	r4, r1, r4
10006678:	3c03      	subs	r4, #3
1000667a:	191c      	adds	r4, r3, r4
1000667c:	2300      	movs	r3, #0
1000667e:	7063      	strb	r3, [r4, #1]
10006680:	bd70      	pop	{r4, r5, r6, pc}
10006682:	4b22      	ldr	r3, [pc, #136]	; (1000670c <ph_remove_any_head+0xe8>)
10006684:	4a22      	ldr	r2, [pc, #136]	; (10006710 <ph_remove_any_head+0xec>)
10006686:	2138      	movs	r1, #56	; 0x38
10006688:	4822      	ldr	r0, [pc, #136]	; (10006714 <ph_remove_any_head+0xf0>)
1000668a:	f000 f979 	bl	10006980 <__assert_func>
1000668e:	4b22      	ldr	r3, [pc, #136]	; (10006718 <ph_remove_any_head+0xf4>)
10006690:	4a22      	ldr	r2, [pc, #136]	; (1000671c <ph_remove_any_head+0xf8>)
10006692:	2168      	movs	r1, #104	; 0x68
10006694:	4822      	ldr	r0, [pc, #136]	; (10006720 <ph_remove_any_head+0xfc>)
10006696:	f000 f973 	bl	10006980 <__assert_func>
1000669a:	4b22      	ldr	r3, [pc, #136]	; (10006724 <ph_remove_any_head+0x100>)
1000669c:	4a1c      	ldr	r2, [pc, #112]	; (10006710 <ph_remove_any_head+0xec>)
1000669e:	213a      	movs	r1, #58	; 0x3a
100066a0:	481c      	ldr	r0, [pc, #112]	; (10006714 <ph_remove_any_head+0xf0>)
100066a2:	f000 f96d 	bl	10006980 <__assert_func>
100066a6:	4b20      	ldr	r3, [pc, #128]	; (10006728 <ph_remove_any_head+0x104>)
100066a8:	4a19      	ldr	r2, [pc, #100]	; (10006710 <ph_remove_any_head+0xec>)
100066aa:	213b      	movs	r1, #59	; 0x3b
100066ac:	4819      	ldr	r0, [pc, #100]	; (10006714 <ph_remove_any_head+0xf0>)
100066ae:	f000 f967 	bl	10006980 <__assert_func>
100066b2:	2a00      	cmp	r2, #0
100066b4:	d00a      	beq.n	100066cc <ph_remove_any_head+0xa8>
100066b6:	7b29      	ldrb	r1, [r5, #12]
100066b8:	428a      	cmp	r2, r1
100066ba:	d807      	bhi.n	100066cc <ph_remove_any_head+0xa8>
100066bc:	0051      	lsls	r1, r2, #1
100066be:	188a      	adds	r2, r1, r2
100066c0:	3a03      	subs	r2, #3
100066c2:	6829      	ldr	r1, [r5, #0]
100066c4:	468c      	mov	ip, r1
100066c6:	4462      	add	r2, ip
100066c8:	7054      	strb	r4, [r2, #1]
100066ca:	e7ca      	b.n	10006662 <ph_remove_any_head+0x3e>
100066cc:	4b12      	ldr	r3, [pc, #72]	; (10006718 <ph_remove_any_head+0xf4>)
100066ce:	4a13      	ldr	r2, [pc, #76]	; (1000671c <ph_remove_any_head+0xf8>)
100066d0:	2168      	movs	r1, #104	; 0x68
100066d2:	4813      	ldr	r0, [pc, #76]	; (10006720 <ph_remove_any_head+0xfc>)
100066d4:	f000 f954 	bl	10006980 <__assert_func>
100066d8:	2b00      	cmp	r3, #0
100066da:	d00b      	beq.n	100066f4 <ph_remove_any_head+0xd0>
100066dc:	7b2a      	ldrb	r2, [r5, #12]
100066de:	4293      	cmp	r3, r2
100066e0:	d808      	bhi.n	100066f4 <ph_remove_any_head+0xd0>
100066e2:	0043      	lsls	r3, r0, #1
100066e4:	181b      	adds	r3, r3, r0
100066e6:	3b03      	subs	r3, #3
100066e8:	682a      	ldr	r2, [r5, #0]
100066ea:	4694      	mov	ip, r2
100066ec:	4463      	add	r3, ip
100066ee:	2200      	movs	r2, #0
100066f0:	709a      	strb	r2, [r3, #2]
100066f2:	e7b9      	b.n	10006668 <ph_remove_any_head+0x44>
100066f4:	4b08      	ldr	r3, [pc, #32]	; (10006718 <ph_remove_any_head+0xf4>)
100066f6:	4a09      	ldr	r2, [pc, #36]	; (1000671c <ph_remove_any_head+0xf8>)
100066f8:	2168      	movs	r1, #104	; 0x68
100066fa:	4809      	ldr	r0, [pc, #36]	; (10006720 <ph_remove_any_head+0xfc>)
100066fc:	f000 f940 	bl	10006980 <__assert_func>
10006700:	4b05      	ldr	r3, [pc, #20]	; (10006718 <ph_remove_any_head+0xf4>)
10006702:	4a06      	ldr	r2, [pc, #24]	; (1000671c <ph_remove_any_head+0xf8>)
10006704:	2168      	movs	r1, #104	; 0x68
10006706:	4806      	ldr	r0, [pc, #24]	; (10006720 <ph_remove_any_head+0xfc>)
10006708:	f000 f93a 	bl	10006980 <__assert_func>
1000670c:	1000a1a4 	.word	0x1000a1a4
10006710:	1000a268 	.word	0x1000a268
10006714:	1000a1ac 	.word	0x1000a1ac
10006718:	10009dcc 	.word	0x10009dcc
1000671c:	1000a290 	.word	0x1000a290
10006720:	10009de8 	.word	0x10009de8
10006724:	1000a1e4 	.word	0x1000a1e4
10006728:	1000a20c 	.word	0x1000a20c

1000672c <ph_remove_head>:
1000672c:	b570      	push	{r4, r5, r6, lr}
1000672e:	0004      	movs	r4, r0
10006730:	000a      	movs	r2, r1
10006732:	7b45      	ldrb	r5, [r0, #13]
10006734:	0029      	movs	r1, r5
10006736:	f7ff ff75 	bl	10006624 <ph_remove_any_head>
1000673a:	7360      	strb	r0, [r4, #13]
1000673c:	0028      	movs	r0, r5
1000673e:	bd70      	pop	{r4, r5, r6, pc}

10006740 <ph_remove_and_free_node>:
10006740:	b570      	push	{r4, r5, r6, lr}
10006742:	0004      	movs	r4, r0
10006744:	2900      	cmp	r1, #0
10006746:	d067      	beq.n	10006818 <ph_remove_and_free_node+0xd8>
10006748:	7b43      	ldrb	r3, [r0, #13]
1000674a:	428b      	cmp	r3, r1
1000674c:	d00e      	beq.n	1000676c <ph_remove_and_free_node+0x2c>
1000674e:	2900      	cmp	r1, #0
10006750:	d011      	beq.n	10006776 <ph_remove_and_free_node+0x36>
10006752:	7b03      	ldrb	r3, [r0, #12]
10006754:	4299      	cmp	r1, r3
10006756:	d80e      	bhi.n	10006776 <ph_remove_and_free_node+0x36>
10006758:	004b      	lsls	r3, r1, #1
1000675a:	185b      	adds	r3, r3, r1
1000675c:	3b03      	subs	r3, #3
1000675e:	6802      	ldr	r2, [r0, #0]
10006760:	18d0      	adds	r0, r2, r3
10006762:	7883      	ldrb	r3, [r0, #2]
10006764:	2b00      	cmp	r3, #0
10006766:	d10c      	bne.n	10006782 <ph_remove_and_free_node+0x42>
10006768:	2000      	movs	r0, #0
1000676a:	e056      	b.n	1000681a <ph_remove_and_free_node+0xda>
1000676c:	2101      	movs	r1, #1
1000676e:	f7ff ffdd 	bl	1000672c <ph_remove_head>
10006772:	2001      	movs	r0, #1
10006774:	e051      	b.n	1000681a <ph_remove_and_free_node+0xda>
10006776:	4b29      	ldr	r3, [pc, #164]	; (1000681c <ph_remove_and_free_node+0xdc>)
10006778:	4a29      	ldr	r2, [pc, #164]	; (10006820 <ph_remove_and_free_node+0xe0>)
1000677a:	2168      	movs	r1, #104	; 0x68
1000677c:	4829      	ldr	r0, [pc, #164]	; (10006824 <ph_remove_and_free_node+0xe4>)
1000677e:	f000 f8ff 	bl	10006980 <__assert_func>
10006782:	2b00      	cmp	r3, #0
10006784:	d020      	beq.n	100067c8 <ph_remove_and_free_node+0x88>
10006786:	7b22      	ldrb	r2, [r4, #12]
10006788:	4293      	cmp	r3, r2
1000678a:	d81d      	bhi.n	100067c8 <ph_remove_and_free_node+0x88>
1000678c:	005a      	lsls	r2, r3, #1
1000678e:	18d3      	adds	r3, r2, r3
10006790:	3b03      	subs	r3, #3
10006792:	6822      	ldr	r2, [r4, #0]
10006794:	18d2      	adds	r2, r2, r3
10006796:	6825      	ldr	r5, [r4, #0]
10006798:	5ceb      	ldrb	r3, [r5, r3]
1000679a:	428b      	cmp	r3, r1
1000679c:	d01a      	beq.n	100067d4 <ph_remove_and_free_node+0x94>
1000679e:	2b00      	cmp	r3, #0
100067a0:	d01b      	beq.n	100067da <ph_remove_and_free_node+0x9a>
100067a2:	7b22      	ldrb	r2, [r4, #12]
100067a4:	4293      	cmp	r3, r2
100067a6:	d818      	bhi.n	100067da <ph_remove_and_free_node+0x9a>
100067a8:	005a      	lsls	r2, r3, #1
100067aa:	18d3      	adds	r3, r2, r3
100067ac:	3b03      	subs	r3, #3
100067ae:	6822      	ldr	r2, [r4, #0]
100067b0:	18d2      	adds	r2, r2, r3
100067b2:	7853      	ldrb	r3, [r2, #1]
100067b4:	428b      	cmp	r3, r1
100067b6:	d016      	beq.n	100067e6 <ph_remove_and_free_node+0xa6>
100067b8:	2b00      	cmp	r3, #0
100067ba:	d1f0      	bne.n	1000679e <ph_remove_and_free_node+0x5e>
100067bc:	4b1a      	ldr	r3, [pc, #104]	; (10006828 <ph_remove_and_free_node+0xe8>)
100067be:	4a1b      	ldr	r2, [pc, #108]	; (1000682c <ph_remove_and_free_node+0xec>)
100067c0:	2167      	movs	r1, #103	; 0x67
100067c2:	481b      	ldr	r0, [pc, #108]	; (10006830 <ph_remove_and_free_node+0xf0>)
100067c4:	f000 f8dc 	bl	10006980 <__assert_func>
100067c8:	4b14      	ldr	r3, [pc, #80]	; (1000681c <ph_remove_and_free_node+0xdc>)
100067ca:	4a15      	ldr	r2, [pc, #84]	; (10006820 <ph_remove_and_free_node+0xe0>)
100067cc:	2168      	movs	r1, #104	; 0x68
100067ce:	4815      	ldr	r0, [pc, #84]	; (10006824 <ph_remove_and_free_node+0xe4>)
100067d0:	f000 f8d6 	bl	10006980 <__assert_func>
100067d4:	7843      	ldrb	r3, [r0, #1]
100067d6:	7013      	strb	r3, [r2, #0]
100067d8:	e007      	b.n	100067ea <ph_remove_and_free_node+0xaa>
100067da:	4b10      	ldr	r3, [pc, #64]	; (1000681c <ph_remove_and_free_node+0xdc>)
100067dc:	4a10      	ldr	r2, [pc, #64]	; (10006820 <ph_remove_and_free_node+0xe0>)
100067de:	2168      	movs	r1, #104	; 0x68
100067e0:	4810      	ldr	r0, [pc, #64]	; (10006824 <ph_remove_and_free_node+0xe4>)
100067e2:	f000 f8cd 	bl	10006980 <__assert_func>
100067e6:	7843      	ldrb	r3, [r0, #1]
100067e8:	7053      	strb	r3, [r2, #1]
100067ea:	2300      	movs	r3, #0
100067ec:	7083      	strb	r3, [r0, #2]
100067ee:	7043      	strb	r3, [r0, #1]
100067f0:	2201      	movs	r2, #1
100067f2:	0020      	movs	r0, r4
100067f4:	f7ff ff16 	bl	10006624 <ph_remove_any_head>
100067f8:	0002      	movs	r2, r0
100067fa:	7b61      	ldrb	r1, [r4, #13]
100067fc:	4281      	cmp	r1, r0
100067fe:	d005      	beq.n	1000680c <ph_remove_and_free_node+0xcc>
10006800:	0020      	movs	r0, r4
10006802:	f7ff fe5b 	bl	100064bc <ph_merge_nodes>
10006806:	7360      	strb	r0, [r4, #13]
10006808:	2001      	movs	r0, #1
1000680a:	e006      	b.n	1000681a <ph_remove_and_free_node+0xda>
1000680c:	4b09      	ldr	r3, [pc, #36]	; (10006834 <ph_remove_and_free_node+0xf4>)
1000680e:	4a07      	ldr	r2, [pc, #28]	; (1000682c <ph_remove_and_free_node+0xec>)
10006810:	216d      	movs	r1, #109	; 0x6d
10006812:	4807      	ldr	r0, [pc, #28]	; (10006830 <ph_remove_and_free_node+0xf0>)
10006814:	f000 f8b4 	bl	10006980 <__assert_func>
10006818:	2000      	movs	r0, #0
1000681a:	bd70      	pop	{r4, r5, r6, pc}
1000681c:	10009dcc 	.word	0x10009dcc
10006820:	1000a290 	.word	0x1000a290
10006824:	10009de8 	.word	0x10009de8
10006828:	10009cc4 	.word	0x10009cc4
1000682c:	1000a250 	.word	0x1000a250
10006830:	1000a1ac 	.word	0x1000a1ac
10006834:	1000a230 	.word	0x1000a230

10006838 <mutex_init>:
10006838:	b510      	push	{r4, lr}
1000683a:	0004      	movs	r4, r0
1000683c:	f7fe fca8 	bl	10005190 <next_striped_spin_lock_num>
10006840:	0001      	movs	r1, r0
10006842:	0020      	movs	r0, r4
10006844:	f7fe feca 	bl	100055dc <lock_init>
10006848:	23ff      	movs	r3, #255	; 0xff
1000684a:	7123      	strb	r3, [r4, #4]
1000684c:	f3bf 8f5f 	dmb	sy
10006850:	bd10      	pop	{r4, pc}

10006852 <recursive_mutex_init>:
10006852:	b510      	push	{r4, lr}
10006854:	0004      	movs	r4, r0
10006856:	f7fe fc9b 	bl	10005190 <next_striped_spin_lock_num>
1000685a:	0001      	movs	r1, r0
1000685c:	0020      	movs	r0, r4
1000685e:	f7fe febd 	bl	100055dc <lock_init>
10006862:	23ff      	movs	r3, #255	; 0xff
10006864:	7123      	strb	r3, [r4, #4]
10006866:	2300      	movs	r3, #0
10006868:	7163      	strb	r3, [r4, #5]
1000686a:	f3bf 8f5f 	dmb	sy
1000686e:	bd10      	pop	{r4, pc}

10006870 <uart_set_baudrate>:
10006870:	b570      	push	{r4, r5, r6, lr}
10006872:	0004      	movs	r4, r0
10006874:	000d      	movs	r5, r1
10006876:	2006      	movs	r0, #6
10006878:	f000 fa36 	bl	10006ce8 <clock_get_hz>
1000687c:	00c0      	lsls	r0, r0, #3
1000687e:	0029      	movs	r1, r5
10006880:	f001 fc08 	bl	10008094 <__wrap___aeabi_uidiv>
10006884:	09c6      	lsrs	r6, r0, #7
10006886:	d008      	beq.n	1000689a <uart_set_baudrate+0x2a>
10006888:	4b0e      	ldr	r3, [pc, #56]	; (100068c4 <uart_set_baudrate+0x54>)
1000688a:	429e      	cmp	r6, r3
1000688c:	d817      	bhi.n	100068be <uart_set_baudrate+0x4e>
1000688e:	237f      	movs	r3, #127	; 0x7f
10006890:	4018      	ands	r0, r3
10006892:	3001      	adds	r0, #1
10006894:	0035      	movs	r5, r6
10006896:	0846      	lsrs	r6, r0, #1
10006898:	e000      	b.n	1000689c <uart_set_baudrate+0x2c>
1000689a:	2501      	movs	r5, #1
1000689c:	6265      	str	r5, [r4, #36]	; 0x24
1000689e:	62a6      	str	r6, [r4, #40]	; 0x28
100068a0:	342c      	adds	r4, #44	; 0x2c
100068a2:	2080      	movs	r0, #128	; 0x80
100068a4:	0180      	lsls	r0, r0, #6
100068a6:	4304      	orrs	r4, r0
100068a8:	2300      	movs	r3, #0
100068aa:	6023      	str	r3, [r4, #0]
100068ac:	2006      	movs	r0, #6
100068ae:	f000 fa1b 	bl	10006ce8 <clock_get_hz>
100068b2:	0080      	lsls	r0, r0, #2
100068b4:	01a9      	lsls	r1, r5, #6
100068b6:	1989      	adds	r1, r1, r6
100068b8:	f001 fbec 	bl	10008094 <__wrap___aeabi_uidiv>
100068bc:	bd70      	pop	{r4, r5, r6, pc}
100068be:	2600      	movs	r6, #0
100068c0:	4d01      	ldr	r5, [pc, #4]	; (100068c8 <uart_set_baudrate+0x58>)
100068c2:	e7eb      	b.n	1000689c <uart_set_baudrate+0x2c>
100068c4:	0000fffe 	.word	0x0000fffe
100068c8:	0000ffff 	.word	0x0000ffff

100068cc <uart_set_translate_crlf>:
100068cc:	2900      	cmp	r1, #0
100068ce:	d009      	beq.n	100068e4 <uart_set_translate_crlf+0x18>
100068d0:	220a      	movs	r2, #10
100068d2:	4b06      	ldr	r3, [pc, #24]	; (100068ec <uart_set_translate_crlf+0x20>)
100068d4:	469c      	mov	ip, r3
100068d6:	4460      	add	r0, ip
100068d8:	4243      	negs	r3, r0
100068da:	4158      	adcs	r0, r3
100068dc:	0040      	lsls	r0, r0, #1
100068de:	4b04      	ldr	r3, [pc, #16]	; (100068f0 <uart_set_translate_crlf+0x24>)
100068e0:	52c2      	strh	r2, [r0, r3]
100068e2:	4770      	bx	lr
100068e4:	2280      	movs	r2, #128	; 0x80
100068e6:	0052      	lsls	r2, r2, #1
100068e8:	e7f3      	b.n	100068d2 <uart_set_translate_crlf+0x6>
100068ea:	46c0      	nop			; (mov r8, r8)
100068ec:	bffc8000 	.word	0xbffc8000
100068f0:	20002b20 	.word	0x20002b20

100068f4 <uart_init>:
100068f4:	b570      	push	{r4, r5, r6, lr}
100068f6:	0005      	movs	r5, r0
100068f8:	000c      	movs	r4, r1
100068fa:	2006      	movs	r0, #6
100068fc:	f000 f9f4 	bl	10006ce8 <clock_get_hz>
10006900:	2800      	cmp	r0, #0
10006902:	d029      	beq.n	10006958 <uart_init+0x64>
10006904:	4b16      	ldr	r3, [pc, #88]	; (10006960 <uart_init+0x6c>)
10006906:	429d      	cmp	r5, r3
10006908:	d027      	beq.n	1000695a <uart_init+0x66>
1000690a:	2280      	movs	r2, #128	; 0x80
1000690c:	03d2      	lsls	r2, r2, #15
1000690e:	4b15      	ldr	r3, [pc, #84]	; (10006964 <uart_init+0x70>)
10006910:	601a      	str	r2, [r3, #0]
10006912:	4b15      	ldr	r3, [pc, #84]	; (10006968 <uart_init+0x74>)
10006914:	601a      	str	r2, [r3, #0]
10006916:	4b15      	ldr	r3, [pc, #84]	; (1000696c <uart_init+0x78>)
10006918:	689b      	ldr	r3, [r3, #8]
1000691a:	0011      	movs	r1, r2
1000691c:	4399      	bics	r1, r3
1000691e:	d1fa      	bne.n	10006916 <uart_init+0x22>
10006920:	2100      	movs	r1, #0
10006922:	0028      	movs	r0, r5
10006924:	f7ff ffd2 	bl	100068cc <uart_set_translate_crlf>
10006928:	0021      	movs	r1, r4
1000692a:	0028      	movs	r0, r5
1000692c:	f7ff ffa0 	bl	10006870 <uart_set_baudrate>
10006930:	002c      	movs	r4, r5
10006932:	342c      	adds	r4, #44	; 0x2c
10006934:	6ae9      	ldr	r1, [r5, #44]	; 0x2c
10006936:	2260      	movs	r2, #96	; 0x60
10006938:	404a      	eors	r2, r1
1000693a:	216e      	movs	r1, #110	; 0x6e
1000693c:	4011      	ands	r1, r2
1000693e:	2280      	movs	r2, #128	; 0x80
10006940:	0152      	lsls	r2, r2, #5
10006942:	4322      	orrs	r2, r4
10006944:	6011      	str	r1, [r2, #0]
10006946:	4b0a      	ldr	r3, [pc, #40]	; (10006970 <uart_init+0x7c>)
10006948:	632b      	str	r3, [r5, #48]	; 0x30
1000694a:	2380      	movs	r3, #128	; 0x80
1000694c:	019b      	lsls	r3, r3, #6
1000694e:	4323      	orrs	r3, r4
10006950:	2210      	movs	r2, #16
10006952:	601a      	str	r2, [r3, #0]
10006954:	2303      	movs	r3, #3
10006956:	64ab      	str	r3, [r5, #72]	; 0x48
10006958:	bd70      	pop	{r4, r5, r6, pc}
1000695a:	2280      	movs	r2, #128	; 0x80
1000695c:	0412      	lsls	r2, r2, #16
1000695e:	e7d6      	b.n	1000690e <uart_init+0x1a>
10006960:	40038000 	.word	0x40038000
10006964:	4000e000 	.word	0x4000e000
10006968:	4000f000 	.word	0x4000f000
1000696c:	4000c000 	.word	0x4000c000
10006970:	00000301 	.word	0x00000301

10006974 <_exit>:
10006974:	be00      	bkpt	0x0000
10006976:	e7fd      	b.n	10006974 <_exit>

10006978 <exit>:
10006978:	b510      	push	{r4, lr}
1000697a:	f7ff fffb 	bl	10006974 <_exit>
	...

10006980 <__assert_func>:
10006980:	b510      	push	{r4, lr}
10006982:	b082      	sub	sp, #8
10006984:	000c      	movs	r4, r1
10006986:	0019      	movs	r1, r3
10006988:	2a00      	cmp	r2, #0
1000698a:	d00c      	beq.n	100069a6 <__assert_func+0x26>
1000698c:	4b08      	ldr	r3, [pc, #32]	; (100069b0 <__assert_func+0x30>)
1000698e:	2a00      	cmp	r2, #0
10006990:	d00b      	beq.n	100069aa <__assert_func+0x2a>
10006992:	9201      	str	r2, [sp, #4]
10006994:	9300      	str	r3, [sp, #0]
10006996:	0023      	movs	r3, r4
10006998:	0002      	movs	r2, r0
1000699a:	4806      	ldr	r0, [pc, #24]	; (100069b4 <__assert_func+0x34>)
1000699c:	f002 f92e 	bl	10008bfc <__wrap_printf>
100069a0:	2001      	movs	r0, #1
100069a2:	f7ff ffe7 	bl	10006974 <_exit>
100069a6:	4b04      	ldr	r3, [pc, #16]	; (100069b8 <__assert_func+0x38>)
100069a8:	e7f1      	b.n	1000698e <__assert_func+0xe>
100069aa:	4a03      	ldr	r2, [pc, #12]	; (100069b8 <__assert_func+0x38>)
100069ac:	e7f1      	b.n	10006992 <__assert_func+0x12>
100069ae:	46c0      	nop			; (mov r8, r8)
100069b0:	1000a334 	.word	0x1000a334
100069b4:	1000a344 	.word	0x1000a344
100069b8:	1000973c 	.word	0x1000973c

100069bc <runtime_init>:
100069bc:	b570      	push	{r4, r5, r6, lr}
100069be:	4b2b      	ldr	r3, [pc, #172]	; (10006a6c <runtime_init+0xb0>)
100069c0:	4a2b      	ldr	r2, [pc, #172]	; (10006a70 <runtime_init+0xb4>)
100069c2:	601a      	str	r2, [r3, #0]
100069c4:	4b2b      	ldr	r3, [pc, #172]	; (10006a74 <runtime_init+0xb8>)
100069c6:	4a2c      	ldr	r2, [pc, #176]	; (10006a78 <runtime_init+0xbc>)
100069c8:	601a      	str	r2, [r3, #0]
100069ca:	4b2c      	ldr	r3, [pc, #176]	; (10006a7c <runtime_init+0xc0>)
100069cc:	689a      	ldr	r2, [r3, #8]
100069ce:	4b2a      	ldr	r3, [pc, #168]	; (10006a78 <runtime_init+0xbc>)
100069d0:	4393      	bics	r3, r2
100069d2:	d1fa      	bne.n	100069ca <runtime_init+0xe>
100069d4:	4c2a      	ldr	r4, [pc, #168]	; (10006a80 <runtime_init+0xc4>)
100069d6:	e001      	b.n	100069dc <runtime_init+0x20>
100069d8:	cc08      	ldmia	r4!, {r3}
100069da:	4798      	blx	r3
100069dc:	4b29      	ldr	r3, [pc, #164]	; (10006a84 <runtime_init+0xc8>)
100069de:	429c      	cmp	r4, r3
100069e0:	d3fa      	bcc.n	100069d8 <runtime_init+0x1c>
100069e2:	f000 f901 	bl	10006be8 <clocks_init>
100069e6:	4b23      	ldr	r3, [pc, #140]	; (10006a74 <runtime_init+0xb8>)
100069e8:	4a27      	ldr	r2, [pc, #156]	; (10006a88 <runtime_init+0xcc>)
100069ea:	601a      	str	r2, [r3, #0]
100069ec:	4b23      	ldr	r3, [pc, #140]	; (10006a7c <runtime_init+0xc0>)
100069ee:	689b      	ldr	r3, [r3, #8]
100069f0:	43db      	mvns	r3, r3
100069f2:	01db      	lsls	r3, r3, #7
100069f4:	d1fa      	bne.n	100069ec <runtime_init+0x30>
100069f6:	4b25      	ldr	r3, [pc, #148]	; (10006a8c <runtime_init+0xd0>)
100069f8:	2240      	movs	r2, #64	; 0x40
100069fa:	679a      	str	r2, [r3, #120]	; 0x78
100069fc:	675a      	str	r2, [r3, #116]	; 0x74
100069fe:	671a      	str	r2, [r3, #112]	; 0x70
10006a00:	66da      	str	r2, [r3, #108]	; 0x6c
10006a02:	4c23      	ldr	r4, [pc, #140]	; (10006a90 <runtime_init+0xd4>)
10006a04:	e009      	b.n	10006a1a <runtime_init+0x5e>
10006a06:	4b23      	ldr	r3, [pc, #140]	; (10006a94 <runtime_init+0xd8>)
10006a08:	4a23      	ldr	r2, [pc, #140]	; (10006a98 <runtime_init+0xdc>)
10006a0a:	2183      	movs	r1, #131	; 0x83
10006a0c:	4823      	ldr	r0, [pc, #140]	; (10006a9c <runtime_init+0xe0>)
10006a0e:	f7ff ffb7 	bl	10006980 <__assert_func>
10006a12:	0020      	movs	r0, r4
10006a14:	f7ff ff10 	bl	10006838 <mutex_init>
10006a18:	3408      	adds	r4, #8
10006a1a:	4b21      	ldr	r3, [pc, #132]	; (10006aa0 <runtime_init+0xe4>)
10006a1c:	429c      	cmp	r4, r3
10006a1e:	d209      	bcs.n	10006a34 <runtime_init+0x78>
10006a20:	6823      	ldr	r3, [r4, #0]
10006a22:	2b00      	cmp	r3, #0
10006a24:	d0f5      	beq.n	10006a12 <runtime_init+0x56>
10006a26:	2b01      	cmp	r3, #1
10006a28:	d1ed      	bne.n	10006a06 <runtime_init+0x4a>
10006a2a:	0020      	movs	r0, r4
10006a2c:	f7ff ff11 	bl	10006852 <recursive_mutex_init>
10006a30:	3408      	adds	r4, #8
10006a32:	e7f2      	b.n	10006a1a <runtime_init+0x5e>
10006a34:	4c1b      	ldr	r4, [pc, #108]	; (10006aa4 <runtime_init+0xe8>)
10006a36:	68a1      	ldr	r1, [r4, #8]
10006a38:	4d1b      	ldr	r5, [pc, #108]	; (10006aa8 <runtime_init+0xec>)
10006a3a:	22c0      	movs	r2, #192	; 0xc0
10006a3c:	0028      	movs	r0, r5
10006a3e:	f001 ff99 	bl	10008974 <__wrap___aeabi_memcpy>
10006a42:	60a5      	str	r5, [r4, #8]
10006a44:	f7f9 fc0f 	bl	10000266 <__get_current_exception>
10006a48:	2800      	cmp	r0, #0
10006a4a:	d000      	beq.n	10006a4e <runtime_init+0x92>
10006a4c:	be00      	bkpt	0x0000
10006a4e:	f7fe fb8f 	bl	10005170 <spin_locks_reset>
10006a52:	f7fe fda5 	bl	100055a0 <irq_init_priorities>
10006a56:	f7ff f91f 	bl	10005c98 <alarm_pool_init_default>
10006a5a:	4c14      	ldr	r4, [pc, #80]	; (10006aac <runtime_init+0xf0>)
10006a5c:	e001      	b.n	10006a62 <runtime_init+0xa6>
10006a5e:	cc08      	ldmia	r4!, {r3}
10006a60:	4798      	blx	r3
10006a62:	4b13      	ldr	r3, [pc, #76]	; (10006ab0 <runtime_init+0xf4>)
10006a64:	429c      	cmp	r4, r3
10006a66:	d3fa      	bcc.n	10006a5e <runtime_init+0xa2>
10006a68:	bd70      	pop	{r4, r5, r6, pc}
10006a6a:	46c0      	nop			; (mov r8, r8)
10006a6c:	4000e000 	.word	0x4000e000
10006a70:	fefbcdbf 	.word	0xfefbcdbf
10006a74:	4000f000 	.word	0x4000f000
10006a78:	003c7ffe 	.word	0x003c7ffe
10006a7c:	4000c000 	.word	0x4000c000
10006a80:	20000ee8 	.word	0x20000ee8
10006a84:	20000ef8 	.word	0x20000ef8
10006a88:	01ffffff 	.word	0x01ffffff
10006a8c:	4001f000 	.word	0x4001f000
10006a90:	20000ee0 	.word	0x20000ee0
10006a94:	1000a374 	.word	0x1000a374
10006a98:	1000a3e8 	.word	0x1000a3e8
10006a9c:	1000a394 	.word	0x1000a394
10006aa0:	20000ee8 	.word	0x20000ee8
10006aa4:	e000ed00 	.word	0xe000ed00
10006aa8:	20000000 	.word	0x20000000
10006aac:	20000ef8 	.word	0x20000ef8
10006ab0:	20000f00 	.word	0x20000f00

10006ab4 <panic>:
10006ab4:	b40f      	push	{r0, r1, r2, r3}
10006ab6:	b500      	push	{lr}
10006ab8:	b083      	sub	sp, #12
10006aba:	4808      	ldr	r0, [pc, #32]	; (10006adc <panic+0x28>)
10006abc:	f002 f86c 	bl	10008b98 <__wrap_puts>
10006ac0:	9b04      	ldr	r3, [sp, #16]
10006ac2:	2b00      	cmp	r3, #0
10006ac4:	d007      	beq.n	10006ad6 <panic+0x22>
10006ac6:	a905      	add	r1, sp, #20
10006ac8:	9101      	str	r1, [sp, #4]
10006aca:	0018      	movs	r0, r3
10006acc:	f002 f874 	bl	10008bb8 <__wrap_vprintf>
10006ad0:	4803      	ldr	r0, [pc, #12]	; (10006ae0 <panic+0x2c>)
10006ad2:	f002 f861 	bl	10008b98 <__wrap_puts>
10006ad6:	2001      	movs	r0, #1
10006ad8:	f7ff ff4c 	bl	10006974 <_exit>
10006adc:	1000a3d4 	.word	0x1000a3d4
10006ae0:	1000a3e4 	.word	0x1000a3e4

10006ae4 <clock_configure>:
10006ae4:	b5f8      	push	{r3, r4, r5, r6, r7, lr}
10006ae6:	46de      	mov	lr, fp
10006ae8:	4657      	mov	r7, sl
10006aea:	464e      	mov	r6, r9
10006aec:	4645      	mov	r5, r8
10006aee:	b5e0      	push	{r5, r6, r7, lr}
10006af0:	0005      	movs	r5, r0
10006af2:	000f      	movs	r7, r1
10006af4:	4692      	mov	sl, r2
10006af6:	9a0a      	ldr	r2, [sp, #40]	; 0x28
10006af8:	4293      	cmp	r3, r2
10006afa:	d34e      	bcc.n	10006b9a <clock_configure+0xb6>
10006afc:	0e1a      	lsrs	r2, r3, #24
10006afe:	4691      	mov	r9, r2
10006b00:	021e      	lsls	r6, r3, #8
10006b02:	9a0a      	ldr	r2, [sp, #40]	; 0x28
10006b04:	2300      	movs	r3, #0
10006b06:	0030      	movs	r0, r6
10006b08:	4649      	mov	r1, r9
10006b0a:	f001 fb05 	bl	10008118 <__wrap___aeabi_uldivmod>
10006b0e:	4680      	mov	r8, r0
10006b10:	006c      	lsls	r4, r5, #1
10006b12:	1964      	adds	r4, r4, r5
10006b14:	00a4      	lsls	r4, r4, #2
10006b16:	4b2f      	ldr	r3, [pc, #188]	; (10006bd4 <clock_configure+0xf0>)
10006b18:	469c      	mov	ip, r3
10006b1a:	4464      	add	r4, ip
10006b1c:	6863      	ldr	r3, [r4, #4]
10006b1e:	4283      	cmp	r3, r0
10006b20:	d200      	bcs.n	10006b24 <clock_configure+0x40>
10006b22:	6060      	str	r0, [r4, #4]
10006b24:	1f2b      	subs	r3, r5, #4
10006b26:	b2db      	uxtb	r3, r3
10006b28:	469b      	mov	fp, r3
10006b2a:	2b01      	cmp	r3, #1
10006b2c:	d93b      	bls.n	10006ba6 <clock_configure+0xc2>
10006b2e:	23c0      	movs	r3, #192	; 0xc0
10006b30:	019b      	lsls	r3, r3, #6
10006b32:	4323      	orrs	r3, r4
10006b34:	2280      	movs	r2, #128	; 0x80
10006b36:	0112      	lsls	r2, r2, #4
10006b38:	601a      	str	r2, [r3, #0]
10006b3a:	00ab      	lsls	r3, r5, #2
10006b3c:	4a26      	ldr	r2, [pc, #152]	; (10006bd8 <clock_configure+0xf4>)
10006b3e:	5899      	ldr	r1, [r3, r2]
10006b40:	2900      	cmp	r1, #0
10006b42:	d005      	beq.n	10006b50 <clock_configure+0x6c>
10006b44:	6950      	ldr	r0, [r2, #20]
10006b46:	f001 faa5 	bl	10008094 <__wrap___aeabi_uidiv>
10006b4a:	3001      	adds	r0, #1
10006b4c:	3801      	subs	r0, #1
10006b4e:	d1fd      	bne.n	10006b4c <clock_configure+0x68>
10006b50:	4653      	mov	r3, sl
10006b52:	015a      	lsls	r2, r3, #5
10006b54:	6823      	ldr	r3, [r4, #0]
10006b56:	405a      	eors	r2, r3
10006b58:	23e0      	movs	r3, #224	; 0xe0
10006b5a:	401a      	ands	r2, r3
10006b5c:	2380      	movs	r3, #128	; 0x80
10006b5e:	015b      	lsls	r3, r3, #5
10006b60:	4323      	orrs	r3, r4
10006b62:	601a      	str	r2, [r3, #0]
10006b64:	465a      	mov	r2, fp
10006b66:	2a01      	cmp	r2, #1
10006b68:	d928      	bls.n	10006bbc <clock_configure+0xd8>
10006b6a:	2380      	movs	r3, #128	; 0x80
10006b6c:	019b      	lsls	r3, r3, #6
10006b6e:	4323      	orrs	r3, r4
10006b70:	2280      	movs	r2, #128	; 0x80
10006b72:	0112      	lsls	r2, r2, #4
10006b74:	601a      	str	r2, [r3, #0]
10006b76:	4643      	mov	r3, r8
10006b78:	6063      	str	r3, [r4, #4]
10006b7a:	4642      	mov	r2, r8
10006b7c:	2300      	movs	r3, #0
10006b7e:	0030      	movs	r0, r6
10006b80:	4649      	mov	r1, r9
10006b82:	f001 fac9 	bl	10008118 <__wrap___aeabi_uldivmod>
10006b86:	00ad      	lsls	r5, r5, #2
10006b88:	4b13      	ldr	r3, [pc, #76]	; (10006bd8 <clock_configure+0xf4>)
10006b8a:	5158      	str	r0, [r3, r5]
10006b8c:	2001      	movs	r0, #1
10006b8e:	bcf0      	pop	{r4, r5, r6, r7}
10006b90:	46bb      	mov	fp, r7
10006b92:	46b2      	mov	sl, r6
10006b94:	46a9      	mov	r9, r5
10006b96:	46a0      	mov	r8, r4
10006b98:	bdf8      	pop	{r3, r4, r5, r6, r7, pc}
10006b9a:	4b10      	ldr	r3, [pc, #64]	; (10006bdc <clock_configure+0xf8>)
10006b9c:	4a10      	ldr	r2, [pc, #64]	; (10006be0 <clock_configure+0xfc>)
10006b9e:	212d      	movs	r1, #45	; 0x2d
10006ba0:	4810      	ldr	r0, [pc, #64]	; (10006be4 <clock_configure+0x100>)
10006ba2:	f7ff feed 	bl	10006980 <__assert_func>
10006ba6:	2f01      	cmp	r7, #1
10006ba8:	d1c1      	bne.n	10006b2e <clock_configure+0x4a>
10006baa:	23c0      	movs	r3, #192	; 0xc0
10006bac:	019b      	lsls	r3, r3, #6
10006bae:	4323      	orrs	r3, r4
10006bb0:	2203      	movs	r2, #3
10006bb2:	601a      	str	r2, [r3, #0]
10006bb4:	68a3      	ldr	r3, [r4, #8]
10006bb6:	07db      	lsls	r3, r3, #31
10006bb8:	d5fc      	bpl.n	10006bb4 <clock_configure+0xd0>
10006bba:	e7c9      	b.n	10006b50 <clock_configure+0x6c>
10006bbc:	6821      	ldr	r1, [r4, #0]
10006bbe:	4079      	eors	r1, r7
10006bc0:	2203      	movs	r2, #3
10006bc2:	400a      	ands	r2, r1
10006bc4:	601a      	str	r2, [r3, #0]
10006bc6:	68a2      	ldr	r2, [r4, #8]
10006bc8:	2301      	movs	r3, #1
10006bca:	40bb      	lsls	r3, r7
10006bcc:	4213      	tst	r3, r2
10006bce:	d0fa      	beq.n	10006bc6 <clock_configure+0xe2>
10006bd0:	e7cb      	b.n	10006b6a <clock_configure+0x86>
10006bd2:	46c0      	nop			; (mov r8, r8)
10006bd4:	40008000 	.word	0x40008000
10006bd8:	20002880 	.word	0x20002880
10006bdc:	1000a3f8 	.word	0x1000a3f8
10006be0:	1000a450 	.word	0x1000a450
10006be4:	1000a40c 	.word	0x1000a40c

10006be8 <clocks_init>:
10006be8:	b530      	push	{r4, r5, lr}
10006bea:	b083      	sub	sp, #12
10006bec:	200c      	movs	r0, #12
10006bee:	f000 f921 	bl	10006e34 <watchdog_start_tick>
10006bf2:	f7fe fab3 	bl	1000515c <running_on_fpga>
10006bf6:	2800      	cmp	r0, #0
10006bf8:	d00d      	beq.n	10006c16 <clocks_init+0x2e>
10006bfa:	2300      	movs	r3, #0
10006bfc:	e004      	b.n	10006c08 <clocks_init+0x20>
10006bfe:	0099      	lsls	r1, r3, #2
10006c00:	4a2d      	ldr	r2, [pc, #180]	; (10006cb8 <clocks_init+0xd0>)
10006c02:	482e      	ldr	r0, [pc, #184]	; (10006cbc <clocks_init+0xd4>)
10006c04:	5088      	str	r0, [r1, r2]
10006c06:	3301      	adds	r3, #1
10006c08:	2b09      	cmp	r3, #9
10006c0a:	d9f8      	bls.n	10006bfe <clocks_init+0x16>
10006c0c:	4b2a      	ldr	r3, [pc, #168]	; (10006cb8 <clocks_init+0xd0>)
10006c0e:	4a2c      	ldr	r2, [pc, #176]	; (10006cc0 <clocks_init+0xd8>)
10006c10:	625a      	str	r2, [r3, #36]	; 0x24
10006c12:	b003      	add	sp, #12
10006c14:	bd30      	pop	{r4, r5, pc}
10006c16:	4b2b      	ldr	r3, [pc, #172]	; (10006cc4 <clocks_init+0xdc>)
10006c18:	2200      	movs	r2, #0
10006c1a:	679a      	str	r2, [r3, #120]	; 0x78
10006c1c:	f000 f912 	bl	10006e44 <xosc_init>
10006c20:	4b29      	ldr	r3, [pc, #164]	; (10006cc8 <clocks_init+0xe0>)
10006c22:	2201      	movs	r2, #1
10006c24:	601a      	str	r2, [r3, #0]
10006c26:	4b27      	ldr	r3, [pc, #156]	; (10006cc4 <clocks_init+0xdc>)
10006c28:	6c5b      	ldr	r3, [r3, #68]	; 0x44
10006c2a:	2b01      	cmp	r3, #1
10006c2c:	d1fb      	bne.n	10006c26 <clocks_init+0x3e>
10006c2e:	4b27      	ldr	r3, [pc, #156]	; (10006ccc <clocks_init+0xe4>)
10006c30:	2203      	movs	r2, #3
10006c32:	601a      	str	r2, [r3, #0]
10006c34:	4b23      	ldr	r3, [pc, #140]	; (10006cc4 <clocks_init+0xdc>)
10006c36:	6b9b      	ldr	r3, [r3, #56]	; 0x38
10006c38:	2b01      	cmp	r3, #1
10006c3a:	d1fb      	bne.n	10006c34 <clocks_init+0x4c>
10006c3c:	3301      	adds	r3, #1
10006c3e:	9300      	str	r3, [sp, #0]
10006c40:	3304      	adds	r3, #4
10006c42:	4a23      	ldr	r2, [pc, #140]	; (10006cd0 <clocks_init+0xe8>)
10006c44:	2101      	movs	r1, #1
10006c46:	4823      	ldr	r0, [pc, #140]	; (10006cd4 <clocks_init+0xec>)
10006c48:	f000 f854 	bl	10006cf4 <pll_init>
10006c4c:	2305      	movs	r3, #5
10006c4e:	9300      	str	r3, [sp, #0]
10006c50:	4a21      	ldr	r2, [pc, #132]	; (10006cd8 <clocks_init+0xf0>)
10006c52:	2101      	movs	r1, #1
10006c54:	4821      	ldr	r0, [pc, #132]	; (10006cdc <clocks_init+0xf4>)
10006c56:	f000 f84d 	bl	10006cf4 <pll_init>
10006c5a:	4b21      	ldr	r3, [pc, #132]	; (10006ce0 <clocks_init+0xf8>)
10006c5c:	9300      	str	r3, [sp, #0]
10006c5e:	2200      	movs	r2, #0
10006c60:	2102      	movs	r1, #2
10006c62:	2004      	movs	r0, #4
10006c64:	f7ff ff3e 	bl	10006ae4 <clock_configure>
10006c68:	4d1e      	ldr	r5, [pc, #120]	; (10006ce4 <clocks_init+0xfc>)
10006c6a:	9500      	str	r5, [sp, #0]
10006c6c:	002b      	movs	r3, r5
10006c6e:	2200      	movs	r2, #0
10006c70:	2101      	movs	r1, #1
10006c72:	2005      	movs	r0, #5
10006c74:	f7ff ff36 	bl	10006ae4 <clock_configure>
10006c78:	4c10      	ldr	r4, [pc, #64]	; (10006cbc <clocks_init+0xd4>)
10006c7a:	9400      	str	r4, [sp, #0]
10006c7c:	0023      	movs	r3, r4
10006c7e:	2200      	movs	r2, #0
10006c80:	2100      	movs	r1, #0
10006c82:	2007      	movs	r0, #7
10006c84:	f7ff ff2e 	bl	10006ae4 <clock_configure>
10006c88:	9400      	str	r4, [sp, #0]
10006c8a:	0023      	movs	r3, r4
10006c8c:	2200      	movs	r2, #0
10006c8e:	2100      	movs	r1, #0
10006c90:	2008      	movs	r0, #8
10006c92:	f7ff ff27 	bl	10006ae4 <clock_configure>
10006c96:	4b0a      	ldr	r3, [pc, #40]	; (10006cc0 <clocks_init+0xd8>)
10006c98:	9300      	str	r3, [sp, #0]
10006c9a:	0023      	movs	r3, r4
10006c9c:	2200      	movs	r2, #0
10006c9e:	2100      	movs	r1, #0
10006ca0:	2009      	movs	r0, #9
10006ca2:	f7ff ff1f 	bl	10006ae4 <clock_configure>
10006ca6:	9500      	str	r5, [sp, #0]
10006ca8:	002b      	movs	r3, r5
10006caa:	2200      	movs	r2, #0
10006cac:	2100      	movs	r1, #0
10006cae:	2006      	movs	r0, #6
10006cb0:	f7ff ff18 	bl	10006ae4 <clock_configure>
10006cb4:	e7ad      	b.n	10006c12 <clocks_init+0x2a>
10006cb6:	46c0      	nop			; (mov r8, r8)
10006cb8:	20002880 	.word	0x20002880
10006cbc:	02dc6c00 	.word	0x02dc6c00
10006cc0:	0000b71b 	.word	0x0000b71b
10006cc4:	40008000 	.word	0x40008000
10006cc8:	4000b03c 	.word	0x4000b03c
10006ccc:	4000b030 	.word	0x4000b030
10006cd0:	59682f00 	.word	0x59682f00
10006cd4:	40028000 	.word	0x40028000
10006cd8:	47868c00 	.word	0x47868c00
10006cdc:	4002c000 	.word	0x4002c000
10006ce0:	00b71b00 	.word	0x00b71b00
10006ce4:	07735940 	.word	0x07735940

10006ce8 <clock_get_hz>:
10006ce8:	0080      	lsls	r0, r0, #2
10006cea:	4b01      	ldr	r3, [pc, #4]	; (10006cf0 <clock_get_hz+0x8>)
10006cec:	58c0      	ldr	r0, [r0, r3]
10006cee:	4770      	bx	lr
10006cf0:	20002880 	.word	0x20002880

10006cf4 <pll_init>:
10006cf4:	b5f0      	push	{r4, r5, r6, r7, lr}
10006cf6:	46c6      	mov	lr, r8
10006cf8:	b500      	push	{lr}
10006cfa:	0004      	movs	r4, r0
10006cfc:	000f      	movs	r7, r1
10006cfe:	4690      	mov	r8, r2
10006d00:	001d      	movs	r5, r3
10006d02:	200c      	movs	r0, #12
10006d04:	f001 f9c6 	bl	10008094 <__wrap___aeabi_uidiv>
10006d08:	0006      	movs	r6, r0
10006d0a:	4a3d      	ldr	r2, [pc, #244]	; (10006e00 <pll_init+0x10c>)
10006d0c:	4442      	add	r2, r8
10006d0e:	4b3d      	ldr	r3, [pc, #244]	; (10006e04 <pll_init+0x110>)
10006d10:	429a      	cmp	r2, r3
10006d12:	d843      	bhi.n	10006d9c <pll_init+0xa8>
10006d14:	0143      	lsls	r3, r0, #5
10006d16:	1a1b      	subs	r3, r3, r0
10006d18:	0199      	lsls	r1, r3, #6
10006d1a:	1ac9      	subs	r1, r1, r3
10006d1c:	00c9      	lsls	r1, r1, #3
10006d1e:	1809      	adds	r1, r1, r0
10006d20:	0189      	lsls	r1, r1, #6
10006d22:	4640      	mov	r0, r8
10006d24:	f001 f9b6 	bl	10008094 <__wrap___aeabi_uidiv>
10006d28:	0002      	movs	r2, r0
10006d2a:	3a10      	subs	r2, #16
10006d2c:	2398      	movs	r3, #152	; 0x98
10006d2e:	005b      	lsls	r3, r3, #1
10006d30:	429a      	cmp	r2, r3
10006d32:	d839      	bhi.n	10006da8 <pll_init+0xb4>
10006d34:	1e6b      	subs	r3, r5, #1
10006d36:	2b06      	cmp	r3, #6
10006d38:	d83c      	bhi.n	10006db4 <pll_init+0xc0>
10006d3a:	9b06      	ldr	r3, [sp, #24]
10006d3c:	3b01      	subs	r3, #1
10006d3e:	2b06      	cmp	r3, #6
10006d40:	d838      	bhi.n	10006db4 <pll_init+0xc0>
10006d42:	9b06      	ldr	r3, [sp, #24]
10006d44:	429d      	cmp	r5, r3
10006d46:	d33b      	bcc.n	10006dc0 <pll_init+0xcc>
10006d48:	4643      	mov	r3, r8
10006d4a:	091a      	lsrs	r2, r3, #4
10006d4c:	42b2      	cmp	r2, r6
10006d4e:	d33d      	bcc.n	10006dcc <pll_init+0xd8>
10006d50:	042d      	lsls	r5, r5, #16
10006d52:	9b06      	ldr	r3, [sp, #24]
10006d54:	031e      	lsls	r6, r3, #12
10006d56:	4335      	orrs	r5, r6
10006d58:	6823      	ldr	r3, [r4, #0]
10006d5a:	2b00      	cmp	r3, #0
10006d5c:	db3c      	blt.n	10006dd8 <pll_init+0xe4>
10006d5e:	4b2a      	ldr	r3, [pc, #168]	; (10006e08 <pll_init+0x114>)
10006d60:	429c      	cmp	r4, r3
10006d62:	d04a      	beq.n	10006dfa <pll_init+0x106>
10006d64:	2280      	movs	r2, #128	; 0x80
10006d66:	0152      	lsls	r2, r2, #5
10006d68:	4b28      	ldr	r3, [pc, #160]	; (10006e0c <pll_init+0x118>)
10006d6a:	601a      	str	r2, [r3, #0]
10006d6c:	4b28      	ldr	r3, [pc, #160]	; (10006e10 <pll_init+0x11c>)
10006d6e:	601a      	str	r2, [r3, #0]
10006d70:	4b28      	ldr	r3, [pc, #160]	; (10006e14 <pll_init+0x120>)
10006d72:	689b      	ldr	r3, [r3, #8]
10006d74:	0011      	movs	r1, r2
10006d76:	4399      	bics	r1, r3
10006d78:	d1fa      	bne.n	10006d70 <pll_init+0x7c>
10006d7a:	6027      	str	r7, [r4, #0]
10006d7c:	60a0      	str	r0, [r4, #8]
10006d7e:	1d23      	adds	r3, r4, #4
10006d80:	22c0      	movs	r2, #192	; 0xc0
10006d82:	0192      	lsls	r2, r2, #6
10006d84:	431a      	orrs	r2, r3
10006d86:	2321      	movs	r3, #33	; 0x21
10006d88:	6013      	str	r3, [r2, #0]
10006d8a:	6823      	ldr	r3, [r4, #0]
10006d8c:	2b00      	cmp	r3, #0
10006d8e:	dafc      	bge.n	10006d8a <pll_init+0x96>
10006d90:	60e5      	str	r5, [r4, #12]
10006d92:	2308      	movs	r3, #8
10006d94:	6013      	str	r3, [r2, #0]
10006d96:	bc80      	pop	{r7}
10006d98:	46b8      	mov	r8, r7
10006d9a:	bdf0      	pop	{r4, r5, r6, r7, pc}
10006d9c:	4b1e      	ldr	r3, [pc, #120]	; (10006e18 <pll_init+0x124>)
10006d9e:	4a1f      	ldr	r2, [pc, #124]	; (10006e1c <pll_init+0x128>)
10006da0:	2111      	movs	r1, #17
10006da2:	481f      	ldr	r0, [pc, #124]	; (10006e20 <pll_init+0x12c>)
10006da4:	f7ff fdec 	bl	10006980 <__assert_func>
10006da8:	4b1e      	ldr	r3, [pc, #120]	; (10006e24 <pll_init+0x130>)
10006daa:	4a1c      	ldr	r2, [pc, #112]	; (10006e1c <pll_init+0x128>)
10006dac:	2119      	movs	r1, #25
10006dae:	481c      	ldr	r0, [pc, #112]	; (10006e20 <pll_init+0x12c>)
10006db0:	f7ff fde6 	bl	10006980 <__assert_func>
10006db4:	4b1c      	ldr	r3, [pc, #112]	; (10006e28 <pll_init+0x134>)
10006db6:	4a19      	ldr	r2, [pc, #100]	; (10006e1c <pll_init+0x128>)
10006db8:	211c      	movs	r1, #28
10006dba:	4819      	ldr	r0, [pc, #100]	; (10006e20 <pll_init+0x12c>)
10006dbc:	f7ff fde0 	bl	10006980 <__assert_func>
10006dc0:	4b1a      	ldr	r3, [pc, #104]	; (10006e2c <pll_init+0x138>)
10006dc2:	4a16      	ldr	r2, [pc, #88]	; (10006e1c <pll_init+0x128>)
10006dc4:	2122      	movs	r1, #34	; 0x22
10006dc6:	4816      	ldr	r0, [pc, #88]	; (10006e20 <pll_init+0x12c>)
10006dc8:	f7ff fdda 	bl	10006980 <__assert_func>
10006dcc:	4b18      	ldr	r3, [pc, #96]	; (10006e30 <pll_init+0x13c>)
10006dce:	4a13      	ldr	r2, [pc, #76]	; (10006e1c <pll_init+0x128>)
10006dd0:	2125      	movs	r1, #37	; 0x25
10006dd2:	4813      	ldr	r0, [pc, #76]	; (10006e20 <pll_init+0x12c>)
10006dd4:	f7ff fdd4 	bl	10006980 <__assert_func>
10006dd8:	6822      	ldr	r2, [r4, #0]
10006dda:	233f      	movs	r3, #63	; 0x3f
10006ddc:	4013      	ands	r3, r2
10006dde:	42bb      	cmp	r3, r7
10006de0:	d1bd      	bne.n	10006d5e <pll_init+0x6a>
10006de2:	68a3      	ldr	r3, [r4, #8]
10006de4:	051b      	lsls	r3, r3, #20
10006de6:	0d1b      	lsrs	r3, r3, #20
10006de8:	4283      	cmp	r3, r0
10006dea:	d1b8      	bne.n	10006d5e <pll_init+0x6a>
10006dec:	68e3      	ldr	r3, [r4, #12]
10006dee:	22ee      	movs	r2, #238	; 0xee
10006df0:	02d2      	lsls	r2, r2, #11
10006df2:	4013      	ands	r3, r2
10006df4:	42ab      	cmp	r3, r5
10006df6:	d1b2      	bne.n	10006d5e <pll_init+0x6a>
10006df8:	e7cd      	b.n	10006d96 <pll_init+0xa2>
10006dfa:	2280      	movs	r2, #128	; 0x80
10006dfc:	0192      	lsls	r2, r2, #6
10006dfe:	e7b3      	b.n	10006d68 <pll_init+0x74>
10006e00:	d34be880 	.word	0xd34be880
10006e04:	32a9f880 	.word	0x32a9f880
10006e08:	4002c000 	.word	0x4002c000
10006e0c:	4000e000 	.word	0x4000e000
10006e10:	4000f000 	.word	0x4000f000
10006e14:	4000c000 	.word	0x4000c000
10006e18:	1000a460 	.word	0x1000a460
10006e1c:	1000a598 	.word	0x1000a598
10006e20:	1000a4c0 	.word	0x1000a4c0
10006e24:	1000a4fc 	.word	0x1000a4fc
10006e28:	1000a518 	.word	0x1000a518
10006e2c:	1000a564 	.word	0x1000a564
10006e30:	1000a57c 	.word	0x1000a57c

10006e34 <watchdog_start_tick>:
10006e34:	2380      	movs	r3, #128	; 0x80
10006e36:	009b      	lsls	r3, r3, #2
10006e38:	4303      	orrs	r3, r0
10006e3a:	4a01      	ldr	r2, [pc, #4]	; (10006e40 <watchdog_start_tick+0xc>)
10006e3c:	62d3      	str	r3, [r2, #44]	; 0x2c
10006e3e:	4770      	bx	lr
10006e40:	40058000 	.word	0x40058000

10006e44 <xosc_init>:
10006e44:	4b06      	ldr	r3, [pc, #24]	; (10006e60 <xosc_init+0x1c>)
10006e46:	22aa      	movs	r2, #170	; 0xaa
10006e48:	0112      	lsls	r2, r2, #4
10006e4a:	601a      	str	r2, [r3, #0]
10006e4c:	222f      	movs	r2, #47	; 0x2f
10006e4e:	60da      	str	r2, [r3, #12]
10006e50:	4b04      	ldr	r3, [pc, #16]	; (10006e64 <xosc_init+0x20>)
10006e52:	4a05      	ldr	r2, [pc, #20]	; (10006e68 <xosc_init+0x24>)
10006e54:	601a      	str	r2, [r3, #0]
10006e56:	4b02      	ldr	r3, [pc, #8]	; (10006e60 <xosc_init+0x1c>)
10006e58:	685b      	ldr	r3, [r3, #4]
10006e5a:	2b00      	cmp	r3, #0
10006e5c:	dafb      	bge.n	10006e56 <xosc_init+0x12>
10006e5e:	4770      	bx	lr
10006e60:	40024000 	.word	0x40024000
10006e64:	40026000 	.word	0x40026000
10006e68:	00fab000 	.word	0x00fab000

10006e6c <_out_buffer>:
10006e6c:	429a      	cmp	r2, r3
10006e6e:	d200      	bcs.n	10006e72 <_out_buffer+0x6>
10006e70:	5488      	strb	r0, [r1, r2]
10006e72:	4770      	bx	lr

10006e74 <_out_null>:
10006e74:	4770      	bx	lr

10006e76 <_out_fct>:
10006e76:	b510      	push	{r4, lr}
10006e78:	2800      	cmp	r0, #0
10006e7a:	d002      	beq.n	10006e82 <_out_fct+0xc>
10006e7c:	680b      	ldr	r3, [r1, #0]
10006e7e:	6849      	ldr	r1, [r1, #4]
10006e80:	4798      	blx	r3
10006e82:	bd10      	pop	{r4, pc}

10006e84 <_atoi>:
10006e84:	0001      	movs	r1, r0
10006e86:	2000      	movs	r0, #0
10006e88:	e007      	b.n	10006e9a <_atoi+0x16>
10006e8a:	0083      	lsls	r3, r0, #2
10006e8c:	181b      	adds	r3, r3, r0
10006e8e:	005b      	lsls	r3, r3, #1
10006e90:	1c50      	adds	r0, r2, #1
10006e92:	6008      	str	r0, [r1, #0]
10006e94:	7810      	ldrb	r0, [r2, #0]
10006e96:	18c0      	adds	r0, r0, r3
10006e98:	3830      	subs	r0, #48	; 0x30
10006e9a:	680a      	ldr	r2, [r1, #0]
10006e9c:	7813      	ldrb	r3, [r2, #0]
10006e9e:	3b30      	subs	r3, #48	; 0x30
10006ea0:	b2db      	uxtb	r3, r3
10006ea2:	2b09      	cmp	r3, #9
10006ea4:	d9f1      	bls.n	10006e8a <_atoi+0x6>
10006ea6:	4770      	bx	lr

10006ea8 <_out_rev>:
10006ea8:	b5f0      	push	{r4, r5, r6, r7, lr}
10006eaa:	46de      	mov	lr, fp
10006eac:	4657      	mov	r7, sl
10006eae:	464e      	mov	r6, r9
10006eb0:	4645      	mov	r5, r8
10006eb2:	b5e0      	push	{r5, r6, r7, lr}
10006eb4:	b083      	sub	sp, #12
10006eb6:	4693      	mov	fp, r2
10006eb8:	001f      	movs	r7, r3
10006eba:	9b0c      	ldr	r3, [sp, #48]	; 0x30
10006ebc:	469a      	mov	sl, r3
10006ebe:	9c0d      	ldr	r4, [sp, #52]	; 0x34
10006ec0:	9b0e      	ldr	r3, [sp, #56]	; 0x38
10006ec2:	4699      	mov	r9, r3
10006ec4:	9b0f      	ldr	r3, [sp, #60]	; 0x3c
10006ec6:	079b      	lsls	r3, r3, #30
10006ec8:	d003      	beq.n	10006ed2 <_out_rev+0x2a>
10006eca:	46b8      	mov	r8, r7
10006ecc:	000f      	movs	r7, r1
10006ece:	0006      	movs	r6, r0
10006ed0:	e022      	b.n	10006f18 <_out_rev+0x70>
10006ed2:	9201      	str	r2, [sp, #4]
10006ed4:	46a3      	mov	fp, r4
10006ed6:	4688      	mov	r8, r1
10006ed8:	464e      	mov	r6, r9
10006eda:	46b9      	mov	r9, r7
10006edc:	0007      	movs	r7, r0
10006ede:	42b4      	cmp	r4, r6
10006ee0:	d207      	bcs.n	10006ef2 <_out_rev+0x4a>
10006ee2:	1c55      	adds	r5, r2, #1
10006ee4:	464b      	mov	r3, r9
10006ee6:	4641      	mov	r1, r8
10006ee8:	2020      	movs	r0, #32
10006eea:	47b8      	blx	r7
10006eec:	3401      	adds	r4, #1
10006eee:	002a      	movs	r2, r5
10006ef0:	e7f5      	b.n	10006ede <_out_rev+0x36>
10006ef2:	003d      	movs	r5, r7
10006ef4:	464f      	mov	r7, r9
10006ef6:	465c      	mov	r4, fp
10006ef8:	9b01      	ldr	r3, [sp, #4]
10006efa:	469b      	mov	fp, r3
10006efc:	46b1      	mov	r9, r6
10006efe:	4646      	mov	r6, r8
10006f00:	46b8      	mov	r8, r7
10006f02:	0037      	movs	r7, r6
10006f04:	002e      	movs	r6, r5
10006f06:	e007      	b.n	10006f18 <_out_rev+0x70>
10006f08:	3c01      	subs	r4, #1
10006f0a:	1c55      	adds	r5, r2, #1
10006f0c:	4653      	mov	r3, sl
10006f0e:	5d18      	ldrb	r0, [r3, r4]
10006f10:	4643      	mov	r3, r8
10006f12:	0039      	movs	r1, r7
10006f14:	47b0      	blx	r6
10006f16:	002a      	movs	r2, r5
10006f18:	2c00      	cmp	r4, #0
10006f1a:	d1f5      	bne.n	10006f08 <_out_rev+0x60>
10006f1c:	0035      	movs	r5, r6
10006f1e:	003e      	movs	r6, r7
10006f20:	4647      	mov	r7, r8
10006f22:	9b0f      	ldr	r3, [sp, #60]	; 0x3c
10006f24:	079b      	lsls	r3, r3, #30
10006f26:	d407      	bmi.n	10006f38 <_out_rev+0x90>
10006f28:	0010      	movs	r0, r2
10006f2a:	b003      	add	sp, #12
10006f2c:	bcf0      	pop	{r4, r5, r6, r7}
10006f2e:	46bb      	mov	fp, r7
10006f30:	46b2      	mov	sl, r6
10006f32:	46a9      	mov	r9, r5
10006f34:	46a0      	mov	r8, r4
10006f36:	bdf0      	pop	{r4, r5, r6, r7, pc}
10006f38:	46b0      	mov	r8, r6
10006f3a:	464e      	mov	r6, r9
10006f3c:	46b9      	mov	r9, r7
10006f3e:	002f      	movs	r7, r5
10006f40:	465d      	mov	r5, fp
10006f42:	1b53      	subs	r3, r2, r5
10006f44:	42b3      	cmp	r3, r6
10006f46:	d2ef      	bcs.n	10006f28 <_out_rev+0x80>
10006f48:	1c54      	adds	r4, r2, #1
10006f4a:	464b      	mov	r3, r9
10006f4c:	4641      	mov	r1, r8
10006f4e:	2020      	movs	r0, #32
10006f50:	47b8      	blx	r7
10006f52:	0022      	movs	r2, r4
10006f54:	e7f5      	b.n	10006f42 <_out_rev+0x9a>

10006f56 <_ntoa_format>:
10006f56:	b5f0      	push	{r4, r5, r6, r7, lr}
10006f58:	46ce      	mov	lr, r9
10006f5a:	4647      	mov	r7, r8
10006f5c:	b580      	push	{r7, lr}
10006f5e:	b085      	sub	sp, #20
10006f60:	4694      	mov	ip, r2
10006f62:	4698      	mov	r8, r3
10006f64:	9d0c      	ldr	r5, [sp, #48]	; 0x30
10006f66:	9c0d      	ldr	r4, [sp, #52]	; 0x34
10006f68:	ab0e      	add	r3, sp, #56	; 0x38
10006f6a:	781b      	ldrb	r3, [r3, #0]
10006f6c:	4699      	mov	r9, r3
10006f6e:	9a10      	ldr	r2, [sp, #64]	; 0x40
10006f70:	9b11      	ldr	r3, [sp, #68]	; 0x44
10006f72:	9e12      	ldr	r6, [sp, #72]	; 0x48
10006f74:	07b7      	lsls	r7, r6, #30
10006f76:	d41c      	bmi.n	10006fb2 <_ntoa_format+0x5c>
10006f78:	2b00      	cmp	r3, #0
10006f7a:	d00c      	beq.n	10006f96 <_ntoa_format+0x40>
10006f7c:	07f7      	lsls	r7, r6, #31
10006f7e:	d50a      	bpl.n	10006f96 <_ntoa_format+0x40>
10006f80:	464f      	mov	r7, r9
10006f82:	2f00      	cmp	r7, #0
10006f84:	d102      	bne.n	10006f8c <_ntoa_format+0x36>
10006f86:	370c      	adds	r7, #12
10006f88:	4237      	tst	r7, r6
10006f8a:	d004      	beq.n	10006f96 <_ntoa_format+0x40>
10006f8c:	3b01      	subs	r3, #1
10006f8e:	e002      	b.n	10006f96 <_ntoa_format+0x40>
10006f90:	2730      	movs	r7, #48	; 0x30
10006f92:	552f      	strb	r7, [r5, r4]
10006f94:	3401      	adds	r4, #1
10006f96:	4294      	cmp	r4, r2
10006f98:	d201      	bcs.n	10006f9e <_ntoa_format+0x48>
10006f9a:	2c1f      	cmp	r4, #31
10006f9c:	d9f8      	bls.n	10006f90 <_ntoa_format+0x3a>
10006f9e:	07f7      	lsls	r7, r6, #31
10006fa0:	d507      	bpl.n	10006fb2 <_ntoa_format+0x5c>
10006fa2:	429c      	cmp	r4, r3
10006fa4:	d205      	bcs.n	10006fb2 <_ntoa_format+0x5c>
10006fa6:	2c1f      	cmp	r4, #31
10006fa8:	d803      	bhi.n	10006fb2 <_ntoa_format+0x5c>
10006faa:	2730      	movs	r7, #48	; 0x30
10006fac:	552f      	strb	r7, [r5, r4]
10006fae:	3401      	adds	r4, #1
10006fb0:	e7f5      	b.n	10006f9e <_ntoa_format+0x48>
10006fb2:	06f7      	lsls	r7, r6, #27
10006fb4:	d515      	bpl.n	10006fe2 <_ntoa_format+0x8c>
10006fb6:	0577      	lsls	r7, r6, #21
10006fb8:	d405      	bmi.n	10006fc6 <_ntoa_format+0x70>
10006fba:	2c00      	cmp	r4, #0
10006fbc:	d003      	beq.n	10006fc6 <_ntoa_format+0x70>
10006fbe:	4294      	cmp	r4, r2
10006fc0:	d024      	beq.n	1000700c <_ntoa_format+0xb6>
10006fc2:	429c      	cmp	r4, r3
10006fc4:	d022      	beq.n	1000700c <_ntoa_format+0xb6>
10006fc6:	9a0f      	ldr	r2, [sp, #60]	; 0x3c
10006fc8:	2a10      	cmp	r2, #16
10006fca:	d02b      	beq.n	10007024 <_ntoa_format+0xce>
10006fcc:	9a0f      	ldr	r2, [sp, #60]	; 0x3c
10006fce:	2a10      	cmp	r2, #16
10006fd0:	d030      	beq.n	10007034 <_ntoa_format+0xde>
10006fd2:	9a0f      	ldr	r2, [sp, #60]	; 0x3c
10006fd4:	2a02      	cmp	r2, #2
10006fd6:	d035      	beq.n	10007044 <_ntoa_format+0xee>
10006fd8:	2c1f      	cmp	r4, #31
10006fda:	d802      	bhi.n	10006fe2 <_ntoa_format+0x8c>
10006fdc:	2230      	movs	r2, #48	; 0x30
10006fde:	552a      	strb	r2, [r5, r4]
10006fe0:	3401      	adds	r4, #1
10006fe2:	2c1f      	cmp	r4, #31
10006fe4:	d805      	bhi.n	10006ff2 <_ntoa_format+0x9c>
10006fe6:	464a      	mov	r2, r9
10006fe8:	2a00      	cmp	r2, #0
10006fea:	d031      	beq.n	10007050 <_ntoa_format+0xfa>
10006fec:	222d      	movs	r2, #45	; 0x2d
10006fee:	552a      	strb	r2, [r5, r4]
10006ff0:	3401      	adds	r4, #1
10006ff2:	9603      	str	r6, [sp, #12]
10006ff4:	9302      	str	r3, [sp, #8]
10006ff6:	9401      	str	r4, [sp, #4]
10006ff8:	9500      	str	r5, [sp, #0]
10006ffa:	4643      	mov	r3, r8
10006ffc:	4662      	mov	r2, ip
10006ffe:	f7ff ff53 	bl	10006ea8 <_out_rev>
10007002:	b005      	add	sp, #20
10007004:	bcc0      	pop	{r6, r7}
10007006:	46b9      	mov	r9, r7
10007008:	46b0      	mov	r8, r6
1000700a:	bdf0      	pop	{r4, r5, r6, r7, pc}
1000700c:	1e62      	subs	r2, r4, #1
1000700e:	2c01      	cmp	r4, #1
10007010:	d006      	beq.n	10007020 <_ntoa_format+0xca>
10007012:	9f0f      	ldr	r7, [sp, #60]	; 0x3c
10007014:	2f10      	cmp	r7, #16
10007016:	d001      	beq.n	1000701c <_ntoa_format+0xc6>
10007018:	0014      	movs	r4, r2
1000701a:	e7d4      	b.n	10006fc6 <_ntoa_format+0x70>
1000701c:	3c02      	subs	r4, #2
1000701e:	e7d2      	b.n	10006fc6 <_ntoa_format+0x70>
10007020:	0014      	movs	r4, r2
10007022:	e7d0      	b.n	10006fc6 <_ntoa_format+0x70>
10007024:	06b2      	lsls	r2, r6, #26
10007026:	d4d1      	bmi.n	10006fcc <_ntoa_format+0x76>
10007028:	2c1f      	cmp	r4, #31
1000702a:	d8cf      	bhi.n	10006fcc <_ntoa_format+0x76>
1000702c:	2278      	movs	r2, #120	; 0x78
1000702e:	552a      	strb	r2, [r5, r4]
10007030:	3401      	adds	r4, #1
10007032:	e7d1      	b.n	10006fd8 <_ntoa_format+0x82>
10007034:	06b2      	lsls	r2, r6, #26
10007036:	d5cc      	bpl.n	10006fd2 <_ntoa_format+0x7c>
10007038:	2c1f      	cmp	r4, #31
1000703a:	d8ca      	bhi.n	10006fd2 <_ntoa_format+0x7c>
1000703c:	2258      	movs	r2, #88	; 0x58
1000703e:	552a      	strb	r2, [r5, r4]
10007040:	3401      	adds	r4, #1
10007042:	e7c9      	b.n	10006fd8 <_ntoa_format+0x82>
10007044:	2c1f      	cmp	r4, #31
10007046:	d8c7      	bhi.n	10006fd8 <_ntoa_format+0x82>
10007048:	3260      	adds	r2, #96	; 0x60
1000704a:	552a      	strb	r2, [r5, r4]
1000704c:	3401      	adds	r4, #1
1000704e:	e7c3      	b.n	10006fd8 <_ntoa_format+0x82>
10007050:	0772      	lsls	r2, r6, #29
10007052:	d503      	bpl.n	1000705c <_ntoa_format+0x106>
10007054:	222b      	movs	r2, #43	; 0x2b
10007056:	552a      	strb	r2, [r5, r4]
10007058:	3401      	adds	r4, #1
1000705a:	e7ca      	b.n	10006ff2 <_ntoa_format+0x9c>
1000705c:	0732      	lsls	r2, r6, #28
1000705e:	d5c8      	bpl.n	10006ff2 <_ntoa_format+0x9c>
10007060:	2220      	movs	r2, #32
10007062:	552a      	strb	r2, [r5, r4]
10007064:	3401      	adds	r4, #1
10007066:	e7c4      	b.n	10006ff2 <_ntoa_format+0x9c>

10007068 <_ntoa_long>:
10007068:	b5f0      	push	{r4, r5, r6, r7, lr}
1000706a:	46de      	mov	lr, fp
1000706c:	4657      	mov	r7, sl
1000706e:	464e      	mov	r6, r9
10007070:	4645      	mov	r5, r8
10007072:	b5e0      	push	{r5, r6, r7, lr}
10007074:	b093      	sub	sp, #76	; 0x4c
10007076:	4681      	mov	r9, r0
10007078:	468a      	mov	sl, r1
1000707a:	9208      	str	r2, [sp, #32]
1000707c:	9309      	str	r3, [sp, #36]	; 0x24
1000707e:	ab1c      	add	r3, sp, #112	; 0x70
10007080:	cb10      	ldmia	r3!, {r4}
10007082:	781b      	ldrb	r3, [r3, #0]
10007084:	469b      	mov	fp, r3
10007086:	9d1e      	ldr	r5, [sp, #120]	; 0x78
10007088:	9b21      	ldr	r3, [sp, #132]	; 0x84
1000708a:	4698      	mov	r8, r3
1000708c:	2c00      	cmp	r4, #0
1000708e:	d103      	bne.n	10007098 <_ntoa_long+0x30>
10007090:	2310      	movs	r3, #16
10007092:	4642      	mov	r2, r8
10007094:	439a      	bics	r2, r3
10007096:	4690      	mov	r8, r2
10007098:	2380      	movs	r3, #128	; 0x80
1000709a:	00db      	lsls	r3, r3, #3
1000709c:	4646      	mov	r6, r8
1000709e:	401e      	ands	r6, r3
100070a0:	4642      	mov	r2, r8
100070a2:	421a      	tst	r2, r3
100070a4:	d012      	beq.n	100070cc <_ntoa_long+0x64>
100070a6:	2c00      	cmp	r4, #0
100070a8:	d022      	beq.n	100070f0 <_ntoa_long+0x88>
100070aa:	2600      	movs	r6, #0
100070ac:	e00e      	b.n	100070cc <_ntoa_long+0x64>
100070ae:	3330      	adds	r3, #48	; 0x30
100070b0:	b2d9      	uxtb	r1, r3
100070b2:	1c77      	adds	r7, r6, #1
100070b4:	ab0a      	add	r3, sp, #40	; 0x28
100070b6:	5599      	strb	r1, [r3, r6]
100070b8:	0029      	movs	r1, r5
100070ba:	0020      	movs	r0, r4
100070bc:	f000 ffea 	bl	10008094 <__wrap___aeabi_uidiv>
100070c0:	42ac      	cmp	r4, r5
100070c2:	d316      	bcc.n	100070f2 <_ntoa_long+0x8a>
100070c4:	2f1f      	cmp	r7, #31
100070c6:	d814      	bhi.n	100070f2 <_ntoa_long+0x8a>
100070c8:	003e      	movs	r6, r7
100070ca:	0004      	movs	r4, r0
100070cc:	0029      	movs	r1, r5
100070ce:	0020      	movs	r0, r4
100070d0:	f000 ffe0 	bl	10008094 <__wrap___aeabi_uidiv>
100070d4:	b2cb      	uxtb	r3, r1
100070d6:	2b09      	cmp	r3, #9
100070d8:	d9e9      	bls.n	100070ae <_ntoa_long+0x46>
100070da:	4642      	mov	r2, r8
100070dc:	0692      	lsls	r2, r2, #26
100070de:	d505      	bpl.n	100070ec <_ntoa_long+0x84>
100070e0:	2141      	movs	r1, #65	; 0x41
100070e2:	18c9      	adds	r1, r1, r3
100070e4:	b2c9      	uxtb	r1, r1
100070e6:	390a      	subs	r1, #10
100070e8:	b2c9      	uxtb	r1, r1
100070ea:	e7e2      	b.n	100070b2 <_ntoa_long+0x4a>
100070ec:	2161      	movs	r1, #97	; 0x61
100070ee:	e7f8      	b.n	100070e2 <_ntoa_long+0x7a>
100070f0:	0027      	movs	r7, r4
100070f2:	4643      	mov	r3, r8
100070f4:	9306      	str	r3, [sp, #24]
100070f6:	9b20      	ldr	r3, [sp, #128]	; 0x80
100070f8:	9305      	str	r3, [sp, #20]
100070fa:	9b1f      	ldr	r3, [sp, #124]	; 0x7c
100070fc:	9304      	str	r3, [sp, #16]
100070fe:	9503      	str	r5, [sp, #12]
10007100:	465b      	mov	r3, fp
10007102:	9302      	str	r3, [sp, #8]
10007104:	9701      	str	r7, [sp, #4]
10007106:	ab0a      	add	r3, sp, #40	; 0x28
10007108:	9300      	str	r3, [sp, #0]
1000710a:	9b09      	ldr	r3, [sp, #36]	; 0x24
1000710c:	9a08      	ldr	r2, [sp, #32]
1000710e:	4651      	mov	r1, sl
10007110:	4648      	mov	r0, r9
10007112:	f7ff ff20 	bl	10006f56 <_ntoa_format>
10007116:	b013      	add	sp, #76	; 0x4c
10007118:	bcf0      	pop	{r4, r5, r6, r7}
1000711a:	46bb      	mov	fp, r7
1000711c:	46b2      	mov	sl, r6
1000711e:	46a9      	mov	r9, r5
10007120:	46a0      	mov	r8, r4
10007122:	bdf0      	pop	{r4, r5, r6, r7, pc}

10007124 <_ntoa_long_long>:
10007124:	b5f0      	push	{r4, r5, r6, r7, lr}
10007126:	46de      	mov	lr, fp
10007128:	4657      	mov	r7, sl
1000712a:	464e      	mov	r6, r9
1000712c:	4645      	mov	r5, r8
1000712e:	b5e0      	push	{r5, r6, r7, lr}
10007130:	b095      	sub	sp, #84	; 0x54
10007132:	9008      	str	r0, [sp, #32]
10007134:	9109      	str	r1, [sp, #36]	; 0x24
10007136:	920a      	str	r2, [sp, #40]	; 0x28
10007138:	930b      	str	r3, [sp, #44]	; 0x2c
1000713a:	9e1e      	ldr	r6, [sp, #120]	; 0x78
1000713c:	9c1f      	ldr	r4, [sp, #124]	; 0x7c
1000713e:	ab20      	add	r3, sp, #128	; 0x80
10007140:	781b      	ldrb	r3, [r3, #0]
10007142:	469b      	mov	fp, r3
10007144:	9b22      	ldr	r3, [sp, #136]	; 0x88
10007146:	4699      	mov	r9, r3
10007148:	9d23      	ldr	r5, [sp, #140]	; 0x8c
1000714a:	9b26      	ldr	r3, [sp, #152]	; 0x98
1000714c:	469a      	mov	sl, r3
1000714e:	0033      	movs	r3, r6
10007150:	4323      	orrs	r3, r4
10007152:	d103      	bne.n	1000715c <_ntoa_long_long+0x38>
10007154:	3310      	adds	r3, #16
10007156:	4652      	mov	r2, sl
10007158:	439a      	bics	r2, r3
1000715a:	4692      	mov	sl, r2
1000715c:	2380      	movs	r3, #128	; 0x80
1000715e:	00db      	lsls	r3, r3, #3
10007160:	4657      	mov	r7, sl
10007162:	401f      	ands	r7, r3
10007164:	4652      	mov	r2, sl
10007166:	421a      	tst	r2, r3
10007168:	d019      	beq.n	1000719e <_ntoa_long_long+0x7a>
1000716a:	0033      	movs	r3, r6
1000716c:	4323      	orrs	r3, r4
1000716e:	d02d      	beq.n	100071cc <_ntoa_long_long+0xa8>
10007170:	2700      	movs	r7, #0
10007172:	e014      	b.n	1000719e <_ntoa_long_long+0x7a>
10007174:	3330      	adds	r3, #48	; 0x30
10007176:	b2da      	uxtb	r2, r3
10007178:	1c7b      	adds	r3, r7, #1
1000717a:	4698      	mov	r8, r3
1000717c:	ab0c      	add	r3, sp, #48	; 0x30
1000717e:	55da      	strb	r2, [r3, r7]
10007180:	464a      	mov	r2, r9
10007182:	002b      	movs	r3, r5
10007184:	0030      	movs	r0, r6
10007186:	0021      	movs	r1, r4
10007188:	f000 ffc6 	bl	10008118 <__wrap___aeabi_uldivmod>
1000718c:	42a5      	cmp	r5, r4
1000718e:	d81f      	bhi.n	100071d0 <_ntoa_long_long+0xac>
10007190:	d019      	beq.n	100071c6 <_ntoa_long_long+0xa2>
10007192:	4643      	mov	r3, r8
10007194:	2b1f      	cmp	r3, #31
10007196:	d81b      	bhi.n	100071d0 <_ntoa_long_long+0xac>
10007198:	4647      	mov	r7, r8
1000719a:	0006      	movs	r6, r0
1000719c:	000c      	movs	r4, r1
1000719e:	464a      	mov	r2, r9
100071a0:	002b      	movs	r3, r5
100071a2:	0030      	movs	r0, r6
100071a4:	0021      	movs	r1, r4
100071a6:	f000 ffb7 	bl	10008118 <__wrap___aeabi_uldivmod>
100071aa:	b2d3      	uxtb	r3, r2
100071ac:	2b09      	cmp	r3, #9
100071ae:	d9e1      	bls.n	10007174 <_ntoa_long_long+0x50>
100071b0:	4652      	mov	r2, sl
100071b2:	0692      	lsls	r2, r2, #26
100071b4:	d505      	bpl.n	100071c2 <_ntoa_long_long+0x9e>
100071b6:	2241      	movs	r2, #65	; 0x41
100071b8:	18d2      	adds	r2, r2, r3
100071ba:	b2d2      	uxtb	r2, r2
100071bc:	3a0a      	subs	r2, #10
100071be:	b2d2      	uxtb	r2, r2
100071c0:	e7da      	b.n	10007178 <_ntoa_long_long+0x54>
100071c2:	2261      	movs	r2, #97	; 0x61
100071c4:	e7f8      	b.n	100071b8 <_ntoa_long_long+0x94>
100071c6:	45b1      	cmp	r9, r6
100071c8:	d9e3      	bls.n	10007192 <_ntoa_long_long+0x6e>
100071ca:	e001      	b.n	100071d0 <_ntoa_long_long+0xac>
100071cc:	2300      	movs	r3, #0
100071ce:	4698      	mov	r8, r3
100071d0:	4653      	mov	r3, sl
100071d2:	9306      	str	r3, [sp, #24]
100071d4:	9b25      	ldr	r3, [sp, #148]	; 0x94
100071d6:	9305      	str	r3, [sp, #20]
100071d8:	9b24      	ldr	r3, [sp, #144]	; 0x90
100071da:	9304      	str	r3, [sp, #16]
100071dc:	464b      	mov	r3, r9
100071de:	9303      	str	r3, [sp, #12]
100071e0:	465b      	mov	r3, fp
100071e2:	9302      	str	r3, [sp, #8]
100071e4:	4643      	mov	r3, r8
100071e6:	9301      	str	r3, [sp, #4]
100071e8:	ab0c      	add	r3, sp, #48	; 0x30
100071ea:	9300      	str	r3, [sp, #0]
100071ec:	9b0b      	ldr	r3, [sp, #44]	; 0x2c
100071ee:	9a0a      	ldr	r2, [sp, #40]	; 0x28
100071f0:	9909      	ldr	r1, [sp, #36]	; 0x24
100071f2:	9808      	ldr	r0, [sp, #32]
100071f4:	f7ff feaf 	bl	10006f56 <_ntoa_format>
100071f8:	b015      	add	sp, #84	; 0x54
100071fa:	bcf0      	pop	{r4, r5, r6, r7}
100071fc:	46bb      	mov	fp, r7
100071fe:	46b2      	mov	sl, r6
10007200:	46a9      	mov	r9, r5
10007202:	46a0      	mov	r8, r4
10007204:	bdf0      	pop	{r4, r5, r6, r7, pc}
	...

10007208 <_etoa>:
10007208:	b5f0      	push	{r4, r5, r6, r7, lr}
1000720a:	46de      	mov	lr, fp
1000720c:	4657      	mov	r7, sl
1000720e:	464e      	mov	r6, r9
10007210:	4645      	mov	r5, r8
10007212:	b5e0      	push	{r5, r6, r7, lr}
10007214:	b091      	sub	sp, #68	; 0x44
10007216:	4683      	mov	fp, r0
10007218:	468a      	mov	sl, r1
1000721a:	920c      	str	r2, [sp, #48]	; 0x30
1000721c:	4698      	mov	r8, r3
1000721e:	9c1a      	ldr	r4, [sp, #104]	; 0x68
10007220:	9408      	str	r4, [sp, #32]
10007222:	9d1b      	ldr	r5, [sp, #108]	; 0x6c
10007224:	9509      	str	r5, [sp, #36]	; 0x24
10007226:	0022      	movs	r2, r4
10007228:	002b      	movs	r3, r5
1000722a:	0020      	movs	r0, r4
1000722c:	0029      	movs	r1, r5
1000722e:	f001 f9f2 	bl	10008616 <__wrap___aeabi_dcmpun>
10007232:	2800      	cmp	r0, #0
10007234:	d000      	beq.n	10007238 <_etoa+0x30>
10007236:	e0e5      	b.n	10007404 <_etoa+0x1fc>
10007238:	2201      	movs	r2, #1
1000723a:	4252      	negs	r2, r2
1000723c:	4bd7      	ldr	r3, [pc, #860]	; (1000759c <_etoa+0x394>)
1000723e:	0020      	movs	r0, r4
10007240:	0029      	movs	r1, r5
10007242:	f001 f9e3 	bl	1000860c <__wrap___aeabi_dcmpgt>
10007246:	2800      	cmp	r0, #0
10007248:	d000      	beq.n	1000724c <_etoa+0x44>
1000724a:	e0db      	b.n	10007404 <_etoa+0x1fc>
1000724c:	2201      	movs	r2, #1
1000724e:	4252      	negs	r2, r2
10007250:	4bd3      	ldr	r3, [pc, #844]	; (100075a0 <_etoa+0x398>)
10007252:	0020      	movs	r0, r4
10007254:	0029      	movs	r1, r5
10007256:	f001 f9c3 	bl	100085e0 <__wrap___aeabi_dcmplt>
1000725a:	2800      	cmp	r0, #0
1000725c:	d000      	beq.n	10007260 <_etoa+0x58>
1000725e:	e0d1      	b.n	10007404 <_etoa+0x1fc>
10007260:	2200      	movs	r2, #0
10007262:	2300      	movs	r3, #0
10007264:	9e08      	ldr	r6, [sp, #32]
10007266:	0030      	movs	r0, r6
10007268:	9d09      	ldr	r5, [sp, #36]	; 0x24
1000726a:	0029      	movs	r1, r5
1000726c:	f001 f9b8 	bl	100085e0 <__wrap___aeabi_dcmplt>
10007270:	2800      	cmp	r0, #0
10007272:	d000      	beq.n	10007276 <_etoa+0x6e>
10007274:	e0dd      	b.n	10007432 <_etoa+0x22a>
10007276:	9808      	ldr	r0, [sp, #32]
10007278:	9909      	ldr	r1, [sp, #36]	; 0x24
1000727a:	9006      	str	r0, [sp, #24]
1000727c:	9107      	str	r1, [sp, #28]
1000727e:	2380      	movs	r3, #128	; 0x80
10007280:	00db      	lsls	r3, r3, #3
10007282:	9a1e      	ldr	r2, [sp, #120]	; 0x78
10007284:	401a      	ands	r2, r3
10007286:	920d      	str	r2, [sp, #52]	; 0x34
10007288:	9a1e      	ldr	r2, [sp, #120]	; 0x78
1000728a:	421a      	tst	r2, r3
1000728c:	d101      	bne.n	10007292 <_etoa+0x8a>
1000728e:	2306      	movs	r3, #6
10007290:	931c      	str	r3, [sp, #112]	; 0x70
10007292:	9806      	ldr	r0, [sp, #24]
10007294:	9907      	ldr	r1, [sp, #28]
10007296:	0004      	movs	r4, r0
10007298:	000d      	movs	r5, r1
1000729a:	000a      	movs	r2, r1
1000729c:	0006      	movs	r6, r0
1000729e:	4302      	orrs	r2, r0
100072a0:	d100      	bne.n	100072a4 <_etoa+0x9c>
100072a2:	e0d1      	b.n	10007448 <_etoa+0x240>
100072a4:	0d08      	lsrs	r0, r1, #20
100072a6:	0540      	lsls	r0, r0, #21
100072a8:	0d40      	lsrs	r0, r0, #21
100072aa:	4cbe      	ldr	r4, [pc, #760]	; (100075a4 <_etoa+0x39c>)
100072ac:	46a4      	mov	ip, r4
100072ae:	4460      	add	r0, ip
100072b0:	030a      	lsls	r2, r1, #12
100072b2:	0b12      	lsrs	r2, r2, #12
100072b4:	4bbc      	ldr	r3, [pc, #752]	; (100075a8 <_etoa+0x3a0>)
100072b6:	4313      	orrs	r3, r2
100072b8:	001f      	movs	r7, r3
100072ba:	f001 f9bf 	bl	1000863c <__wrap___aeabi_i2d>
100072be:	4abb      	ldr	r2, [pc, #748]	; (100075ac <_etoa+0x3a4>)
100072c0:	4bbb      	ldr	r3, [pc, #748]	; (100075b0 <_etoa+0x3a8>)
100072c2:	f001 f94e 	bl	10008562 <__wrap___aeabi_dmul>
100072c6:	4abb      	ldr	r2, [pc, #748]	; (100075b4 <_etoa+0x3ac>)
100072c8:	4bbb      	ldr	r3, [pc, #748]	; (100075b8 <_etoa+0x3b0>)
100072ca:	f001 f92b 	bl	10008524 <__wrap___aeabi_dadd>
100072ce:	0004      	movs	r4, r0
100072d0:	000d      	movs	r5, r1
100072d2:	2200      	movs	r2, #0
100072d4:	4bb9      	ldr	r3, [pc, #740]	; (100075bc <_etoa+0x3b4>)
100072d6:	0030      	movs	r0, r6
100072d8:	0039      	movs	r1, r7
100072da:	f001 f91e 	bl	1000851a <__wrap___aeabi_dsub>
100072de:	4ab8      	ldr	r2, [pc, #736]	; (100075c0 <_etoa+0x3b8>)
100072e0:	4bb8      	ldr	r3, [pc, #736]	; (100075c4 <_etoa+0x3bc>)
100072e2:	f001 f93e 	bl	10008562 <__wrap___aeabi_dmul>
100072e6:	0002      	movs	r2, r0
100072e8:	000b      	movs	r3, r1
100072ea:	0020      	movs	r0, r4
100072ec:	0029      	movs	r1, r5
100072ee:	f001 f919 	bl	10008524 <__wrap___aeabi_dadd>
100072f2:	f001 f9bb 	bl	1000866c <__wrap___aeabi_d2iz>
100072f6:	4681      	mov	r9, r0
100072f8:	f001 f9a0 	bl	1000863c <__wrap___aeabi_i2d>
100072fc:	0004      	movs	r4, r0
100072fe:	000d      	movs	r5, r1
10007300:	4ab1      	ldr	r2, [pc, #708]	; (100075c8 <_etoa+0x3c0>)
10007302:	4bb2      	ldr	r3, [pc, #712]	; (100075cc <_etoa+0x3c4>)
10007304:	f001 f92d 	bl	10008562 <__wrap___aeabi_dmul>
10007308:	2200      	movs	r2, #0
1000730a:	4bb1      	ldr	r3, [pc, #708]	; (100075d0 <_etoa+0x3c8>)
1000730c:	f001 f90a 	bl	10008524 <__wrap___aeabi_dadd>
10007310:	f001 f9ac 	bl	1000866c <__wrap___aeabi_d2iz>
10007314:	0006      	movs	r6, r0
10007316:	4aaf      	ldr	r2, [pc, #700]	; (100075d4 <_etoa+0x3cc>)
10007318:	4baf      	ldr	r3, [pc, #700]	; (100075d8 <_etoa+0x3d0>)
1000731a:	0020      	movs	r0, r4
1000731c:	0029      	movs	r1, r5
1000731e:	f001 f920 	bl	10008562 <__wrap___aeabi_dmul>
10007322:	0004      	movs	r4, r0
10007324:	000d      	movs	r5, r1
10007326:	0030      	movs	r0, r6
10007328:	f001 f988 	bl	1000863c <__wrap___aeabi_i2d>
1000732c:	4aab      	ldr	r2, [pc, #684]	; (100075dc <_etoa+0x3d4>)
1000732e:	4bac      	ldr	r3, [pc, #688]	; (100075e0 <_etoa+0x3d8>)
10007330:	f001 f917 	bl	10008562 <__wrap___aeabi_dmul>
10007334:	0002      	movs	r2, r0
10007336:	000b      	movs	r3, r1
10007338:	0020      	movs	r0, r4
1000733a:	0029      	movs	r1, r5
1000733c:	f001 f8ed 	bl	1000851a <__wrap___aeabi_dsub>
10007340:	0004      	movs	r4, r0
10007342:	000d      	movs	r5, r1
10007344:	0002      	movs	r2, r0
10007346:	000b      	movs	r3, r1
10007348:	f001 f90b 	bl	10008562 <__wrap___aeabi_dmul>
1000734c:	900a      	str	r0, [sp, #40]	; 0x28
1000734e:	910b      	str	r1, [sp, #44]	; 0x2c
10007350:	4ba4      	ldr	r3, [pc, #656]	; (100075e4 <_etoa+0x3dc>)
10007352:	18f3      	adds	r3, r6, r3
10007354:	2600      	movs	r6, #0
10007356:	051f      	lsls	r7, r3, #20
10007358:	0022      	movs	r2, r4
1000735a:	002b      	movs	r3, r5
1000735c:	0020      	movs	r0, r4
1000735e:	0029      	movs	r1, r5
10007360:	f001 f8e0 	bl	10008524 <__wrap___aeabi_dadd>
10007364:	900e      	str	r0, [sp, #56]	; 0x38
10007366:	910f      	str	r1, [sp, #60]	; 0x3c
10007368:	0022      	movs	r2, r4
1000736a:	002b      	movs	r3, r5
1000736c:	2000      	movs	r0, #0
1000736e:	2180      	movs	r1, #128	; 0x80
10007370:	05c9      	lsls	r1, r1, #23
10007372:	f001 f8d2 	bl	1000851a <__wrap___aeabi_dsub>
10007376:	0004      	movs	r4, r0
10007378:	000d      	movs	r5, r1
1000737a:	2200      	movs	r2, #0
1000737c:	4b9a      	ldr	r3, [pc, #616]	; (100075e8 <_etoa+0x3e0>)
1000737e:	980a      	ldr	r0, [sp, #40]	; 0x28
10007380:	990b      	ldr	r1, [sp, #44]	; 0x2c
10007382:	f001 f8d4 	bl	1000852e <__wrap___aeabi_ddiv>
10007386:	2200      	movs	r2, #0
10007388:	4b98      	ldr	r3, [pc, #608]	; (100075ec <_etoa+0x3e4>)
1000738a:	f001 f8cb 	bl	10008524 <__wrap___aeabi_dadd>
1000738e:	0002      	movs	r2, r0
10007390:	000b      	movs	r3, r1
10007392:	980a      	ldr	r0, [sp, #40]	; 0x28
10007394:	990b      	ldr	r1, [sp, #44]	; 0x2c
10007396:	f001 f8ca 	bl	1000852e <__wrap___aeabi_ddiv>
1000739a:	2200      	movs	r2, #0
1000739c:	4b94      	ldr	r3, [pc, #592]	; (100075f0 <_etoa+0x3e8>)
1000739e:	f001 f8c1 	bl	10008524 <__wrap___aeabi_dadd>
100073a2:	0002      	movs	r2, r0
100073a4:	000b      	movs	r3, r1
100073a6:	980a      	ldr	r0, [sp, #40]	; 0x28
100073a8:	990b      	ldr	r1, [sp, #44]	; 0x2c
100073aa:	f001 f8c0 	bl	1000852e <__wrap___aeabi_ddiv>
100073ae:	0002      	movs	r2, r0
100073b0:	000b      	movs	r3, r1
100073b2:	0020      	movs	r0, r4
100073b4:	0029      	movs	r1, r5
100073b6:	f001 f8b5 	bl	10008524 <__wrap___aeabi_dadd>
100073ba:	0002      	movs	r2, r0
100073bc:	000b      	movs	r3, r1
100073be:	980e      	ldr	r0, [sp, #56]	; 0x38
100073c0:	990f      	ldr	r1, [sp, #60]	; 0x3c
100073c2:	f001 f8b4 	bl	1000852e <__wrap___aeabi_ddiv>
100073c6:	2200      	movs	r2, #0
100073c8:	4b77      	ldr	r3, [pc, #476]	; (100075a8 <_etoa+0x3a0>)
100073ca:	f001 f8ab 	bl	10008524 <__wrap___aeabi_dadd>
100073ce:	0032      	movs	r2, r6
100073d0:	003b      	movs	r3, r7
100073d2:	f001 f8c6 	bl	10008562 <__wrap___aeabi_dmul>
100073d6:	0006      	movs	r6, r0
100073d8:	000f      	movs	r7, r1
100073da:	0004      	movs	r4, r0
100073dc:	000d      	movs	r5, r1
100073de:	9a06      	ldr	r2, [sp, #24]
100073e0:	9b07      	ldr	r3, [sp, #28]
100073e2:	f001 f913 	bl	1000860c <__wrap___aeabi_dcmpgt>
100073e6:	2800      	cmp	r0, #0
100073e8:	d030      	beq.n	1000744c <_etoa+0x244>
100073ea:	2301      	movs	r3, #1
100073ec:	425b      	negs	r3, r3
100073ee:	469c      	mov	ip, r3
100073f0:	44e1      	add	r9, ip
100073f2:	2200      	movs	r2, #0
100073f4:	4b7d      	ldr	r3, [pc, #500]	; (100075ec <_etoa+0x3e4>)
100073f6:	0030      	movs	r0, r6
100073f8:	0039      	movs	r1, r7
100073fa:	f001 f898 	bl	1000852e <__wrap___aeabi_ddiv>
100073fe:	0004      	movs	r4, r0
10007400:	000d      	movs	r5, r1
10007402:	e023      	b.n	1000744c <_etoa+0x244>
10007404:	9b1e      	ldr	r3, [sp, #120]	; 0x78
10007406:	9304      	str	r3, [sp, #16]
10007408:	9b1d      	ldr	r3, [sp, #116]	; 0x74
1000740a:	9303      	str	r3, [sp, #12]
1000740c:	9b1c      	ldr	r3, [sp, #112]	; 0x70
1000740e:	9302      	str	r3, [sp, #8]
10007410:	9a08      	ldr	r2, [sp, #32]
10007412:	9b09      	ldr	r3, [sp, #36]	; 0x24
10007414:	9200      	str	r2, [sp, #0]
10007416:	9301      	str	r3, [sp, #4]
10007418:	4643      	mov	r3, r8
1000741a:	9a0c      	ldr	r2, [sp, #48]	; 0x30
1000741c:	4651      	mov	r1, sl
1000741e:	4658      	mov	r0, fp
10007420:	f000 f8fc 	bl	1000761c <_ftoa>
10007424:	b011      	add	sp, #68	; 0x44
10007426:	bcf0      	pop	{r4, r5, r6, r7}
10007428:	46bb      	mov	fp, r7
1000742a:	46b2      	mov	sl, r6
1000742c:	46a9      	mov	r9, r5
1000742e:	46a0      	mov	r8, r4
10007430:	bdf0      	pop	{r4, r5, r6, r7, pc}
10007432:	2300      	movs	r3, #0
10007434:	2400      	movs	r4, #0
10007436:	9306      	str	r3, [sp, #24]
10007438:	9407      	str	r4, [sp, #28]
1000743a:	9606      	str	r6, [sp, #24]
1000743c:	2380      	movs	r3, #128	; 0x80
1000743e:	061b      	lsls	r3, r3, #24
10007440:	469c      	mov	ip, r3
10007442:	4465      	add	r5, ip
10007444:	9507      	str	r5, [sp, #28]
10007446:	e71a      	b.n	1000727e <_etoa+0x76>
10007448:	2300      	movs	r3, #0
1000744a:	4699      	mov	r9, r3
1000744c:	464b      	mov	r3, r9
1000744e:	3363      	adds	r3, #99	; 0x63
10007450:	2bc6      	cmp	r3, #198	; 0xc6
10007452:	d81e      	bhi.n	10007492 <_etoa+0x28a>
10007454:	2604      	movs	r6, #4
10007456:	9b1e      	ldr	r3, [sp, #120]	; 0x78
10007458:	051b      	lsls	r3, r3, #20
1000745a:	d526      	bpl.n	100074aa <_etoa+0x2a2>
1000745c:	002b      	movs	r3, r5
1000745e:	4323      	orrs	r3, r4
10007460:	d00f      	beq.n	10007482 <_etoa+0x27a>
10007462:	4a64      	ldr	r2, [pc, #400]	; (100075f4 <_etoa+0x3ec>)
10007464:	4b64      	ldr	r3, [pc, #400]	; (100075f8 <_etoa+0x3f0>)
10007466:	9806      	ldr	r0, [sp, #24]
10007468:	9907      	ldr	r1, [sp, #28]
1000746a:	f001 f8c7 	bl	100085fc <__wrap___aeabi_dcmpge>
1000746e:	2800      	cmp	r0, #0
10007470:	d079      	beq.n	10007566 <_etoa+0x35e>
10007472:	2200      	movs	r2, #0
10007474:	4b61      	ldr	r3, [pc, #388]	; (100075fc <_etoa+0x3f4>)
10007476:	9806      	ldr	r0, [sp, #24]
10007478:	9907      	ldr	r1, [sp, #28]
1000747a:	f001 f8b1 	bl	100085e0 <__wrap___aeabi_dcmplt>
1000747e:	2800      	cmp	r0, #0
10007480:	d071      	beq.n	10007566 <_etoa+0x35e>
10007482:	9b1c      	ldr	r3, [sp, #112]	; 0x70
10007484:	454b      	cmp	r3, r9
10007486:	dd06      	ble.n	10007496 <_etoa+0x28e>
10007488:	464a      	mov	r2, r9
1000748a:	1a98      	subs	r0, r3, r2
1000748c:	1e43      	subs	r3, r0, #1
1000748e:	931c      	str	r3, [sp, #112]	; 0x70
10007490:	e003      	b.n	1000749a <_etoa+0x292>
10007492:	2605      	movs	r6, #5
10007494:	e7df      	b.n	10007456 <_etoa+0x24e>
10007496:	2300      	movs	r3, #0
10007498:	931c      	str	r3, [sp, #112]	; 0x70
1000749a:	2380      	movs	r3, #128	; 0x80
1000749c:	00db      	lsls	r3, r3, #3
1000749e:	9a1e      	ldr	r2, [sp, #120]	; 0x78
100074a0:	431a      	orrs	r2, r3
100074a2:	921e      	str	r2, [sp, #120]	; 0x78
100074a4:	2600      	movs	r6, #0
100074a6:	2300      	movs	r3, #0
100074a8:	4699      	mov	r9, r3
100074aa:	9b1d      	ldr	r3, [sp, #116]	; 0x74
100074ac:	429e      	cmp	r6, r3
100074ae:	d264      	bcs.n	1000757a <_etoa+0x372>
100074b0:	1b9f      	subs	r7, r3, r6
100074b2:	2302      	movs	r3, #2
100074b4:	9a1e      	ldr	r2, [sp, #120]	; 0x78
100074b6:	401a      	ands	r2, r3
100074b8:	920a      	str	r2, [sp, #40]	; 0x28
100074ba:	9a1e      	ldr	r2, [sp, #120]	; 0x78
100074bc:	4213      	tst	r3, r2
100074be:	d002      	beq.n	100074c6 <_etoa+0x2be>
100074c0:	2e00      	cmp	r6, #0
100074c2:	d000      	beq.n	100074c6 <_etoa+0x2be>
100074c4:	2700      	movs	r7, #0
100074c6:	464b      	mov	r3, r9
100074c8:	2b00      	cmp	r3, #0
100074ca:	d007      	beq.n	100074dc <_etoa+0x2d4>
100074cc:	0022      	movs	r2, r4
100074ce:	002b      	movs	r3, r5
100074d0:	9806      	ldr	r0, [sp, #24]
100074d2:	9907      	ldr	r1, [sp, #28]
100074d4:	f001 f82b 	bl	1000852e <__wrap___aeabi_ddiv>
100074d8:	9006      	str	r0, [sp, #24]
100074da:	9107      	str	r1, [sp, #28]
100074dc:	2200      	movs	r2, #0
100074de:	2300      	movs	r3, #0
100074e0:	9808      	ldr	r0, [sp, #32]
100074e2:	9909      	ldr	r1, [sp, #36]	; 0x24
100074e4:	f001 f87c 	bl	100085e0 <__wrap___aeabi_dcmplt>
100074e8:	2800      	cmp	r0, #0
100074ea:	d148      	bne.n	1000757e <_etoa+0x376>
100074ec:	4b44      	ldr	r3, [pc, #272]	; (10007600 <_etoa+0x3f8>)
100074ee:	9a1e      	ldr	r2, [sp, #120]	; 0x78
100074f0:	4013      	ands	r3, r2
100074f2:	9304      	str	r3, [sp, #16]
100074f4:	9703      	str	r7, [sp, #12]
100074f6:	9b1c      	ldr	r3, [sp, #112]	; 0x70
100074f8:	9302      	str	r3, [sp, #8]
100074fa:	9b06      	ldr	r3, [sp, #24]
100074fc:	9c07      	ldr	r4, [sp, #28]
100074fe:	9300      	str	r3, [sp, #0]
10007500:	9401      	str	r4, [sp, #4]
10007502:	4643      	mov	r3, r8
10007504:	9a0c      	ldr	r2, [sp, #48]	; 0x30
10007506:	4651      	mov	r1, sl
10007508:	4658      	mov	r0, fp
1000750a:	f000 f887 	bl	1000761c <_ftoa>
1000750e:	2e00      	cmp	r6, #0
10007510:	d100      	bne.n	10007514 <_etoa+0x30c>
10007512:	e787      	b.n	10007424 <_etoa+0x21c>
10007514:	9b1e      	ldr	r3, [sp, #120]	; 0x78
10007516:	069b      	lsls	r3, r3, #26
10007518:	d53d      	bpl.n	10007596 <_etoa+0x38e>
1000751a:	2545      	movs	r5, #69	; 0x45
1000751c:	1c44      	adds	r4, r0, #1
1000751e:	4643      	mov	r3, r8
10007520:	0002      	movs	r2, r0
10007522:	4651      	mov	r1, sl
10007524:	0028      	movs	r0, r5
10007526:	47d8      	blx	fp
10007528:	464b      	mov	r3, r9
1000752a:	17da      	asrs	r2, r3, #31
1000752c:	189b      	adds	r3, r3, r2
1000752e:	4053      	eors	r3, r2
10007530:	2205      	movs	r2, #5
10007532:	9205      	str	r2, [sp, #20]
10007534:	3e01      	subs	r6, #1
10007536:	9604      	str	r6, [sp, #16]
10007538:	2200      	movs	r2, #0
1000753a:	9203      	str	r2, [sp, #12]
1000753c:	320a      	adds	r2, #10
1000753e:	9202      	str	r2, [sp, #8]
10007540:	464a      	mov	r2, r9
10007542:	0fd0      	lsrs	r0, r2, #31
10007544:	9001      	str	r0, [sp, #4]
10007546:	9300      	str	r3, [sp, #0]
10007548:	4643      	mov	r3, r8
1000754a:	0022      	movs	r2, r4
1000754c:	4651      	mov	r1, sl
1000754e:	4658      	mov	r0, fp
10007550:	f7ff fd8a 	bl	10007068 <_ntoa_long>
10007554:	9b0a      	ldr	r3, [sp, #40]	; 0x28
10007556:	2b00      	cmp	r3, #0
10007558:	d100      	bne.n	1000755c <_etoa+0x354>
1000755a:	e763      	b.n	10007424 <_etoa+0x21c>
1000755c:	0002      	movs	r2, r0
1000755e:	465f      	mov	r7, fp
10007560:	9e0c      	ldr	r6, [sp, #48]	; 0x30
10007562:	9d1d      	ldr	r5, [sp, #116]	; 0x74
10007564:	e054      	b.n	10007610 <_etoa+0x408>
10007566:	9b1c      	ldr	r3, [sp, #112]	; 0x70
10007568:	2b00      	cmp	r3, #0
1000756a:	d09e      	beq.n	100074aa <_etoa+0x2a2>
1000756c:	9b0d      	ldr	r3, [sp, #52]	; 0x34
1000756e:	2b00      	cmp	r3, #0
10007570:	d09b      	beq.n	100074aa <_etoa+0x2a2>
10007572:	9b1c      	ldr	r3, [sp, #112]	; 0x70
10007574:	3b01      	subs	r3, #1
10007576:	931c      	str	r3, [sp, #112]	; 0x70
10007578:	e797      	b.n	100074aa <_etoa+0x2a2>
1000757a:	2700      	movs	r7, #0
1000757c:	e799      	b.n	100074b2 <_etoa+0x2aa>
1000757e:	9c06      	ldr	r4, [sp, #24]
10007580:	9d07      	ldr	r5, [sp, #28]
10007582:	0022      	movs	r2, r4
10007584:	0029      	movs	r1, r5
10007586:	2080      	movs	r0, #128	; 0x80
10007588:	0600      	lsls	r0, r0, #24
1000758a:	4684      	mov	ip, r0
1000758c:	4461      	add	r1, ip
1000758e:	000b      	movs	r3, r1
10007590:	9206      	str	r2, [sp, #24]
10007592:	9307      	str	r3, [sp, #28]
10007594:	e7aa      	b.n	100074ec <_etoa+0x2e4>
10007596:	2565      	movs	r5, #101	; 0x65
10007598:	e7c0      	b.n	1000751c <_etoa+0x314>
1000759a:	46c0      	nop			; (mov r8, r8)
1000759c:	7fefffff 	.word	0x7fefffff
100075a0:	ffefffff 	.word	0xffefffff
100075a4:	fffffc01 	.word	0xfffffc01
100075a8:	3ff00000 	.word	0x3ff00000
100075ac:	509f79fb 	.word	0x509f79fb
100075b0:	3fd34413 	.word	0x3fd34413
100075b4:	8b60c8b3 	.word	0x8b60c8b3
100075b8:	3fc68a28 	.word	0x3fc68a28
100075bc:	3ff80000 	.word	0x3ff80000
100075c0:	636f4361 	.word	0x636f4361
100075c4:	3fd287a7 	.word	0x3fd287a7
100075c8:	0979a371 	.word	0x0979a371
100075cc:	400a934f 	.word	0x400a934f
100075d0:	3fe00000 	.word	0x3fe00000
100075d4:	bbb55516 	.word	0xbbb55516
100075d8:	40026bb1 	.word	0x40026bb1
100075dc:	fefa39ef 	.word	0xfefa39ef
100075e0:	3fe62e42 	.word	0x3fe62e42
100075e4:	000003ff 	.word	0x000003ff
100075e8:	402c0000 	.word	0x402c0000
100075ec:	40240000 	.word	0x40240000
100075f0:	40180000 	.word	0x40180000
100075f4:	eb1c432d 	.word	0xeb1c432d
100075f8:	3f1a36e2 	.word	0x3f1a36e2
100075fc:	412e8480 	.word	0x412e8480
10007600:	fffff7ff 	.word	0xfffff7ff
10007604:	1c54      	adds	r4, r2, #1
10007606:	4643      	mov	r3, r8
10007608:	4651      	mov	r1, sl
1000760a:	2020      	movs	r0, #32
1000760c:	47b8      	blx	r7
1000760e:	0022      	movs	r2, r4
10007610:	1b93      	subs	r3, r2, r6
10007612:	42ab      	cmp	r3, r5
10007614:	d3f6      	bcc.n	10007604 <_etoa+0x3fc>
10007616:	0010      	movs	r0, r2
10007618:	e704      	b.n	10007424 <_etoa+0x21c>
1000761a:	46c0      	nop			; (mov r8, r8)

1000761c <_ftoa>:
1000761c:	b5f0      	push	{r4, r5, r6, r7, lr}
1000761e:	46de      	mov	lr, fp
10007620:	4657      	mov	r7, sl
10007622:	464e      	mov	r6, r9
10007624:	4645      	mov	r5, r8
10007626:	b5e0      	push	{r5, r6, r7, lr}
10007628:	b095      	sub	sp, #84	; 0x54
1000762a:	9006      	str	r0, [sp, #24]
1000762c:	9107      	str	r1, [sp, #28]
1000762e:	4693      	mov	fp, r2
10007630:	4699      	mov	r9, r3
10007632:	9f20      	ldr	r7, [sp, #128]	; 0x80
10007634:	9a1e      	ldr	r2, [sp, #120]	; 0x78
10007636:	9b1f      	ldr	r3, [sp, #124]	; 0x7c
10007638:	0010      	movs	r0, r2
1000763a:	0019      	movs	r1, r3
1000763c:	f000 ffeb 	bl	10008616 <__wrap___aeabi_dcmpun>
10007640:	2800      	cmp	r0, #0
10007642:	d131      	bne.n	100076a8 <_ftoa+0x8c>
10007644:	2201      	movs	r2, #1
10007646:	4252      	negs	r2, r2
10007648:	4bbf      	ldr	r3, [pc, #764]	; (10007948 <_ftoa+0x32c>)
1000764a:	981e      	ldr	r0, [sp, #120]	; 0x78
1000764c:	991f      	ldr	r1, [sp, #124]	; 0x7c
1000764e:	f000 ffc7 	bl	100085e0 <__wrap___aeabi_dcmplt>
10007652:	2800      	cmp	r0, #0
10007654:	d137      	bne.n	100076c6 <_ftoa+0xaa>
10007656:	2201      	movs	r2, #1
10007658:	4252      	negs	r2, r2
1000765a:	4bbc      	ldr	r3, [pc, #752]	; (1000794c <_ftoa+0x330>)
1000765c:	981e      	ldr	r0, [sp, #120]	; 0x78
1000765e:	991f      	ldr	r1, [sp, #124]	; 0x7c
10007660:	f000 ffd4 	bl	1000860c <__wrap___aeabi_dcmpgt>
10007664:	2800      	cmp	r0, #0
10007666:	d13d      	bne.n	100076e4 <_ftoa+0xc8>
10007668:	2200      	movs	r2, #0
1000766a:	4bb9      	ldr	r3, [pc, #740]	; (10007950 <_ftoa+0x334>)
1000766c:	981e      	ldr	r0, [sp, #120]	; 0x78
1000766e:	991f      	ldr	r1, [sp, #124]	; 0x7c
10007670:	f000 ffcc 	bl	1000860c <__wrap___aeabi_dcmpgt>
10007674:	2800      	cmp	r0, #0
10007676:	d150      	bne.n	1000771a <_ftoa+0xfe>
10007678:	2200      	movs	r2, #0
1000767a:	4bb6      	ldr	r3, [pc, #728]	; (10007954 <_ftoa+0x338>)
1000767c:	981e      	ldr	r0, [sp, #120]	; 0x78
1000767e:	991f      	ldr	r1, [sp, #124]	; 0x7c
10007680:	f000 ffae 	bl	100085e0 <__wrap___aeabi_dcmplt>
10007684:	2800      	cmp	r0, #0
10007686:	d148      	bne.n	1000771a <_ftoa+0xfe>
10007688:	2200      	movs	r2, #0
1000768a:	2300      	movs	r3, #0
1000768c:	981e      	ldr	r0, [sp, #120]	; 0x78
1000768e:	991f      	ldr	r1, [sp, #124]	; 0x7c
10007690:	f000 ffa6 	bl	100085e0 <__wrap___aeabi_dcmplt>
10007694:	2800      	cmp	r0, #0
10007696:	d150      	bne.n	1000773a <_ftoa+0x11e>
10007698:	2300      	movs	r3, #0
1000769a:	4698      	mov	r8, r3
1000769c:	9b22      	ldr	r3, [sp, #136]	; 0x88
1000769e:	055b      	lsls	r3, r3, #21
100076a0:	d400      	bmi.n	100076a4 <_ftoa+0x88>
100076a2:	e0b6      	b.n	10007812 <_ftoa+0x1f6>
100076a4:	2400      	movs	r4, #0
100076a6:	e058      	b.n	1000775a <_ftoa+0x13e>
100076a8:	9b22      	ldr	r3, [sp, #136]	; 0x88
100076aa:	9303      	str	r3, [sp, #12]
100076ac:	9b21      	ldr	r3, [sp, #132]	; 0x84
100076ae:	9302      	str	r3, [sp, #8]
100076b0:	2303      	movs	r3, #3
100076b2:	9301      	str	r3, [sp, #4]
100076b4:	4ba8      	ldr	r3, [pc, #672]	; (10007958 <_ftoa+0x33c>)
100076b6:	9300      	str	r3, [sp, #0]
100076b8:	464b      	mov	r3, r9
100076ba:	465a      	mov	r2, fp
100076bc:	9907      	ldr	r1, [sp, #28]
100076be:	9806      	ldr	r0, [sp, #24]
100076c0:	f7ff fbf2 	bl	10006ea8 <_out_rev>
100076c4:	e10e      	b.n	100078e4 <_ftoa+0x2c8>
100076c6:	9b22      	ldr	r3, [sp, #136]	; 0x88
100076c8:	9303      	str	r3, [sp, #12]
100076ca:	9b21      	ldr	r3, [sp, #132]	; 0x84
100076cc:	9302      	str	r3, [sp, #8]
100076ce:	2304      	movs	r3, #4
100076d0:	9301      	str	r3, [sp, #4]
100076d2:	4ba2      	ldr	r3, [pc, #648]	; (1000795c <_ftoa+0x340>)
100076d4:	9300      	str	r3, [sp, #0]
100076d6:	464b      	mov	r3, r9
100076d8:	465a      	mov	r2, fp
100076da:	9907      	ldr	r1, [sp, #28]
100076dc:	9806      	ldr	r0, [sp, #24]
100076de:	f7ff fbe3 	bl	10006ea8 <_out_rev>
100076e2:	e0ff      	b.n	100078e4 <_ftoa+0x2c8>
100076e4:	2304      	movs	r3, #4
100076e6:	9a22      	ldr	r2, [sp, #136]	; 0x88
100076e8:	401a      	ands	r2, r3
100076ea:	9922      	ldr	r1, [sp, #136]	; 0x88
100076ec:	420b      	tst	r3, r1
100076ee:	d010      	beq.n	10007712 <_ftoa+0xf6>
100076f0:	4b9b      	ldr	r3, [pc, #620]	; (10007960 <_ftoa+0x344>)
100076f2:	2a00      	cmp	r2, #0
100076f4:	d00f      	beq.n	10007716 <_ftoa+0xfa>
100076f6:	2204      	movs	r2, #4
100076f8:	9922      	ldr	r1, [sp, #136]	; 0x88
100076fa:	9103      	str	r1, [sp, #12]
100076fc:	9921      	ldr	r1, [sp, #132]	; 0x84
100076fe:	9102      	str	r1, [sp, #8]
10007700:	9201      	str	r2, [sp, #4]
10007702:	9300      	str	r3, [sp, #0]
10007704:	464b      	mov	r3, r9
10007706:	465a      	mov	r2, fp
10007708:	9907      	ldr	r1, [sp, #28]
1000770a:	9806      	ldr	r0, [sp, #24]
1000770c:	f7ff fbcc 	bl	10006ea8 <_out_rev>
10007710:	e0e8      	b.n	100078e4 <_ftoa+0x2c8>
10007712:	4b94      	ldr	r3, [pc, #592]	; (10007964 <_ftoa+0x348>)
10007714:	e7ed      	b.n	100076f2 <_ftoa+0xd6>
10007716:	2203      	movs	r2, #3
10007718:	e7ee      	b.n	100076f8 <_ftoa+0xdc>
1000771a:	9b22      	ldr	r3, [sp, #136]	; 0x88
1000771c:	9304      	str	r3, [sp, #16]
1000771e:	9b21      	ldr	r3, [sp, #132]	; 0x84
10007720:	9303      	str	r3, [sp, #12]
10007722:	9702      	str	r7, [sp, #8]
10007724:	9b1e      	ldr	r3, [sp, #120]	; 0x78
10007726:	9c1f      	ldr	r4, [sp, #124]	; 0x7c
10007728:	9300      	str	r3, [sp, #0]
1000772a:	9401      	str	r4, [sp, #4]
1000772c:	464b      	mov	r3, r9
1000772e:	465a      	mov	r2, fp
10007730:	9907      	ldr	r1, [sp, #28]
10007732:	9806      	ldr	r0, [sp, #24]
10007734:	f7ff fd68 	bl	10007208 <_etoa>
10007738:	e0d4      	b.n	100078e4 <_ftoa+0x2c8>
1000773a:	9a1e      	ldr	r2, [sp, #120]	; 0x78
1000773c:	9b1f      	ldr	r3, [sp, #124]	; 0x7c
1000773e:	2000      	movs	r0, #0
10007740:	2100      	movs	r1, #0
10007742:	f000 feea 	bl	1000851a <__wrap___aeabi_dsub>
10007746:	901e      	str	r0, [sp, #120]	; 0x78
10007748:	911f      	str	r1, [sp, #124]	; 0x7c
1000774a:	2301      	movs	r3, #1
1000774c:	4698      	mov	r8, r3
1000774e:	e7a5      	b.n	1000769c <_ftoa+0x80>
10007750:	ab0c      	add	r3, sp, #48	; 0x30
10007752:	2230      	movs	r2, #48	; 0x30
10007754:	551a      	strb	r2, [r3, r4]
10007756:	3f01      	subs	r7, #1
10007758:	3401      	adds	r4, #1
1000775a:	2c1f      	cmp	r4, #31
1000775c:	d801      	bhi.n	10007762 <_ftoa+0x146>
1000775e:	2f09      	cmp	r7, #9
10007760:	d8f6      	bhi.n	10007750 <_ftoa+0x134>
10007762:	981e      	ldr	r0, [sp, #120]	; 0x78
10007764:	991f      	ldr	r1, [sp, #124]	; 0x7c
10007766:	f000 ff81 	bl	1000866c <__wrap___aeabi_d2iz>
1000776a:	0005      	movs	r5, r0
1000776c:	f000 ff66 	bl	1000863c <__wrap___aeabi_i2d>
10007770:	0002      	movs	r2, r0
10007772:	000b      	movs	r3, r1
10007774:	981e      	ldr	r0, [sp, #120]	; 0x78
10007776:	991f      	ldr	r1, [sp, #124]	; 0x7c
10007778:	f000 fecf 	bl	1000851a <__wrap___aeabi_dsub>
1000777c:	00fa      	lsls	r2, r7, #3
1000777e:	4b7a      	ldr	r3, [pc, #488]	; (10007968 <_ftoa+0x34c>)
10007780:	189b      	adds	r3, r3, r2
10007782:	681a      	ldr	r2, [r3, #0]
10007784:	685b      	ldr	r3, [r3, #4]
10007786:	920a      	str	r2, [sp, #40]	; 0x28
10007788:	930b      	str	r3, [sp, #44]	; 0x2c
1000778a:	f000 feea 	bl	10008562 <__wrap___aeabi_dmul>
1000778e:	9008      	str	r0, [sp, #32]
10007790:	9109      	str	r1, [sp, #36]	; 0x24
10007792:	f000 ff8f 	bl	100086b4 <__wrap___aeabi_d2uiz>
10007796:	0006      	movs	r6, r0
10007798:	f000 ff4c 	bl	10008634 <__wrap___aeabi_ui2d>
1000779c:	0002      	movs	r2, r0
1000779e:	000b      	movs	r3, r1
100077a0:	9808      	ldr	r0, [sp, #32]
100077a2:	9909      	ldr	r1, [sp, #36]	; 0x24
100077a4:	f000 feb9 	bl	1000851a <__wrap___aeabi_dsub>
100077a8:	9008      	str	r0, [sp, #32]
100077aa:	9109      	str	r1, [sp, #36]	; 0x24
100077ac:	2200      	movs	r2, #0
100077ae:	4b6f      	ldr	r3, [pc, #444]	; (1000796c <_ftoa+0x350>)
100077b0:	f000 ff2c 	bl	1000860c <__wrap___aeabi_dcmpgt>
100077b4:	2800      	cmp	r0, #0
100077b6:	d02e      	beq.n	10007816 <_ftoa+0x1fa>
100077b8:	3601      	adds	r6, #1
100077ba:	0030      	movs	r0, r6
100077bc:	f000 ff3a 	bl	10008634 <__wrap___aeabi_ui2d>
100077c0:	0002      	movs	r2, r0
100077c2:	000b      	movs	r3, r1
100077c4:	980a      	ldr	r0, [sp, #40]	; 0x28
100077c6:	990b      	ldr	r1, [sp, #44]	; 0x2c
100077c8:	f000 ff10 	bl	100085ec <__wrap___aeabi_dcmple>
100077cc:	2800      	cmp	r0, #0
100077ce:	d001      	beq.n	100077d4 <_ftoa+0x1b8>
100077d0:	3501      	adds	r5, #1
100077d2:	2600      	movs	r6, #0
100077d4:	2f00      	cmp	r7, #0
100077d6:	d12c      	bne.n	10007832 <_ftoa+0x216>
100077d8:	0028      	movs	r0, r5
100077da:	f000 ff2f 	bl	1000863c <__wrap___aeabi_i2d>
100077de:	0002      	movs	r2, r0
100077e0:	000b      	movs	r3, r1
100077e2:	981e      	ldr	r0, [sp, #120]	; 0x78
100077e4:	991f      	ldr	r1, [sp, #124]	; 0x7c
100077e6:	f000 fe98 	bl	1000851a <__wrap___aeabi_dsub>
100077ea:	0006      	movs	r6, r0
100077ec:	000f      	movs	r7, r1
100077ee:	2200      	movs	r2, #0
100077f0:	4b5e      	ldr	r3, [pc, #376]	; (1000796c <_ftoa+0x350>)
100077f2:	f000 fef5 	bl	100085e0 <__wrap___aeabi_dcmplt>
100077f6:	2800      	cmp	r0, #0
100077f8:	d146      	bne.n	10007888 <_ftoa+0x26c>
100077fa:	2200      	movs	r2, #0
100077fc:	4b5b      	ldr	r3, [pc, #364]	; (1000796c <_ftoa+0x350>)
100077fe:	0030      	movs	r0, r6
10007800:	0039      	movs	r1, r7
10007802:	f000 ff03 	bl	1000860c <__wrap___aeabi_dcmpgt>
10007806:	2800      	cmp	r0, #0
10007808:	d13e      	bne.n	10007888 <_ftoa+0x26c>
1000780a:	07eb      	lsls	r3, r5, #31
1000780c:	d53c      	bpl.n	10007888 <_ftoa+0x26c>
1000780e:	3501      	adds	r5, #1
10007810:	e03a      	b.n	10007888 <_ftoa+0x26c>
10007812:	2706      	movs	r7, #6
10007814:	e746      	b.n	100076a4 <_ftoa+0x88>
10007816:	2200      	movs	r2, #0
10007818:	4b54      	ldr	r3, [pc, #336]	; (1000796c <_ftoa+0x350>)
1000781a:	9808      	ldr	r0, [sp, #32]
1000781c:	9909      	ldr	r1, [sp, #36]	; 0x24
1000781e:	f000 fedf 	bl	100085e0 <__wrap___aeabi_dcmplt>
10007822:	2800      	cmp	r0, #0
10007824:	d1d6      	bne.n	100077d4 <_ftoa+0x1b8>
10007826:	2e00      	cmp	r6, #0
10007828:	d001      	beq.n	1000782e <_ftoa+0x212>
1000782a:	07f3      	lsls	r3, r6, #31
1000782c:	d5d2      	bpl.n	100077d4 <_ftoa+0x1b8>
1000782e:	3601      	adds	r6, #1
10007830:	e7d0      	b.n	100077d4 <_ftoa+0x1b8>
10007832:	46aa      	mov	sl, r5
10007834:	2c1f      	cmp	r4, #31
10007836:	d811      	bhi.n	1000785c <_ftoa+0x240>
10007838:	3f01      	subs	r7, #1
1000783a:	210a      	movs	r1, #10
1000783c:	0030      	movs	r0, r6
1000783e:	f000 fc29 	bl	10008094 <__wrap___aeabi_uidiv>
10007842:	1c65      	adds	r5, r4, #1
10007844:	3130      	adds	r1, #48	; 0x30
10007846:	ab0c      	add	r3, sp, #48	; 0x30
10007848:	5519      	strb	r1, [r3, r4]
1000784a:	210a      	movs	r1, #10
1000784c:	0030      	movs	r0, r6
1000784e:	f000 fc21 	bl	10008094 <__wrap___aeabi_uidiv>
10007852:	2e09      	cmp	r6, #9
10007854:	d90e      	bls.n	10007874 <_ftoa+0x258>
10007856:	0006      	movs	r6, r0
10007858:	002c      	movs	r4, r5
1000785a:	e7eb      	b.n	10007834 <_ftoa+0x218>
1000785c:	4655      	mov	r5, sl
1000785e:	2c1f      	cmp	r4, #31
10007860:	d80c      	bhi.n	1000787c <_ftoa+0x260>
10007862:	1e7b      	subs	r3, r7, #1
10007864:	2f00      	cmp	r7, #0
10007866:	d009      	beq.n	1000787c <_ftoa+0x260>
10007868:	aa0c      	add	r2, sp, #48	; 0x30
1000786a:	2130      	movs	r1, #48	; 0x30
1000786c:	5511      	strb	r1, [r2, r4]
1000786e:	001f      	movs	r7, r3
10007870:	3401      	adds	r4, #1
10007872:	e7f4      	b.n	1000785e <_ftoa+0x242>
10007874:	002b      	movs	r3, r5
10007876:	4655      	mov	r5, sl
10007878:	001c      	movs	r4, r3
1000787a:	e7f0      	b.n	1000785e <_ftoa+0x242>
1000787c:	2c1f      	cmp	r4, #31
1000787e:	d803      	bhi.n	10007888 <_ftoa+0x26c>
10007880:	ab0c      	add	r3, sp, #48	; 0x30
10007882:	222e      	movs	r2, #46	; 0x2e
10007884:	551a      	strb	r2, [r3, r4]
10007886:	3401      	adds	r4, #1
10007888:	2c1f      	cmp	r4, #31
1000788a:	d810      	bhi.n	100078ae <_ftoa+0x292>
1000788c:	210a      	movs	r1, #10
1000788e:	0028      	movs	r0, r5
10007890:	f000 fbd8 	bl	10008044 <__wrap___aeabi_idiv>
10007894:	1c66      	adds	r6, r4, #1
10007896:	3130      	adds	r1, #48	; 0x30
10007898:	ab0c      	add	r3, sp, #48	; 0x30
1000789a:	5519      	strb	r1, [r3, r4]
1000789c:	210a      	movs	r1, #10
1000789e:	0028      	movs	r0, r5
100078a0:	f000 fbd0 	bl	10008044 <__wrap___aeabi_idiv>
100078a4:	1e05      	subs	r5, r0, #0
100078a6:	d001      	beq.n	100078ac <_ftoa+0x290>
100078a8:	0034      	movs	r4, r6
100078aa:	e7ed      	b.n	10007888 <_ftoa+0x26c>
100078ac:	0034      	movs	r4, r6
100078ae:	2303      	movs	r3, #3
100078b0:	9a22      	ldr	r2, [sp, #136]	; 0x88
100078b2:	4013      	ands	r3, r2
100078b4:	2b01      	cmp	r3, #1
100078b6:	d01c      	beq.n	100078f2 <_ftoa+0x2d6>
100078b8:	2c1f      	cmp	r4, #31
100078ba:	d806      	bhi.n	100078ca <_ftoa+0x2ae>
100078bc:	4643      	mov	r3, r8
100078be:	2b00      	cmp	r3, #0
100078c0:	d032      	beq.n	10007928 <_ftoa+0x30c>
100078c2:	ab0c      	add	r3, sp, #48	; 0x30
100078c4:	222d      	movs	r2, #45	; 0x2d
100078c6:	551a      	strb	r2, [r3, r4]
100078c8:	3401      	adds	r4, #1
100078ca:	9b22      	ldr	r3, [sp, #136]	; 0x88
100078cc:	9303      	str	r3, [sp, #12]
100078ce:	9b21      	ldr	r3, [sp, #132]	; 0x84
100078d0:	9302      	str	r3, [sp, #8]
100078d2:	9401      	str	r4, [sp, #4]
100078d4:	ab0c      	add	r3, sp, #48	; 0x30
100078d6:	9300      	str	r3, [sp, #0]
100078d8:	464b      	mov	r3, r9
100078da:	465a      	mov	r2, fp
100078dc:	9907      	ldr	r1, [sp, #28]
100078de:	9806      	ldr	r0, [sp, #24]
100078e0:	f7ff fae2 	bl	10006ea8 <_out_rev>
100078e4:	b015      	add	sp, #84	; 0x54
100078e6:	bcf0      	pop	{r4, r5, r6, r7}
100078e8:	46bb      	mov	fp, r7
100078ea:	46b2      	mov	sl, r6
100078ec:	46a9      	mov	r9, r5
100078ee:	46a0      	mov	r8, r4
100078f0:	bdf0      	pop	{r4, r5, r6, r7, pc}
100078f2:	9b21      	ldr	r3, [sp, #132]	; 0x84
100078f4:	2b00      	cmp	r3, #0
100078f6:	d013      	beq.n	10007920 <_ftoa+0x304>
100078f8:	4643      	mov	r3, r8
100078fa:	2b00      	cmp	r3, #0
100078fc:	d102      	bne.n	10007904 <_ftoa+0x2e8>
100078fe:	330c      	adds	r3, #12
10007900:	4213      	tst	r3, r2
10007902:	d00f      	beq.n	10007924 <_ftoa+0x308>
10007904:	9b21      	ldr	r3, [sp, #132]	; 0x84
10007906:	3b01      	subs	r3, #1
10007908:	9321      	str	r3, [sp, #132]	; 0x84
1000790a:	0019      	movs	r1, r3
1000790c:	e003      	b.n	10007916 <_ftoa+0x2fa>
1000790e:	ab0c      	add	r3, sp, #48	; 0x30
10007910:	2230      	movs	r2, #48	; 0x30
10007912:	551a      	strb	r2, [r3, r4]
10007914:	3401      	adds	r4, #1
10007916:	428c      	cmp	r4, r1
10007918:	d2ce      	bcs.n	100078b8 <_ftoa+0x29c>
1000791a:	2c1f      	cmp	r4, #31
1000791c:	d9f7      	bls.n	1000790e <_ftoa+0x2f2>
1000791e:	e7cb      	b.n	100078b8 <_ftoa+0x29c>
10007920:	9921      	ldr	r1, [sp, #132]	; 0x84
10007922:	e7f8      	b.n	10007916 <_ftoa+0x2fa>
10007924:	9921      	ldr	r1, [sp, #132]	; 0x84
10007926:	e7f6      	b.n	10007916 <_ftoa+0x2fa>
10007928:	9b22      	ldr	r3, [sp, #136]	; 0x88
1000792a:	075b      	lsls	r3, r3, #29
1000792c:	d504      	bpl.n	10007938 <_ftoa+0x31c>
1000792e:	ab0c      	add	r3, sp, #48	; 0x30
10007930:	222b      	movs	r2, #43	; 0x2b
10007932:	551a      	strb	r2, [r3, r4]
10007934:	3401      	adds	r4, #1
10007936:	e7c8      	b.n	100078ca <_ftoa+0x2ae>
10007938:	9b22      	ldr	r3, [sp, #136]	; 0x88
1000793a:	071b      	lsls	r3, r3, #28
1000793c:	d5c5      	bpl.n	100078ca <_ftoa+0x2ae>
1000793e:	ab0c      	add	r3, sp, #48	; 0x30
10007940:	2220      	movs	r2, #32
10007942:	551a      	strb	r2, [r3, r4]
10007944:	3401      	adds	r4, #1
10007946:	e7c0      	b.n	100078ca <_ftoa+0x2ae>
10007948:	ffefffff 	.word	0xffefffff
1000794c:	7fefffff 	.word	0x7fefffff
10007950:	41cdcd65 	.word	0x41cdcd65
10007954:	c1cdcd65 	.word	0xc1cdcd65
10007958:	1000a5b0 	.word	0x1000a5b0
1000795c:	1000a5b4 	.word	0x1000a5b4
10007960:	1000a5a8 	.word	0x1000a5a8
10007964:	1000a5a4 	.word	0x1000a5a4
10007968:	1000a7a0 	.word	0x1000a7a0
1000796c:	3fe00000 	.word	0x3fe00000

10007970 <_vsnprintf>:
10007970:	b5f0      	push	{r4, r5, r6, r7, lr}
10007972:	46de      	mov	lr, fp
10007974:	4657      	mov	r7, sl
10007976:	464e      	mov	r6, r9
10007978:	4645      	mov	r5, r8
1000797a:	b5e0      	push	{r5, r6, r7, lr}
1000797c:	b093      	sub	sp, #76	; 0x4c
1000797e:	4682      	mov	sl, r0
10007980:	468b      	mov	fp, r1
10007982:	4690      	mov	r8, r2
10007984:	9311      	str	r3, [sp, #68]	; 0x44
10007986:	2900      	cmp	r1, #0
10007988:	d100      	bne.n	1000798c <_vsnprintf+0x1c>
1000798a:	e2eb      	b.n	10007f64 <_vsnprintf+0x5f4>
1000798c:	2700      	movs	r7, #0
1000798e:	4655      	mov	r5, sl
10007990:	9b11      	ldr	r3, [sp, #68]	; 0x44
10007992:	7818      	ldrb	r0, [r3, #0]
10007994:	2800      	cmp	r0, #0
10007996:	d100      	bne.n	1000799a <_vsnprintf+0x2a>
10007998:	e2e7      	b.n	10007f6a <_vsnprintf+0x5fa>
1000799a:	2825      	cmp	r0, #37	; 0x25
1000799c:	d009      	beq.n	100079b2 <_vsnprintf+0x42>
1000799e:	1c7c      	adds	r4, r7, #1
100079a0:	4643      	mov	r3, r8
100079a2:	003a      	movs	r2, r7
100079a4:	4659      	mov	r1, fp
100079a6:	47a8      	blx	r5
100079a8:	9b11      	ldr	r3, [sp, #68]	; 0x44
100079aa:	3301      	adds	r3, #1
100079ac:	9311      	str	r3, [sp, #68]	; 0x44
100079ae:	0027      	movs	r7, r4
100079b0:	e7ee      	b.n	10007990 <_vsnprintf+0x20>
100079b2:	3301      	adds	r3, #1
100079b4:	9311      	str	r3, [sp, #68]	; 0x44
100079b6:	2400      	movs	r4, #0
100079b8:	9a11      	ldr	r2, [sp, #68]	; 0x44
100079ba:	7811      	ldrb	r1, [r2, #0]
100079bc:	000b      	movs	r3, r1
100079be:	3b20      	subs	r3, #32
100079c0:	b2d8      	uxtb	r0, r3
100079c2:	2810      	cmp	r0, #16
100079c4:	d803      	bhi.n	100079ce <_vsnprintf+0x5e>
100079c6:	0083      	lsls	r3, r0, #2
100079c8:	48d0      	ldr	r0, [pc, #832]	; (10007d0c <_vsnprintf+0x39c>)
100079ca:	58c3      	ldr	r3, [r0, r3]
100079cc:	469f      	mov	pc, r3
100079ce:	000b      	movs	r3, r1
100079d0:	3b30      	subs	r3, #48	; 0x30
100079d2:	b2db      	uxtb	r3, r3
100079d4:	2b09      	cmp	r3, #9
100079d6:	d92c      	bls.n	10007a32 <_vsnprintf+0xc2>
100079d8:	292a      	cmp	r1, #42	; 0x2a
100079da:	d02f      	beq.n	10007a3c <_vsnprintf+0xcc>
100079dc:	2300      	movs	r3, #0
100079de:	930a      	str	r3, [sp, #40]	; 0x28
100079e0:	9b11      	ldr	r3, [sp, #68]	; 0x44
100079e2:	781a      	ldrb	r2, [r3, #0]
100079e4:	2a2e      	cmp	r2, #46	; 0x2e
100079e6:	d039      	beq.n	10007a5c <_vsnprintf+0xec>
100079e8:	2300      	movs	r3, #0
100079ea:	469a      	mov	sl, r3
100079ec:	9a11      	ldr	r2, [sp, #68]	; 0x44
100079ee:	7813      	ldrb	r3, [r2, #0]
100079f0:	3b68      	subs	r3, #104	; 0x68
100079f2:	b2d9      	uxtb	r1, r3
100079f4:	2912      	cmp	r1, #18
100079f6:	d876      	bhi.n	10007ae6 <_vsnprintf+0x176>
100079f8:	008b      	lsls	r3, r1, #2
100079fa:	49c5      	ldr	r1, [pc, #788]	; (10007d10 <_vsnprintf+0x3a0>)
100079fc:	58cb      	ldr	r3, [r1, r3]
100079fe:	469f      	mov	pc, r3
10007a00:	2301      	movs	r3, #1
10007a02:	431c      	orrs	r4, r3
10007a04:	3201      	adds	r2, #1
10007a06:	9211      	str	r2, [sp, #68]	; 0x44
10007a08:	e7d6      	b.n	100079b8 <_vsnprintf+0x48>
10007a0a:	2302      	movs	r3, #2
10007a0c:	431c      	orrs	r4, r3
10007a0e:	3201      	adds	r2, #1
10007a10:	9211      	str	r2, [sp, #68]	; 0x44
10007a12:	e7d1      	b.n	100079b8 <_vsnprintf+0x48>
10007a14:	2304      	movs	r3, #4
10007a16:	431c      	orrs	r4, r3
10007a18:	3201      	adds	r2, #1
10007a1a:	9211      	str	r2, [sp, #68]	; 0x44
10007a1c:	e7cc      	b.n	100079b8 <_vsnprintf+0x48>
10007a1e:	2308      	movs	r3, #8
10007a20:	431c      	orrs	r4, r3
10007a22:	3201      	adds	r2, #1
10007a24:	9211      	str	r2, [sp, #68]	; 0x44
10007a26:	e7c7      	b.n	100079b8 <_vsnprintf+0x48>
10007a28:	2310      	movs	r3, #16
10007a2a:	431c      	orrs	r4, r3
10007a2c:	3201      	adds	r2, #1
10007a2e:	9211      	str	r2, [sp, #68]	; 0x44
10007a30:	e7c2      	b.n	100079b8 <_vsnprintf+0x48>
10007a32:	a811      	add	r0, sp, #68	; 0x44
10007a34:	f7ff fa26 	bl	10006e84 <_atoi>
10007a38:	900a      	str	r0, [sp, #40]	; 0x28
10007a3a:	e7d1      	b.n	100079e0 <_vsnprintf+0x70>
10007a3c:	9b1c      	ldr	r3, [sp, #112]	; 0x70
10007a3e:	1d1a      	adds	r2, r3, #4
10007a40:	921c      	str	r2, [sp, #112]	; 0x70
10007a42:	6818      	ldr	r0, [r3, #0]
10007a44:	2800      	cmp	r0, #0
10007a46:	db04      	blt.n	10007a52 <_vsnprintf+0xe2>
10007a48:	900a      	str	r0, [sp, #40]	; 0x28
10007a4a:	9b11      	ldr	r3, [sp, #68]	; 0x44
10007a4c:	3301      	adds	r3, #1
10007a4e:	9311      	str	r3, [sp, #68]	; 0x44
10007a50:	e7c6      	b.n	100079e0 <_vsnprintf+0x70>
10007a52:	2302      	movs	r3, #2
10007a54:	431c      	orrs	r4, r3
10007a56:	4243      	negs	r3, r0
10007a58:	930a      	str	r3, [sp, #40]	; 0x28
10007a5a:	e7f6      	b.n	10007a4a <_vsnprintf+0xda>
10007a5c:	2280      	movs	r2, #128	; 0x80
10007a5e:	00d2      	lsls	r2, r2, #3
10007a60:	4314      	orrs	r4, r2
10007a62:	1c5a      	adds	r2, r3, #1
10007a64:	9211      	str	r2, [sp, #68]	; 0x44
10007a66:	785a      	ldrb	r2, [r3, #1]
10007a68:	0013      	movs	r3, r2
10007a6a:	3b30      	subs	r3, #48	; 0x30
10007a6c:	b2db      	uxtb	r3, r3
10007a6e:	2b09      	cmp	r3, #9
10007a70:	d904      	bls.n	10007a7c <_vsnprintf+0x10c>
10007a72:	2a2a      	cmp	r2, #42	; 0x2a
10007a74:	d007      	beq.n	10007a86 <_vsnprintf+0x116>
10007a76:	2300      	movs	r3, #0
10007a78:	469a      	mov	sl, r3
10007a7a:	e7b7      	b.n	100079ec <_vsnprintf+0x7c>
10007a7c:	a811      	add	r0, sp, #68	; 0x44
10007a7e:	f7ff fa01 	bl	10006e84 <_atoi>
10007a82:	4682      	mov	sl, r0
10007a84:	e7b2      	b.n	100079ec <_vsnprintf+0x7c>
10007a86:	9b1c      	ldr	r3, [sp, #112]	; 0x70
10007a88:	1d1a      	adds	r2, r3, #4
10007a8a:	921c      	str	r2, [sp, #112]	; 0x70
10007a8c:	6818      	ldr	r0, [r3, #0]
10007a8e:	2800      	cmp	r0, #0
10007a90:	db04      	blt.n	10007a9c <_vsnprintf+0x12c>
10007a92:	4682      	mov	sl, r0
10007a94:	9b11      	ldr	r3, [sp, #68]	; 0x44
10007a96:	3301      	adds	r3, #1
10007a98:	9311      	str	r3, [sp, #68]	; 0x44
10007a9a:	e7a7      	b.n	100079ec <_vsnprintf+0x7c>
10007a9c:	2000      	movs	r0, #0
10007a9e:	e7f8      	b.n	10007a92 <_vsnprintf+0x122>
10007aa0:	2380      	movs	r3, #128	; 0x80
10007aa2:	005b      	lsls	r3, r3, #1
10007aa4:	4323      	orrs	r3, r4
10007aa6:	1c51      	adds	r1, r2, #1
10007aa8:	9111      	str	r1, [sp, #68]	; 0x44
10007aaa:	7852      	ldrb	r2, [r2, #1]
10007aac:	2a6c      	cmp	r2, #108	; 0x6c
10007aae:	d001      	beq.n	10007ab4 <_vsnprintf+0x144>
10007ab0:	001c      	movs	r4, r3
10007ab2:	e018      	b.n	10007ae6 <_vsnprintf+0x176>
10007ab4:	23c0      	movs	r3, #192	; 0xc0
10007ab6:	009b      	lsls	r3, r3, #2
10007ab8:	431c      	orrs	r4, r3
10007aba:	3101      	adds	r1, #1
10007abc:	9111      	str	r1, [sp, #68]	; 0x44
10007abe:	e012      	b.n	10007ae6 <_vsnprintf+0x176>
10007ac0:	2380      	movs	r3, #128	; 0x80
10007ac2:	4323      	orrs	r3, r4
10007ac4:	1c51      	adds	r1, r2, #1
10007ac6:	9111      	str	r1, [sp, #68]	; 0x44
10007ac8:	7852      	ldrb	r2, [r2, #1]
10007aca:	2a68      	cmp	r2, #104	; 0x68
10007acc:	d001      	beq.n	10007ad2 <_vsnprintf+0x162>
10007ace:	001c      	movs	r4, r3
10007ad0:	e009      	b.n	10007ae6 <_vsnprintf+0x176>
10007ad2:	23c0      	movs	r3, #192	; 0xc0
10007ad4:	431c      	orrs	r4, r3
10007ad6:	3101      	adds	r1, #1
10007ad8:	9111      	str	r1, [sp, #68]	; 0x44
10007ada:	e004      	b.n	10007ae6 <_vsnprintf+0x176>
10007adc:	2380      	movs	r3, #128	; 0x80
10007ade:	005b      	lsls	r3, r3, #1
10007ae0:	431c      	orrs	r4, r3
10007ae2:	3201      	adds	r2, #1
10007ae4:	9211      	str	r2, [sp, #68]	; 0x44
10007ae6:	9b11      	ldr	r3, [sp, #68]	; 0x44
10007ae8:	7818      	ldrb	r0, [r3, #0]
10007aea:	0003      	movs	r3, r0
10007aec:	3b25      	subs	r3, #37	; 0x25
10007aee:	b2da      	uxtb	r2, r3
10007af0:	2a53      	cmp	r2, #83	; 0x53
10007af2:	d900      	bls.n	10007af6 <_vsnprintf+0x186>
10007af4:	e22c      	b.n	10007f50 <_vsnprintf+0x5e0>
10007af6:	0093      	lsls	r3, r2, #2
10007af8:	4a86      	ldr	r2, [pc, #536]	; (10007d14 <_vsnprintf+0x3a4>)
10007afa:	58d3      	ldr	r3, [r2, r3]
10007afc:	469f      	mov	pc, r3
10007afe:	2380      	movs	r3, #128	; 0x80
10007b00:	009b      	lsls	r3, r3, #2
10007b02:	431c      	orrs	r4, r3
10007b04:	3201      	adds	r2, #1
10007b06:	9211      	str	r2, [sp, #68]	; 0x44
10007b08:	e7ed      	b.n	10007ae6 <_vsnprintf+0x176>
10007b0a:	2380      	movs	r3, #128	; 0x80
10007b0c:	005b      	lsls	r3, r3, #1
10007b0e:	431c      	orrs	r4, r3
10007b10:	3201      	adds	r2, #1
10007b12:	9211      	str	r2, [sp, #68]	; 0x44
10007b14:	e7e7      	b.n	10007ae6 <_vsnprintf+0x176>
10007b16:	2878      	cmp	r0, #120	; 0x78
10007b18:	d009      	beq.n	10007b2e <_vsnprintf+0x1be>
10007b1a:	2858      	cmp	r0, #88	; 0x58
10007b1c:	d038      	beq.n	10007b90 <_vsnprintf+0x220>
10007b1e:	286f      	cmp	r0, #111	; 0x6f
10007b20:	d038      	beq.n	10007b94 <_vsnprintf+0x224>
10007b22:	2862      	cmp	r0, #98	; 0x62
10007b24:	d038      	beq.n	10007b98 <_vsnprintf+0x228>
10007b26:	2310      	movs	r3, #16
10007b28:	439c      	bics	r4, r3
10007b2a:	260a      	movs	r6, #10
10007b2c:	e000      	b.n	10007b30 <_vsnprintf+0x1c0>
10007b2e:	2610      	movs	r6, #16
10007b30:	2858      	cmp	r0, #88	; 0x58
10007b32:	d033      	beq.n	10007b9c <_vsnprintf+0x22c>
10007b34:	2869      	cmp	r0, #105	; 0x69
10007b36:	d003      	beq.n	10007b40 <_vsnprintf+0x1d0>
10007b38:	2864      	cmp	r0, #100	; 0x64
10007b3a:	d001      	beq.n	10007b40 <_vsnprintf+0x1d0>
10007b3c:	220c      	movs	r2, #12
10007b3e:	4394      	bics	r4, r2
10007b40:	0563      	lsls	r3, r4, #21
10007b42:	d501      	bpl.n	10007b48 <_vsnprintf+0x1d8>
10007b44:	2201      	movs	r2, #1
10007b46:	4394      	bics	r4, r2
10007b48:	2869      	cmp	r0, #105	; 0x69
10007b4a:	d02a      	beq.n	10007ba2 <_vsnprintf+0x232>
10007b4c:	2864      	cmp	r0, #100	; 0x64
10007b4e:	d028      	beq.n	10007ba2 <_vsnprintf+0x232>
10007b50:	05a3      	lsls	r3, r4, #22
10007b52:	d500      	bpl.n	10007b56 <_vsnprintf+0x1e6>
10007b54:	e09f      	b.n	10007c96 <_vsnprintf+0x326>
10007b56:	05e3      	lsls	r3, r4, #23
10007b58:	d500      	bpl.n	10007b5c <_vsnprintf+0x1ec>
10007b5a:	e0b8      	b.n	10007cce <_vsnprintf+0x35e>
10007b5c:	0663      	lsls	r3, r4, #25
10007b5e:	d400      	bmi.n	10007b62 <_vsnprintf+0x1f2>
10007b60:	e0ca      	b.n	10007cf8 <_vsnprintf+0x388>
10007b62:	9a1c      	ldr	r2, [sp, #112]	; 0x70
10007b64:	1d11      	adds	r1, r2, #4
10007b66:	911c      	str	r1, [sp, #112]	; 0x70
10007b68:	6811      	ldr	r1, [r2, #0]
10007b6a:	22ff      	movs	r2, #255	; 0xff
10007b6c:	400a      	ands	r2, r1
10007b6e:	9405      	str	r4, [sp, #20]
10007b70:	9b0a      	ldr	r3, [sp, #40]	; 0x28
10007b72:	9304      	str	r3, [sp, #16]
10007b74:	4653      	mov	r3, sl
10007b76:	9303      	str	r3, [sp, #12]
10007b78:	9602      	str	r6, [sp, #8]
10007b7a:	2300      	movs	r3, #0
10007b7c:	9301      	str	r3, [sp, #4]
10007b7e:	9200      	str	r2, [sp, #0]
10007b80:	4643      	mov	r3, r8
10007b82:	003a      	movs	r2, r7
10007b84:	4659      	mov	r1, fp
10007b86:	0028      	movs	r0, r5
10007b88:	f7ff fa6e 	bl	10007068 <_ntoa_long>
10007b8c:	0007      	movs	r7, r0
10007b8e:	e027      	b.n	10007be0 <_vsnprintf+0x270>
10007b90:	2610      	movs	r6, #16
10007b92:	e7cd      	b.n	10007b30 <_vsnprintf+0x1c0>
10007b94:	2608      	movs	r6, #8
10007b96:	e7cb      	b.n	10007b30 <_vsnprintf+0x1c0>
10007b98:	2602      	movs	r6, #2
10007b9a:	e7c9      	b.n	10007b30 <_vsnprintf+0x1c0>
10007b9c:	2220      	movs	r2, #32
10007b9e:	4314      	orrs	r4, r2
10007ba0:	e7c8      	b.n	10007b34 <_vsnprintf+0x1c4>
10007ba2:	05a3      	lsls	r3, r4, #22
10007ba4:	d420      	bmi.n	10007be8 <_vsnprintf+0x278>
10007ba6:	05e3      	lsls	r3, r4, #23
10007ba8:	d450      	bmi.n	10007c4c <_vsnprintf+0x2dc>
10007baa:	0663      	lsls	r3, r4, #25
10007bac:	d566      	bpl.n	10007c7c <_vsnprintf+0x30c>
10007bae:	9a1c      	ldr	r2, [sp, #112]	; 0x70
10007bb0:	1d11      	adds	r1, r2, #4
10007bb2:	911c      	str	r1, [sp, #112]	; 0x70
10007bb4:	6811      	ldr	r1, [r2, #0]
10007bb6:	22ff      	movs	r2, #255	; 0xff
10007bb8:	400a      	ands	r2, r1
10007bba:	17d3      	asrs	r3, r2, #31
10007bbc:	18d1      	adds	r1, r2, r3
10007bbe:	4059      	eors	r1, r3
10007bc0:	9405      	str	r4, [sp, #20]
10007bc2:	9b0a      	ldr	r3, [sp, #40]	; 0x28
10007bc4:	9304      	str	r3, [sp, #16]
10007bc6:	4653      	mov	r3, sl
10007bc8:	9303      	str	r3, [sp, #12]
10007bca:	9602      	str	r6, [sp, #8]
10007bcc:	0fd2      	lsrs	r2, r2, #31
10007bce:	9201      	str	r2, [sp, #4]
10007bd0:	9100      	str	r1, [sp, #0]
10007bd2:	4643      	mov	r3, r8
10007bd4:	003a      	movs	r2, r7
10007bd6:	4659      	mov	r1, fp
10007bd8:	0028      	movs	r0, r5
10007bda:	f7ff fa45 	bl	10007068 <_ntoa_long>
10007bde:	0007      	movs	r7, r0
10007be0:	9b11      	ldr	r3, [sp, #68]	; 0x44
10007be2:	3301      	adds	r3, #1
10007be4:	9311      	str	r3, [sp, #68]	; 0x44
10007be6:	e6d3      	b.n	10007990 <_vsnprintf+0x20>
10007be8:	9b1c      	ldr	r3, [sp, #112]	; 0x70
10007bea:	1dda      	adds	r2, r3, #7
10007bec:	2107      	movs	r1, #7
10007bee:	438a      	bics	r2, r1
10007bf0:	0011      	movs	r1, r2
10007bf2:	3108      	adds	r1, #8
10007bf4:	911c      	str	r1, [sp, #112]	; 0x70
10007bf6:	6811      	ldr	r1, [r2, #0]
10007bf8:	6853      	ldr	r3, [r2, #4]
10007bfa:	469c      	mov	ip, r3
10007bfc:	17db      	asrs	r3, r3, #31
10007bfe:	930c      	str	r3, [sp, #48]	; 0x30
10007c00:	930d      	str	r3, [sp, #52]	; 0x34
10007c02:	9a0c      	ldr	r2, [sp, #48]	; 0x30
10007c04:	9b0d      	ldr	r3, [sp, #52]	; 0x34
10007c06:	0010      	movs	r0, r2
10007c08:	4048      	eors	r0, r1
10007c0a:	900e      	str	r0, [sp, #56]	; 0x38
10007c0c:	4662      	mov	r2, ip
10007c0e:	4053      	eors	r3, r2
10007c10:	930f      	str	r3, [sp, #60]	; 0x3c
10007c12:	980e      	ldr	r0, [sp, #56]	; 0x38
10007c14:	990f      	ldr	r1, [sp, #60]	; 0x3c
10007c16:	9a0c      	ldr	r2, [sp, #48]	; 0x30
10007c18:	9b0d      	ldr	r3, [sp, #52]	; 0x34
10007c1a:	1a80      	subs	r0, r0, r2
10007c1c:	4199      	sbcs	r1, r3
10007c1e:	900e      	str	r0, [sp, #56]	; 0x38
10007c20:	910f      	str	r1, [sp, #60]	; 0x3c
10007c22:	9408      	str	r4, [sp, #32]
10007c24:	9b0a      	ldr	r3, [sp, #40]	; 0x28
10007c26:	9307      	str	r3, [sp, #28]
10007c28:	4653      	mov	r3, sl
10007c2a:	9306      	str	r3, [sp, #24]
10007c2c:	9604      	str	r6, [sp, #16]
10007c2e:	2300      	movs	r3, #0
10007c30:	9305      	str	r3, [sp, #20]
10007c32:	4663      	mov	r3, ip
10007c34:	0fda      	lsrs	r2, r3, #31
10007c36:	9202      	str	r2, [sp, #8]
10007c38:	9000      	str	r0, [sp, #0]
10007c3a:	9101      	str	r1, [sp, #4]
10007c3c:	4643      	mov	r3, r8
10007c3e:	003a      	movs	r2, r7
10007c40:	4659      	mov	r1, fp
10007c42:	0028      	movs	r0, r5
10007c44:	f7ff fa6e 	bl	10007124 <_ntoa_long_long>
10007c48:	0007      	movs	r7, r0
10007c4a:	e7c9      	b.n	10007be0 <_vsnprintf+0x270>
10007c4c:	9a1c      	ldr	r2, [sp, #112]	; 0x70
10007c4e:	1d11      	adds	r1, r2, #4
10007c50:	911c      	str	r1, [sp, #112]	; 0x70
10007c52:	6812      	ldr	r2, [r2, #0]
10007c54:	17d3      	asrs	r3, r2, #31
10007c56:	18d1      	adds	r1, r2, r3
10007c58:	4059      	eors	r1, r3
10007c5a:	9405      	str	r4, [sp, #20]
10007c5c:	9b0a      	ldr	r3, [sp, #40]	; 0x28
10007c5e:	9304      	str	r3, [sp, #16]
10007c60:	4653      	mov	r3, sl
10007c62:	9303      	str	r3, [sp, #12]
10007c64:	9602      	str	r6, [sp, #8]
10007c66:	0fd2      	lsrs	r2, r2, #31
10007c68:	9201      	str	r2, [sp, #4]
10007c6a:	9100      	str	r1, [sp, #0]
10007c6c:	4643      	mov	r3, r8
10007c6e:	003a      	movs	r2, r7
10007c70:	4659      	mov	r1, fp
10007c72:	0028      	movs	r0, r5
10007c74:	f7ff f9f8 	bl	10007068 <_ntoa_long>
10007c78:	0007      	movs	r7, r0
10007c7a:	e7b1      	b.n	10007be0 <_vsnprintf+0x270>
10007c7c:	0623      	lsls	r3, r4, #24
10007c7e:	d505      	bpl.n	10007c8c <_vsnprintf+0x31c>
10007c80:	9a1c      	ldr	r2, [sp, #112]	; 0x70
10007c82:	1d11      	adds	r1, r2, #4
10007c84:	911c      	str	r1, [sp, #112]	; 0x70
10007c86:	2300      	movs	r3, #0
10007c88:	5ed2      	ldrsh	r2, [r2, r3]
10007c8a:	e796      	b.n	10007bba <_vsnprintf+0x24a>
10007c8c:	9a1c      	ldr	r2, [sp, #112]	; 0x70
10007c8e:	1d11      	adds	r1, r2, #4
10007c90:	911c      	str	r1, [sp, #112]	; 0x70
10007c92:	6812      	ldr	r2, [r2, #0]
10007c94:	e791      	b.n	10007bba <_vsnprintf+0x24a>
10007c96:	9b1c      	ldr	r3, [sp, #112]	; 0x70
10007c98:	1dda      	adds	r2, r3, #7
10007c9a:	2107      	movs	r1, #7
10007c9c:	438a      	bics	r2, r1
10007c9e:	0011      	movs	r1, r2
10007ca0:	3108      	adds	r1, #8
10007ca2:	911c      	str	r1, [sp, #112]	; 0x70
10007ca4:	9408      	str	r4, [sp, #32]
10007ca6:	9b0a      	ldr	r3, [sp, #40]	; 0x28
10007ca8:	9307      	str	r3, [sp, #28]
10007caa:	4653      	mov	r3, sl
10007cac:	9306      	str	r3, [sp, #24]
10007cae:	9604      	str	r6, [sp, #16]
10007cb0:	2300      	movs	r3, #0
10007cb2:	9305      	str	r3, [sp, #20]
10007cb4:	9302      	str	r3, [sp, #8]
10007cb6:	6813      	ldr	r3, [r2, #0]
10007cb8:	6854      	ldr	r4, [r2, #4]
10007cba:	9300      	str	r3, [sp, #0]
10007cbc:	9401      	str	r4, [sp, #4]
10007cbe:	4643      	mov	r3, r8
10007cc0:	003a      	movs	r2, r7
10007cc2:	4659      	mov	r1, fp
10007cc4:	0028      	movs	r0, r5
10007cc6:	f7ff fa2d 	bl	10007124 <_ntoa_long_long>
10007cca:	0007      	movs	r7, r0
10007ccc:	e788      	b.n	10007be0 <_vsnprintf+0x270>
10007cce:	9a1c      	ldr	r2, [sp, #112]	; 0x70
10007cd0:	1d11      	adds	r1, r2, #4
10007cd2:	911c      	str	r1, [sp, #112]	; 0x70
10007cd4:	9405      	str	r4, [sp, #20]
10007cd6:	9b0a      	ldr	r3, [sp, #40]	; 0x28
10007cd8:	9304      	str	r3, [sp, #16]
10007cda:	4653      	mov	r3, sl
10007cdc:	9303      	str	r3, [sp, #12]
10007cde:	9602      	str	r6, [sp, #8]
10007ce0:	2300      	movs	r3, #0
10007ce2:	9301      	str	r3, [sp, #4]
10007ce4:	6813      	ldr	r3, [r2, #0]
10007ce6:	9300      	str	r3, [sp, #0]
10007ce8:	4643      	mov	r3, r8
10007cea:	003a      	movs	r2, r7
10007cec:	4659      	mov	r1, fp
10007cee:	0028      	movs	r0, r5
10007cf0:	f7ff f9ba 	bl	10007068 <_ntoa_long>
10007cf4:	0007      	movs	r7, r0
10007cf6:	e773      	b.n	10007be0 <_vsnprintf+0x270>
10007cf8:	0623      	lsls	r3, r4, #24
10007cfa:	d50d      	bpl.n	10007d18 <_vsnprintf+0x3a8>
10007cfc:	9a1c      	ldr	r2, [sp, #112]	; 0x70
10007cfe:	1d11      	adds	r1, r2, #4
10007d00:	911c      	str	r1, [sp, #112]	; 0x70
10007d02:	6812      	ldr	r2, [r2, #0]
10007d04:	0412      	lsls	r2, r2, #16
10007d06:	0c12      	lsrs	r2, r2, #16
10007d08:	e731      	b.n	10007b6e <_vsnprintf+0x1fe>
10007d0a:	46c0      	nop			; (mov r8, r8)
10007d0c:	1000a5bc 	.word	0x1000a5bc
10007d10:	1000a600 	.word	0x1000a600
10007d14:	1000a64c 	.word	0x1000a64c
10007d18:	9a1c      	ldr	r2, [sp, #112]	; 0x70
10007d1a:	1d11      	adds	r1, r2, #4
10007d1c:	911c      	str	r1, [sp, #112]	; 0x70
10007d1e:	6812      	ldr	r2, [r2, #0]
10007d20:	e725      	b.n	10007b6e <_vsnprintf+0x1fe>
10007d22:	2846      	cmp	r0, #70	; 0x46
10007d24:	d01a      	beq.n	10007d5c <_vsnprintf+0x3ec>
10007d26:	9b1c      	ldr	r3, [sp, #112]	; 0x70
10007d28:	3307      	adds	r3, #7
10007d2a:	2207      	movs	r2, #7
10007d2c:	4393      	bics	r3, r2
10007d2e:	001a      	movs	r2, r3
10007d30:	3208      	adds	r2, #8
10007d32:	921c      	str	r2, [sp, #112]	; 0x70
10007d34:	9404      	str	r4, [sp, #16]
10007d36:	9a0a      	ldr	r2, [sp, #40]	; 0x28
10007d38:	9203      	str	r2, [sp, #12]
10007d3a:	4652      	mov	r2, sl
10007d3c:	9202      	str	r2, [sp, #8]
10007d3e:	685c      	ldr	r4, [r3, #4]
10007d40:	681b      	ldr	r3, [r3, #0]
10007d42:	9300      	str	r3, [sp, #0]
10007d44:	9401      	str	r4, [sp, #4]
10007d46:	4643      	mov	r3, r8
10007d48:	003a      	movs	r2, r7
10007d4a:	4659      	mov	r1, fp
10007d4c:	0028      	movs	r0, r5
10007d4e:	f7ff fc65 	bl	1000761c <_ftoa>
10007d52:	0007      	movs	r7, r0
10007d54:	9b11      	ldr	r3, [sp, #68]	; 0x44
10007d56:	3301      	adds	r3, #1
10007d58:	9311      	str	r3, [sp, #68]	; 0x44
10007d5a:	e619      	b.n	10007990 <_vsnprintf+0x20>
10007d5c:	2320      	movs	r3, #32
10007d5e:	431c      	orrs	r4, r3
10007d60:	e7e1      	b.n	10007d26 <_vsnprintf+0x3b6>
10007d62:	2867      	cmp	r0, #103	; 0x67
10007d64:	d001      	beq.n	10007d6a <_vsnprintf+0x3fa>
10007d66:	2847      	cmp	r0, #71	; 0x47
10007d68:	d102      	bne.n	10007d70 <_vsnprintf+0x400>
10007d6a:	2380      	movs	r3, #128	; 0x80
10007d6c:	011b      	lsls	r3, r3, #4
10007d6e:	431c      	orrs	r4, r3
10007d70:	2845      	cmp	r0, #69	; 0x45
10007d72:	d001      	beq.n	10007d78 <_vsnprintf+0x408>
10007d74:	2847      	cmp	r0, #71	; 0x47
10007d76:	d101      	bne.n	10007d7c <_vsnprintf+0x40c>
10007d78:	2320      	movs	r3, #32
10007d7a:	431c      	orrs	r4, r3
10007d7c:	9b1c      	ldr	r3, [sp, #112]	; 0x70
10007d7e:	3307      	adds	r3, #7
10007d80:	2207      	movs	r2, #7
10007d82:	4393      	bics	r3, r2
10007d84:	001a      	movs	r2, r3
10007d86:	3208      	adds	r2, #8
10007d88:	921c      	str	r2, [sp, #112]	; 0x70
10007d8a:	9404      	str	r4, [sp, #16]
10007d8c:	9a0a      	ldr	r2, [sp, #40]	; 0x28
10007d8e:	9203      	str	r2, [sp, #12]
10007d90:	4652      	mov	r2, sl
10007d92:	9202      	str	r2, [sp, #8]
10007d94:	685c      	ldr	r4, [r3, #4]
10007d96:	681b      	ldr	r3, [r3, #0]
10007d98:	9300      	str	r3, [sp, #0]
10007d9a:	9401      	str	r4, [sp, #4]
10007d9c:	4643      	mov	r3, r8
10007d9e:	003a      	movs	r2, r7
10007da0:	4659      	mov	r1, fp
10007da2:	0028      	movs	r0, r5
10007da4:	f7ff fa30 	bl	10007208 <_etoa>
10007da8:	0007      	movs	r7, r0
10007daa:	9b11      	ldr	r3, [sp, #68]	; 0x44
10007dac:	3301      	adds	r3, #1
10007dae:	9311      	str	r3, [sp, #68]	; 0x44
10007db0:	e5ee      	b.n	10007990 <_vsnprintf+0x20>
10007db2:	2302      	movs	r3, #2
10007db4:	001a      	movs	r2, r3
10007db6:	4022      	ands	r2, r4
10007db8:	4692      	mov	sl, r2
10007dba:	4223      	tst	r3, r4
10007dbc:	d01f      	beq.n	10007dfe <_vsnprintf+0x48e>
10007dbe:	2401      	movs	r4, #1
10007dc0:	9b1c      	ldr	r3, [sp, #112]	; 0x70
10007dc2:	1d1a      	adds	r2, r3, #4
10007dc4:	921c      	str	r2, [sp, #112]	; 0x70
10007dc6:	1c7a      	adds	r2, r7, #1
10007dc8:	4691      	mov	r9, r2
10007dca:	7818      	ldrb	r0, [r3, #0]
10007dcc:	4643      	mov	r3, r8
10007dce:	003a      	movs	r2, r7
10007dd0:	4659      	mov	r1, fp
10007dd2:	47a8      	blx	r5
10007dd4:	4653      	mov	r3, sl
10007dd6:	2b00      	cmp	r3, #0
10007dd8:	d116      	bne.n	10007e08 <_vsnprintf+0x498>
10007dda:	9b11      	ldr	r3, [sp, #68]	; 0x44
10007ddc:	3301      	adds	r3, #1
10007dde:	9311      	str	r3, [sp, #68]	; 0x44
10007de0:	464f      	mov	r7, r9
10007de2:	e5d5      	b.n	10007990 <_vsnprintf+0x20>
10007de4:	1c56      	adds	r6, r2, #1
10007de6:	4643      	mov	r3, r8
10007de8:	4659      	mov	r1, fp
10007dea:	2020      	movs	r0, #32
10007dec:	47b8      	blx	r7
10007dee:	0023      	movs	r3, r4
10007df0:	0032      	movs	r2, r6
10007df2:	1c5c      	adds	r4, r3, #1
10007df4:	429d      	cmp	r5, r3
10007df6:	d8f5      	bhi.n	10007de4 <_vsnprintf+0x474>
10007df8:	003d      	movs	r5, r7
10007dfa:	0017      	movs	r7, r2
10007dfc:	e7e0      	b.n	10007dc0 <_vsnprintf+0x450>
10007dfe:	2301      	movs	r3, #1
10007e00:	003a      	movs	r2, r7
10007e02:	002f      	movs	r7, r5
10007e04:	9d0a      	ldr	r5, [sp, #40]	; 0x28
10007e06:	e7f4      	b.n	10007df2 <_vsnprintf+0x482>
10007e08:	464a      	mov	r2, r9
10007e0a:	46a9      	mov	r9, r5
10007e0c:	9d0a      	ldr	r5, [sp, #40]	; 0x28
10007e0e:	e006      	b.n	10007e1e <_vsnprintf+0x4ae>
10007e10:	1c57      	adds	r7, r2, #1
10007e12:	4643      	mov	r3, r8
10007e14:	4659      	mov	r1, fp
10007e16:	2020      	movs	r0, #32
10007e18:	47c8      	blx	r9
10007e1a:	0034      	movs	r4, r6
10007e1c:	003a      	movs	r2, r7
10007e1e:	1c66      	adds	r6, r4, #1
10007e20:	42a5      	cmp	r5, r4
10007e22:	d8f5      	bhi.n	10007e10 <_vsnprintf+0x4a0>
10007e24:	464d      	mov	r5, r9
10007e26:	4691      	mov	r9, r2
10007e28:	e7d7      	b.n	10007dda <_vsnprintf+0x46a>
10007e2a:	9b1c      	ldr	r3, [sp, #112]	; 0x70
10007e2c:	1d1a      	adds	r2, r3, #4
10007e2e:	921c      	str	r2, [sp, #112]	; 0x70
10007e30:	681b      	ldr	r3, [r3, #0]
10007e32:	4699      	mov	r9, r3
10007e34:	4653      	mov	r3, sl
10007e36:	2b00      	cmp	r3, #0
10007e38:	d100      	bne.n	10007e3c <_vsnprintf+0x4cc>
10007e3a:	3b01      	subs	r3, #1
10007e3c:	464e      	mov	r6, r9
10007e3e:	e001      	b.n	10007e44 <_vsnprintf+0x4d4>
10007e40:	3601      	adds	r6, #1
10007e42:	0013      	movs	r3, r2
10007e44:	7832      	ldrb	r2, [r6, #0]
10007e46:	2a00      	cmp	r2, #0
10007e48:	d002      	beq.n	10007e50 <_vsnprintf+0x4e0>
10007e4a:	1e5a      	subs	r2, r3, #1
10007e4c:	2b00      	cmp	r3, #0
10007e4e:	d1f7      	bne.n	10007e40 <_vsnprintf+0x4d0>
10007e50:	464b      	mov	r3, r9
10007e52:	1af2      	subs	r2, r6, r3
10007e54:	9210      	str	r2, [sp, #64]	; 0x40
10007e56:	2380      	movs	r3, #128	; 0x80
10007e58:	00db      	lsls	r3, r3, #3
10007e5a:	0026      	movs	r6, r4
10007e5c:	401e      	ands	r6, r3
10007e5e:	421c      	tst	r4, r3
10007e60:	d003      	beq.n	10007e6a <_vsnprintf+0x4fa>
10007e62:	4552      	cmp	r2, sl
10007e64:	d901      	bls.n	10007e6a <_vsnprintf+0x4fa>
10007e66:	4653      	mov	r3, sl
10007e68:	9310      	str	r3, [sp, #64]	; 0x40
10007e6a:	2302      	movs	r3, #2
10007e6c:	001a      	movs	r2, r3
10007e6e:	4022      	ands	r2, r4
10007e70:	920b      	str	r2, [sp, #44]	; 0x2c
10007e72:	4223      	tst	r3, r4
10007e74:	d005      	beq.n	10007e82 <_vsnprintf+0x512>
10007e76:	003a      	movs	r2, r7
10007e78:	0037      	movs	r7, r6
10007e7a:	464c      	mov	r4, r9
10007e7c:	46a9      	mov	r9, r5
10007e7e:	4655      	mov	r5, sl
10007e80:	e020      	b.n	10007ec4 <_vsnprintf+0x554>
10007e82:	003a      	movs	r2, r7
10007e84:	9b10      	ldr	r3, [sp, #64]	; 0x40
10007e86:	465f      	mov	r7, fp
10007e88:	46b3      	mov	fp, r6
10007e8a:	002e      	movs	r6, r5
10007e8c:	e006      	b.n	10007e9c <_vsnprintf+0x52c>
10007e8e:	1c55      	adds	r5, r2, #1
10007e90:	4643      	mov	r3, r8
10007e92:	0039      	movs	r1, r7
10007e94:	2020      	movs	r0, #32
10007e96:	47b0      	blx	r6
10007e98:	0023      	movs	r3, r4
10007e9a:	002a      	movs	r2, r5
10007e9c:	1c5c      	adds	r4, r3, #1
10007e9e:	990a      	ldr	r1, [sp, #40]	; 0x28
10007ea0:	4299      	cmp	r1, r3
10007ea2:	d8f4      	bhi.n	10007e8e <_vsnprintf+0x51e>
10007ea4:	0035      	movs	r5, r6
10007ea6:	465e      	mov	r6, fp
10007ea8:	46bb      	mov	fp, r7
10007eaa:	9410      	str	r4, [sp, #64]	; 0x40
10007eac:	0037      	movs	r7, r6
10007eae:	464c      	mov	r4, r9
10007eb0:	46a9      	mov	r9, r5
10007eb2:	4655      	mov	r5, sl
10007eb4:	e006      	b.n	10007ec4 <_vsnprintf+0x554>
10007eb6:	001d      	movs	r5, r3
10007eb8:	3401      	adds	r4, #1
10007eba:	1c56      	adds	r6, r2, #1
10007ebc:	4643      	mov	r3, r8
10007ebe:	4659      	mov	r1, fp
10007ec0:	47c8      	blx	r9
10007ec2:	0032      	movs	r2, r6
10007ec4:	7820      	ldrb	r0, [r4, #0]
10007ec6:	2800      	cmp	r0, #0
10007ec8:	d004      	beq.n	10007ed4 <_vsnprintf+0x564>
10007eca:	2f00      	cmp	r7, #0
10007ecc:	d0f4      	beq.n	10007eb8 <_vsnprintf+0x548>
10007ece:	1e6b      	subs	r3, r5, #1
10007ed0:	2d00      	cmp	r5, #0
10007ed2:	d1f0      	bne.n	10007eb6 <_vsnprintf+0x546>
10007ed4:	0017      	movs	r7, r2
10007ed6:	464d      	mov	r5, r9
10007ed8:	9b0b      	ldr	r3, [sp, #44]	; 0x2c
10007eda:	2b00      	cmp	r3, #0
10007edc:	d103      	bne.n	10007ee6 <_vsnprintf+0x576>
10007ede:	9b11      	ldr	r3, [sp, #68]	; 0x44
10007ee0:	3301      	adds	r3, #1
10007ee2:	9311      	str	r3, [sp, #68]	; 0x44
10007ee4:	e554      	b.n	10007990 <_vsnprintf+0x20>
10007ee6:	9f0a      	ldr	r7, [sp, #40]	; 0x28
10007ee8:	9b10      	ldr	r3, [sp, #64]	; 0x40
10007eea:	e006      	b.n	10007efa <_vsnprintf+0x58a>
10007eec:	1c56      	adds	r6, r2, #1
10007eee:	4643      	mov	r3, r8
10007ef0:	4659      	mov	r1, fp
10007ef2:	2020      	movs	r0, #32
10007ef4:	47a8      	blx	r5
10007ef6:	0023      	movs	r3, r4
10007ef8:	0032      	movs	r2, r6
10007efa:	1c5c      	adds	r4, r3, #1
10007efc:	429f      	cmp	r7, r3
10007efe:	d8f5      	bhi.n	10007eec <_vsnprintf+0x57c>
10007f00:	0017      	movs	r7, r2
10007f02:	e7ec      	b.n	10007ede <_vsnprintf+0x56e>
10007f04:	2321      	movs	r3, #33	; 0x21
10007f06:	431c      	orrs	r4, r3
10007f08:	9b1c      	ldr	r3, [sp, #112]	; 0x70
10007f0a:	1d1a      	adds	r2, r3, #4
10007f0c:	921c      	str	r2, [sp, #112]	; 0x70
10007f0e:	681b      	ldr	r3, [r3, #0]
10007f10:	9300      	str	r3, [sp, #0]
10007f12:	9405      	str	r4, [sp, #20]
10007f14:	2308      	movs	r3, #8
10007f16:	9304      	str	r3, [sp, #16]
10007f18:	4653      	mov	r3, sl
10007f1a:	9303      	str	r3, [sp, #12]
10007f1c:	2310      	movs	r3, #16
10007f1e:	9302      	str	r3, [sp, #8]
10007f20:	2300      	movs	r3, #0
10007f22:	9301      	str	r3, [sp, #4]
10007f24:	4643      	mov	r3, r8
10007f26:	003a      	movs	r2, r7
10007f28:	4659      	mov	r1, fp
10007f2a:	0028      	movs	r0, r5
10007f2c:	f7ff f89c 	bl	10007068 <_ntoa_long>
10007f30:	0007      	movs	r7, r0
10007f32:	9b11      	ldr	r3, [sp, #68]	; 0x44
10007f34:	3301      	adds	r3, #1
10007f36:	9311      	str	r3, [sp, #68]	; 0x44
10007f38:	e52a      	b.n	10007990 <_vsnprintf+0x20>
10007f3a:	1c7c      	adds	r4, r7, #1
10007f3c:	4643      	mov	r3, r8
10007f3e:	003a      	movs	r2, r7
10007f40:	4659      	mov	r1, fp
10007f42:	2025      	movs	r0, #37	; 0x25
10007f44:	47a8      	blx	r5
10007f46:	9b11      	ldr	r3, [sp, #68]	; 0x44
10007f48:	3301      	adds	r3, #1
10007f4a:	9311      	str	r3, [sp, #68]	; 0x44
10007f4c:	0027      	movs	r7, r4
10007f4e:	e51f      	b.n	10007990 <_vsnprintf+0x20>
10007f50:	1c7c      	adds	r4, r7, #1
10007f52:	4643      	mov	r3, r8
10007f54:	003a      	movs	r2, r7
10007f56:	4659      	mov	r1, fp
10007f58:	47a8      	blx	r5
10007f5a:	9b11      	ldr	r3, [sp, #68]	; 0x44
10007f5c:	3301      	adds	r3, #1
10007f5e:	9311      	str	r3, [sp, #68]	; 0x44
10007f60:	0027      	movs	r7, r4
10007f62:	e515      	b.n	10007990 <_vsnprintf+0x20>
10007f64:	4b0a      	ldr	r3, [pc, #40]	; (10007f90 <_vsnprintf+0x620>)
10007f66:	469a      	mov	sl, r3
10007f68:	e510      	b.n	1000798c <_vsnprintf+0x1c>
10007f6a:	46aa      	mov	sl, r5
10007f6c:	4547      	cmp	r7, r8
10007f6e:	d302      	bcc.n	10007f76 <_vsnprintf+0x606>
10007f70:	4643      	mov	r3, r8
10007f72:	1e5a      	subs	r2, r3, #1
10007f74:	e000      	b.n	10007f78 <_vsnprintf+0x608>
10007f76:	003a      	movs	r2, r7
10007f78:	4643      	mov	r3, r8
10007f7a:	4659      	mov	r1, fp
10007f7c:	2000      	movs	r0, #0
10007f7e:	47d0      	blx	sl
10007f80:	0038      	movs	r0, r7
10007f82:	b013      	add	sp, #76	; 0x4c
10007f84:	bcf0      	pop	{r4, r5, r6, r7}
10007f86:	46bb      	mov	fp, r7
10007f88:	46b2      	mov	sl, r6
10007f8a:	46a9      	mov	r9, r5
10007f8c:	46a0      	mov	r8, r4
10007f8e:	bdf0      	pop	{r4, r5, r6, r7, pc}
10007f90:	10006e75 	.word	0x10006e75

10007f94 <__wrap_sprintf>:
10007f94:	b40e      	push	{r1, r2, r3}
10007f96:	b510      	push	{r4, lr}
10007f98:	b085      	sub	sp, #20
10007f9a:	0001      	movs	r1, r0
10007f9c:	ac07      	add	r4, sp, #28
10007f9e:	cc08      	ldmia	r4!, {r3}
10007fa0:	9403      	str	r4, [sp, #12]
10007fa2:	2201      	movs	r2, #1
10007fa4:	9400      	str	r4, [sp, #0]
10007fa6:	4252      	negs	r2, r2
10007fa8:	4803      	ldr	r0, [pc, #12]	; (10007fb8 <__wrap_sprintf+0x24>)
10007faa:	f7ff fce1 	bl	10007970 <_vsnprintf>
10007fae:	b005      	add	sp, #20
10007fb0:	bc10      	pop	{r4}
10007fb2:	bc08      	pop	{r3}
10007fb4:	b003      	add	sp, #12
10007fb6:	4718      	bx	r3
10007fb8:	10006e6d 	.word	0x10006e6d

10007fbc <vfctprintf>:
10007fbc:	b500      	push	{lr}
10007fbe:	b085      	sub	sp, #20
10007fc0:	9002      	str	r0, [sp, #8]
10007fc2:	9103      	str	r1, [sp, #12]
10007fc4:	2101      	movs	r1, #1
10007fc6:	9300      	str	r3, [sp, #0]
10007fc8:	0013      	movs	r3, r2
10007fca:	424a      	negs	r2, r1
10007fcc:	a902      	add	r1, sp, #8
10007fce:	4802      	ldr	r0, [pc, #8]	; (10007fd8 <vfctprintf+0x1c>)
10007fd0:	f7ff fcce 	bl	10007970 <_vsnprintf>
10007fd4:	b005      	add	sp, #20
10007fd6:	bd00      	pop	{pc}
10007fd8:	10006e77 	.word	0x10006e77

10007fdc <__aeabi_bits_init>:
10007fdc:	4801      	ldr	r0, [pc, #4]	; (10007fe4 <__aeabi_bits_init+0x8>)
10007fde:	2104      	movs	r1, #4
10007fe0:	4b01      	ldr	r3, [pc, #4]	; (10007fe8 <__aeabi_bits_init+0xc>)
10007fe2:	4718      	bx	r3
10007fe4:	20000a70 	.word	0x20000a70
10007fe8:	1000800d 	.word	0x1000800d

10007fec <rom_func_lookup>:
10007fec:	b510      	push	{r4, lr}
10007fee:	0001      	movs	r1, r0
10007ff0:	2318      	movs	r3, #24
10007ff2:	881b      	ldrh	r3, [r3, #0]
10007ff4:	2214      	movs	r2, #20
10007ff6:	8810      	ldrh	r0, [r2, #0]
10007ff8:	4798      	blx	r3
10007ffa:	bd10      	pop	{r4, pc}

10007ffc <rom_data_lookup>:
10007ffc:	b510      	push	{r4, lr}
10007ffe:	0001      	movs	r1, r0
10008000:	2318      	movs	r3, #24
10008002:	881b      	ldrh	r3, [r3, #0]
10008004:	2216      	movs	r2, #22
10008006:	8810      	ldrh	r0, [r2, #0]
10008008:	4798      	blx	r3
1000800a:	bd10      	pop	{r4, pc}

1000800c <rom_funcs_lookup>:
1000800c:	b5f0      	push	{r4, r5, r6, r7, lr}
1000800e:	46c6      	mov	lr, r8
10008010:	b500      	push	{lr}
10008012:	0007      	movs	r7, r0
10008014:	000e      	movs	r6, r1
10008016:	2500      	movs	r5, #0
10008018:	2301      	movs	r3, #1
1000801a:	4698      	mov	r8, r3
1000801c:	e000      	b.n	10008020 <rom_funcs_lookup+0x14>
1000801e:	3501      	adds	r5, #1
10008020:	42b5      	cmp	r5, r6
10008022:	d20a      	bcs.n	1000803a <rom_funcs_lookup+0x2e>
10008024:	00ac      	lsls	r4, r5, #2
10008026:	193c      	adds	r4, r7, r4
10008028:	6820      	ldr	r0, [r4, #0]
1000802a:	f7ff ffdf 	bl	10007fec <rom_func_lookup>
1000802e:	6020      	str	r0, [r4, #0]
10008030:	2800      	cmp	r0, #0
10008032:	d1f4      	bne.n	1000801e <rom_funcs_lookup+0x12>
10008034:	2300      	movs	r3, #0
10008036:	4698      	mov	r8, r3
10008038:	e7f1      	b.n	1000801e <rom_funcs_lookup+0x12>
1000803a:	4640      	mov	r0, r8
1000803c:	bc80      	pop	{r7}
1000803e:	46b8      	mov	r8, r7
10008040:	bdf0      	pop	{r4, r5, r6, r7, pc}
	...

10008044 <__wrap___aeabi_idiv>:
10008044:	4a12      	ldr	r2, [pc, #72]	; (10008090 <divmod_s32s32_savestate+0x18>)
10008046:	6f93      	ldr	r3, [r2, #120]	; 0x78
10008048:	089b      	lsrs	r3, r3, #2
1000804a:	d215      	bcs.n	10008078 <divmod_s32s32_savestate>

1000804c <divmod_s32s32_unsafe>:
1000804c:	6690      	str	r0, [r2, #104]	; 0x68
1000804e:	66d1      	str	r1, [r2, #108]	; 0x6c
10008050:	2900      	cmp	r1, #0
10008052:	d005      	beq.n	10008060 <divmod_s32s32_unsafe+0x14>
10008054:	e7ff      	b.n	10008056 <divmod_s32s32_unsafe+0xa>
10008056:	e7ff      	b.n	10008058 <divmod_s32s32_unsafe+0xc>
10008058:	e7ff      	b.n	1000805a <divmod_s32s32_unsafe+0xe>
1000805a:	6f51      	ldr	r1, [r2, #116]	; 0x74
1000805c:	6f10      	ldr	r0, [r2, #112]	; 0x70
1000805e:	4770      	bx	lr
10008060:	b504      	push	{r2, lr}
10008062:	2180      	movs	r1, #128	; 0x80
10008064:	0609      	lsls	r1, r1, #24
10008066:	17c2      	asrs	r2, r0, #31
10008068:	4051      	eors	r1, r2
1000806a:	2800      	cmp	r0, #0
1000806c:	d000      	beq.n	10008070 <divmod_s32s32_unsafe+0x24>
1000806e:	43c8      	mvns	r0, r1
10008070:	f001 f92a 	bl	100092c8 <____aeabi_idiv0_veneer>
10008074:	2100      	movs	r1, #0
10008076:	bd04      	pop	{r2, pc}

10008078 <divmod_s32s32_savestate>:
10008078:	b5f0      	push	{r4, r5, r6, r7, lr}
1000807a:	6e14      	ldr	r4, [r2, #96]	; 0x60
1000807c:	6e55      	ldr	r5, [r2, #100]	; 0x64
1000807e:	6f57      	ldr	r7, [r2, #116]	; 0x74
10008080:	6f16      	ldr	r6, [r2, #112]	; 0x70
10008082:	f7ff ffe3 	bl	1000804c <divmod_s32s32_unsafe>
10008086:	6614      	str	r4, [r2, #96]	; 0x60
10008088:	6655      	str	r5, [r2, #100]	; 0x64
1000808a:	6757      	str	r7, [r2, #116]	; 0x74
1000808c:	6716      	str	r6, [r2, #112]	; 0x70
1000808e:	bdf0      	pop	{r4, r5, r6, r7, pc}
10008090:	d0000000 	.word	0xd0000000

10008094 <__wrap___aeabi_uidiv>:
10008094:	4a11      	ldr	r2, [pc, #68]	; (100080dc <divmod_u32u32_savestate+0x18>)
10008096:	6f93      	ldr	r3, [r2, #120]	; 0x78
10008098:	089b      	lsrs	r3, r3, #2
1000809a:	d213      	bcs.n	100080c4 <divmod_u32u32_savestate>

1000809c <divmod_u32u32_unsafe>:
1000809c:	6610      	str	r0, [r2, #96]	; 0x60
1000809e:	6651      	str	r1, [r2, #100]	; 0x64
100080a0:	2900      	cmp	r1, #0
100080a2:	d005      	beq.n	100080b0 <divmod_u32u32_unsafe+0x14>
100080a4:	e7ff      	b.n	100080a6 <divmod_u32u32_unsafe+0xa>
100080a6:	e7ff      	b.n	100080a8 <divmod_u32u32_unsafe+0xc>
100080a8:	e7ff      	b.n	100080aa <divmod_u32u32_unsafe+0xe>
100080aa:	6f51      	ldr	r1, [r2, #116]	; 0x74
100080ac:	6f10      	ldr	r0, [r2, #112]	; 0x70
100080ae:	4770      	bx	lr
100080b0:	b504      	push	{r2, lr}
100080b2:	2800      	cmp	r0, #0
100080b4:	d001      	beq.n	100080ba <divmod_u32u32_unsafe+0x1e>
100080b6:	2000      	movs	r0, #0
100080b8:	43c0      	mvns	r0, r0
100080ba:	f001 f905 	bl	100092c8 <____aeabi_idiv0_veneer>
100080be:	2100      	movs	r1, #0
100080c0:	bd04      	pop	{r2, pc}
100080c2:	46c0      	nop			; (mov r8, r8)

100080c4 <divmod_u32u32_savestate>:
100080c4:	b5f0      	push	{r4, r5, r6, r7, lr}
100080c6:	6e14      	ldr	r4, [r2, #96]	; 0x60
100080c8:	6e55      	ldr	r5, [r2, #100]	; 0x64
100080ca:	6f57      	ldr	r7, [r2, #116]	; 0x74
100080cc:	6f16      	ldr	r6, [r2, #112]	; 0x70
100080ce:	f7ff ffe5 	bl	1000809c <divmod_u32u32_unsafe>
100080d2:	6614      	str	r4, [r2, #96]	; 0x60
100080d4:	6655      	str	r5, [r2, #100]	; 0x64
100080d6:	6757      	str	r7, [r2, #116]	; 0x74
100080d8:	6716      	str	r6, [r2, #112]	; 0x70
100080da:	bdf0      	pop	{r4, r5, r6, r7, pc}
100080dc:	d0000000 	.word	0xd0000000

100080e0 <__wrap___aeabi_ldivmod>:
100080e0:	4694      	mov	ip, r2
100080e2:	4a4e      	ldr	r2, [pc, #312]	; (1000821c <udiv0+0x1a>)
100080e4:	6f92      	ldr	r2, [r2, #120]	; 0x78
100080e6:	0892      	lsrs	r2, r2, #2
100080e8:	4662      	mov	r2, ip
100080ea:	d201      	bcs.n	100080f0 <divmod_s64s64_savestate>
100080ec:	e030      	b.n	10008150 <divmod_s64s64_unsafe>
100080ee:	46c0      	nop			; (mov r8, r8)

100080f0 <divmod_s64s64_savestate>:
100080f0:	b5f0      	push	{r4, r5, r6, r7, lr}
100080f2:	4e4a      	ldr	r6, [pc, #296]	; (1000821c <udiv0+0x1a>)
100080f4:	6fb5      	ldr	r5, [r6, #120]	; 0x78
100080f6:	086d      	lsrs	r5, r5, #1
100080f8:	d3fc      	bcc.n	100080f4 <divmod_s64s64_savestate+0x4>
100080fa:	6e34      	ldr	r4, [r6, #96]	; 0x60
100080fc:	6e75      	ldr	r5, [r6, #100]	; 0x64
100080fe:	6f77      	ldr	r7, [r6, #116]	; 0x74
10008100:	6f36      	ldr	r6, [r6, #112]	; 0x70
10008102:	f000 f825 	bl	10008150 <divmod_s64s64_unsafe>
10008106:	4694      	mov	ip, r2
10008108:	4a44      	ldr	r2, [pc, #272]	; (1000821c <udiv0+0x1a>)
1000810a:	6614      	str	r4, [r2, #96]	; 0x60
1000810c:	6655      	str	r5, [r2, #100]	; 0x64
1000810e:	6757      	str	r7, [r2, #116]	; 0x74
10008110:	6716      	str	r6, [r2, #112]	; 0x70
10008112:	4662      	mov	r2, ip
10008114:	bdf0      	pop	{r4, r5, r6, r7, pc}
10008116:	46c0      	nop			; (mov r8, r8)

10008118 <__wrap___aeabi_uldivmod>:
10008118:	4694      	mov	ip, r2
1000811a:	4a40      	ldr	r2, [pc, #256]	; (1000821c <udiv0+0x1a>)
1000811c:	6f92      	ldr	r2, [r2, #120]	; 0x78
1000811e:	0892      	lsrs	r2, r2, #2
10008120:	4662      	mov	r2, ip
10008122:	d201      	bcs.n	10008128 <divmod_u64u64_savestate>
10008124:	e058      	b.n	100081d8 <divmod_u64u64_unsafe>
10008126:	46c0      	nop			; (mov r8, r8)

10008128 <divmod_u64u64_savestate>:
10008128:	b5f0      	push	{r4, r5, r6, r7, lr}
1000812a:	4e3c      	ldr	r6, [pc, #240]	; (1000821c <udiv0+0x1a>)
1000812c:	6fb5      	ldr	r5, [r6, #120]	; 0x78
1000812e:	086d      	lsrs	r5, r5, #1
10008130:	d3fc      	bcc.n	1000812c <divmod_u64u64_savestate+0x4>
10008132:	6e34      	ldr	r4, [r6, #96]	; 0x60
10008134:	6e75      	ldr	r5, [r6, #100]	; 0x64
10008136:	6f77      	ldr	r7, [r6, #116]	; 0x74
10008138:	6f36      	ldr	r6, [r6, #112]	; 0x70
1000813a:	f000 f84d 	bl	100081d8 <divmod_u64u64_unsafe>
1000813e:	4694      	mov	ip, r2
10008140:	4a36      	ldr	r2, [pc, #216]	; (1000821c <udiv0+0x1a>)
10008142:	6614      	str	r4, [r2, #96]	; 0x60
10008144:	6655      	str	r5, [r2, #100]	; 0x64
10008146:	6757      	str	r7, [r2, #116]	; 0x74
10008148:	6716      	str	r6, [r2, #112]	; 0x70
1000814a:	4662      	mov	r2, ip
1000814c:	bdf0      	pop	{r4, r5, r6, r7, pc}
1000814e:	46c0      	nop			; (mov r8, r8)

10008150 <divmod_s64s64_unsafe>:
10008150:	2b00      	cmp	r3, #0
10008152:	db24      	blt.n	1000819e <l41_1+0x26>
10008154:	d011      	beq.n	1000817a <l41_1+0x2>
10008156:	2900      	cmp	r1, #0
10008158:	da3e      	bge.n	100081d8 <divmod_u64u64_unsafe>
1000815a:	b500      	push	{lr}
1000815c:	43c9      	mvns	r1, r1
1000815e:	4240      	negs	r0, r0
10008160:	d100      	bne.n	10008164 <l39_1>
10008162:	3101      	adds	r1, #1

10008164 <l39_1>:
10008164:	f000 f838 	bl	100081d8 <divmod_u64u64_unsafe>
10008168:	43c9      	mvns	r1, r1
1000816a:	4240      	negs	r0, r0
1000816c:	d100      	bne.n	10008170 <l40_1>
1000816e:	3101      	adds	r1, #1

10008170 <l40_1>:
10008170:	43db      	mvns	r3, r3
10008172:	4252      	negs	r2, r2
10008174:	d100      	bne.n	10008178 <l41_1>
10008176:	3301      	adds	r3, #1

10008178 <l41_1>:
10008178:	bd00      	pop	{pc}
1000817a:	2a00      	cmp	r2, #0
1000817c:	d1eb      	bne.n	10008156 <divmod_s64s64_unsafe+0x6>
1000817e:	2800      	cmp	r0, #0
10008180:	d101      	bne.n	10008186 <l41_1+0xe>
10008182:	2900      	cmp	r1, #0
10008184:	d005      	beq.n	10008192 <l41_1+0x1a>
10008186:	2000      	movs	r0, #0
10008188:	0fc9      	lsrs	r1, r1, #31
1000818a:	07c9      	lsls	r1, r1, #31
1000818c:	d101      	bne.n	10008192 <l41_1+0x1a>
1000818e:	43c0      	mvns	r0, r0
10008190:	0841      	lsrs	r1, r0, #1
10008192:	b500      	push	{lr}
10008194:	f001 f890 	bl	100092b8 <____aeabi_ldiv0_veneer>
10008198:	2200      	movs	r2, #0
1000819a:	2300      	movs	r3, #0
1000819c:	bd00      	pop	{pc}
1000819e:	b500      	push	{lr}
100081a0:	2900      	cmp	r1, #0
100081a2:	db0a      	blt.n	100081ba <l43_1+0x2>
100081a4:	43db      	mvns	r3, r3
100081a6:	4252      	negs	r2, r2
100081a8:	d100      	bne.n	100081ac <l42_1>
100081aa:	3301      	adds	r3, #1

100081ac <l42_1>:
100081ac:	f000 f814 	bl	100081d8 <divmod_u64u64_unsafe>
100081b0:	43c9      	mvns	r1, r1
100081b2:	4240      	negs	r0, r0
100081b4:	d100      	bne.n	100081b8 <l43_1>
100081b6:	3101      	adds	r1, #1

100081b8 <l43_1>:
100081b8:	bd00      	pop	{pc}
100081ba:	43c9      	mvns	r1, r1
100081bc:	4240      	negs	r0, r0
100081be:	d100      	bne.n	100081c2 <l44_1>
100081c0:	3101      	adds	r1, #1

100081c2 <l44_1>:
100081c2:	43db      	mvns	r3, r3
100081c4:	4252      	negs	r2, r2
100081c6:	d100      	bne.n	100081ca <l45_1>
100081c8:	3301      	adds	r3, #1

100081ca <l45_1>:
100081ca:	f000 f805 	bl	100081d8 <divmod_u64u64_unsafe>
100081ce:	43db      	mvns	r3, r3
100081d0:	4252      	negs	r2, r2
100081d2:	d100      	bne.n	100081d6 <l46_1>
100081d4:	3301      	adds	r3, #1

100081d6 <l46_1>:
100081d6:	bd00      	pop	{pc}

100081d8 <divmod_u64u64_unsafe>:
100081d8:	2900      	cmp	r1, #0
100081da:	d123      	bne.n	10008224 <y64>
100081dc:	2b00      	cmp	r3, #0
100081de:	d118      	bne.n	10008212 <udiv0+0x10>
100081e0:	2a00      	cmp	r2, #0
100081e2:	d00c      	beq.n	100081fe <divmod_u64u64_unsafe+0x26>
100081e4:	46bc      	mov	ip, r7
100081e6:	4f0d      	ldr	r7, [pc, #52]	; (1000821c <udiv0+0x1a>)
100081e8:	6638      	str	r0, [r7, #96]	; 0x60
100081ea:	667a      	str	r2, [r7, #100]	; 0x64
100081ec:	2100      	movs	r1, #0
100081ee:	2300      	movs	r3, #0
100081f0:	e7ff      	b.n	100081f2 <divmod_u64u64_unsafe+0x1a>
100081f2:	e7ff      	b.n	100081f4 <divmod_u64u64_unsafe+0x1c>
100081f4:	e7ff      	b.n	100081f6 <divmod_u64u64_unsafe+0x1e>
100081f6:	6f7a      	ldr	r2, [r7, #116]	; 0x74
100081f8:	6f38      	ldr	r0, [r7, #112]	; 0x70
100081fa:	4667      	mov	r7, ip
100081fc:	4770      	bx	lr
100081fe:	2800      	cmp	r0, #0
10008200:	d001      	beq.n	10008206 <udiv0+0x4>

10008202 <udiv0>:
10008202:	4807      	ldr	r0, [pc, #28]	; (10008220 <udiv0+0x1e>)
10008204:	0001      	movs	r1, r0
10008206:	b500      	push	{lr}
10008208:	f001 f856 	bl	100092b8 <____aeabi_ldiv0_veneer>
1000820c:	2200      	movs	r2, #0
1000820e:	2300      	movs	r3, #0
10008210:	bd00      	pop	{pc}
10008212:	0002      	movs	r2, r0
10008214:	000b      	movs	r3, r1
10008216:	2000      	movs	r0, #0
10008218:	2100      	movs	r1, #0
1000821a:	4770      	bx	lr
1000821c:	d0000000 	.word	0xd0000000
10008220:	ffffffff 	.word	0xffffffff

10008224 <y64>:
10008224:	2b00      	cmp	r3, #0
10008226:	d000      	beq.n	1000822a <y64+0x6>
10008228:	e0bf      	b.n	100083aa <y64_x48>
1000822a:	0c13      	lsrs	r3, r2, #16
1000822c:	d128      	bne.n	10008280 <y64_x32>
1000822e:	2a00      	cmp	r2, #0
10008230:	d0e7      	beq.n	10008202 <udiv0>
10008232:	b480      	push	{r7}
10008234:	4f11      	ldr	r7, [pc, #68]	; (1000827c <y64+0x58>)
10008236:	6639      	str	r1, [r7, #96]	; 0x60
10008238:	667a      	str	r2, [r7, #100]	; 0x64
1000823a:	e7ff      	b.n	1000823c <y64+0x18>
1000823c:	e7ff      	b.n	1000823e <y64+0x1a>
1000823e:	b430      	push	{r4, r5}
10008240:	0c04      	lsrs	r4, r0, #16
10008242:	6f7b      	ldr	r3, [r7, #116]	; 0x74
10008244:	6f39      	ldr	r1, [r7, #112]	; 0x70
10008246:	041b      	lsls	r3, r3, #16
10008248:	4323      	orrs	r3, r4
1000824a:	663b      	str	r3, [r7, #96]	; 0x60
1000824c:	667a      	str	r2, [r7, #100]	; 0x64
1000824e:	e7ff      	b.n	10008250 <y64+0x2c>
10008250:	e7ff      	b.n	10008252 <y64+0x2e>
10008252:	e7ff      	b.n	10008254 <y64+0x30>
10008254:	46c0      	nop			; (mov r8, r8)
10008256:	b284      	uxth	r4, r0
10008258:	6f7b      	ldr	r3, [r7, #116]	; 0x74
1000825a:	6f3d      	ldr	r5, [r7, #112]	; 0x70
1000825c:	041b      	lsls	r3, r3, #16
1000825e:	4323      	orrs	r3, r4
10008260:	663b      	str	r3, [r7, #96]	; 0x60
10008262:	667a      	str	r2, [r7, #100]	; 0x64
10008264:	e7ff      	b.n	10008266 <y64+0x42>
10008266:	e7ff      	b.n	10008268 <y64+0x44>
10008268:	46c0      	nop			; (mov r8, r8)
1000826a:	2300      	movs	r3, #0
1000826c:	042c      	lsls	r4, r5, #16
1000826e:	0c2d      	lsrs	r5, r5, #16
10008270:	6f7a      	ldr	r2, [r7, #116]	; 0x74
10008272:	6f38      	ldr	r0, [r7, #112]	; 0x70
10008274:	1900      	adds	r0, r0, r4
10008276:	4169      	adcs	r1, r5
10008278:	bcb0      	pop	{r4, r5, r7}
1000827a:	4770      	bx	lr
1000827c:	d0000000 	.word	0xd0000000

10008280 <y64_x32>:
10008280:	b5f0      	push	{r4, r5, r6, r7, lr}
10008282:	4694      	mov	ip, r2
10008284:	2500      	movs	r5, #0
10008286:	0e14      	lsrs	r4, r2, #24
10008288:	d101      	bne.n	1000828e <y64_x32+0xe>
1000828a:	0212      	lsls	r2, r2, #8
1000828c:	3508      	adds	r5, #8
1000828e:	0f14      	lsrs	r4, r2, #28
10008290:	d101      	bne.n	10008296 <y64_x32+0x16>
10008292:	0112      	lsls	r2, r2, #4
10008294:	3504      	adds	r5, #4
10008296:	0f94      	lsrs	r4, r2, #30
10008298:	d101      	bne.n	1000829e <y64_x32+0x1e>
1000829a:	0092      	lsls	r2, r2, #2
1000829c:	3502      	adds	r5, #2
1000829e:	0fd4      	lsrs	r4, r2, #31
100082a0:	d101      	bne.n	100082a6 <y64_x32+0x26>
100082a2:	0052      	lsls	r2, r2, #1
100082a4:	3501      	adds	r5, #1
100082a6:	0bd4      	lsrs	r4, r2, #15
100082a8:	3401      	adds	r4, #1
100082aa:	4f25      	ldr	r7, [pc, #148]	; (10008340 <y64_x32+0xc0>)
100082ac:	667c      	str	r4, [r7, #100]	; 0x64
100082ae:	4c25      	ldr	r4, [pc, #148]	; (10008344 <y64_x32+0xc4>)
100082b0:	663c      	str	r4, [r7, #96]	; 0x60
100082b2:	0c0e      	lsrs	r6, r1, #16
100082b4:	b293      	uxth	r3, r2
100082b6:	e7ff      	b.n	100082b8 <y64_x32+0x38>
100082b8:	e7ff      	b.n	100082ba <y64_x32+0x3a>
100082ba:	e7ff      	b.n	100082bc <y64_x32+0x3c>
100082bc:	6f3c      	ldr	r4, [r7, #112]	; 0x70
100082be:	4366      	muls	r6, r4
100082c0:	0c36      	lsrs	r6, r6, #16
100082c2:	0377      	lsls	r7, r6, #13
100082c4:	46be      	mov	lr, r7
100082c6:	4373      	muls	r3, r6
100082c8:	0bdf      	lsrs	r7, r3, #15
100082ca:	045b      	lsls	r3, r3, #17
100082cc:	1ac0      	subs	r0, r0, r3
100082ce:	41b9      	sbcs	r1, r7
100082d0:	0c13      	lsrs	r3, r2, #16
100082d2:	4373      	muls	r3, r6
100082d4:	18db      	adds	r3, r3, r3
100082d6:	1ac9      	subs	r1, r1, r3
100082d8:	08ce      	lsrs	r6, r1, #3
100082da:	4366      	muls	r6, r4
100082dc:	0c36      	lsrs	r6, r6, #16
100082de:	44b6      	add	lr, r6
100082e0:	b293      	uxth	r3, r2
100082e2:	4373      	muls	r3, r6
100082e4:	0f1f      	lsrs	r7, r3, #28
100082e6:	011b      	lsls	r3, r3, #4
100082e8:	1ac0      	subs	r0, r0, r3
100082ea:	41b9      	sbcs	r1, r7
100082ec:	0c13      	lsrs	r3, r2, #16
100082ee:	4373      	muls	r3, r6
100082f0:	0b1f      	lsrs	r7, r3, #12
100082f2:	051b      	lsls	r3, r3, #20
100082f4:	1ac0      	subs	r0, r0, r3
100082f6:	41b9      	sbcs	r1, r7
100082f8:	0d86      	lsrs	r6, r0, #22
100082fa:	028f      	lsls	r7, r1, #10
100082fc:	433e      	orrs	r6, r7
100082fe:	4366      	muls	r6, r4
10008300:	0c36      	lsrs	r6, r6, #16
10008302:	2d09      	cmp	r5, #9
10008304:	db24      	blt.n	10008350 <last0>
10008306:	0a52      	lsrs	r2, r2, #9
10008308:	4372      	muls	r2, r6
1000830a:	1a80      	subs	r0, r0, r2
1000830c:	0377      	lsls	r7, r6, #13
1000830e:	0a46      	lsrs	r6, r0, #9
10008310:	4366      	muls	r6, r4
10008312:	0c36      	lsrs	r6, r6, #16
10008314:	2316      	movs	r3, #22
10008316:	1b5b      	subs	r3, r3, r5
10008318:	40de      	lsrs	r6, r3
1000831a:	40df      	lsrs	r7, r3
1000831c:	19bf      	adds	r7, r7, r6
1000831e:	4664      	mov	r4, ip
10008320:	4366      	muls	r6, r4
10008322:	1b82      	subs	r2, r0, r6
10008324:	4670      	mov	r0, lr
10008326:	3504      	adds	r5, #4
10008328:	3306      	adds	r3, #6
1000832a:	0001      	movs	r1, r0
1000832c:	40d9      	lsrs	r1, r3
1000832e:	40a8      	lsls	r0, r5
10008330:	19c0      	adds	r0, r0, r7
10008332:	d300      	bcc.n	10008336 <y64_x32+0xb6>
10008334:	3101      	adds	r1, #1
10008336:	42a2      	cmp	r2, r4
10008338:	d206      	bcs.n	10008348 <y64_x32+0xc8>
1000833a:	2300      	movs	r3, #0
1000833c:	bdf0      	pop	{r4, r5, r6, r7, pc}
1000833e:	0000      	.short	0x0000
10008340:	d0000000 	.word	0xd0000000
10008344:	ffffffff 	.word	0xffffffff
10008348:	1b12      	subs	r2, r2, r4
1000834a:	3001      	adds	r0, #1
1000834c:	d3f3      	bcc.n	10008336 <y64_x32+0xb6>
1000834e:	e7f1      	b.n	10008334 <y64_x32+0xb4>

10008350 <last0>:
10008350:	2709      	movs	r7, #9
10008352:	1b7f      	subs	r7, r7, r5
10008354:	40fe      	lsrs	r6, r7
10008356:	4664      	mov	r4, ip
10008358:	b2a2      	uxth	r2, r4
1000835a:	4372      	muls	r2, r6
1000835c:	1a80      	subs	r0, r0, r2
1000835e:	d200      	bcs.n	10008362 <last0+0x12>
10008360:	3901      	subs	r1, #1
10008362:	0c22      	lsrs	r2, r4, #16
10008364:	4372      	muls	r2, r6
10008366:	0c13      	lsrs	r3, r2, #16
10008368:	0412      	lsls	r2, r2, #16
1000836a:	1a82      	subs	r2, r0, r2
1000836c:	4199      	sbcs	r1, r3
1000836e:	000b      	movs	r3, r1
10008370:	4670      	mov	r0, lr
10008372:	3504      	adds	r5, #4
10008374:	3713      	adds	r7, #19
10008376:	0001      	movs	r1, r0
10008378:	40f9      	lsrs	r1, r7
1000837a:	40a8      	lsls	r0, r5
1000837c:	1980      	adds	r0, r0, r6
1000837e:	d300      	bcc.n	10008382 <last0+0x32>
10008380:	3101      	adds	r1, #1
10008382:	2b00      	cmp	r3, #0
10008384:	d102      	bne.n	1000838c <last0+0x3c>
10008386:	42a2      	cmp	r2, r4
10008388:	d20a      	bcs.n	100083a0 <last0+0x50>
1000838a:	bdf0      	pop	{r4, r5, r6, r7, pc}
1000838c:	3001      	adds	r0, #1
1000838e:	d300      	bcc.n	10008392 <last0+0x42>
10008390:	3101      	adds	r1, #1
10008392:	1b12      	subs	r2, r2, r4
10008394:	d2fa      	bcs.n	1000838c <last0+0x3c>
10008396:	3b01      	subs	r3, #1
10008398:	d1f8      	bne.n	1000838c <last0+0x3c>
1000839a:	42a2      	cmp	r2, r4
1000839c:	d200      	bcs.n	100083a0 <last0+0x50>
1000839e:	bdf0      	pop	{r4, r5, r6, r7, pc}
100083a0:	3001      	adds	r0, #1
100083a2:	d300      	bcc.n	100083a6 <last0+0x56>
100083a4:	3101      	adds	r1, #1
100083a6:	1b12      	subs	r2, r2, r4
100083a8:	e7f7      	b.n	1000839a <last0+0x4a>

100083aa <y64_x48>:
100083aa:	b5f0      	push	{r4, r5, r6, r7, lr}
100083ac:	0c1c      	lsrs	r4, r3, #16
100083ae:	d000      	beq.n	100083b2 <y64_x48+0x8>
100083b0:	e080      	b.n	100084b4 <y64_x64>
100083b2:	b40c      	push	{r2, r3}
100083b4:	2500      	movs	r5, #0
100083b6:	0a1c      	lsrs	r4, r3, #8
100083b8:	d104      	bne.n	100083c4 <y64_x48+0x1a>
100083ba:	021b      	lsls	r3, r3, #8
100083bc:	0e16      	lsrs	r6, r2, #24
100083be:	4333      	orrs	r3, r6
100083c0:	0212      	lsls	r2, r2, #8
100083c2:	3508      	adds	r5, #8
100083c4:	0b1c      	lsrs	r4, r3, #12
100083c6:	d104      	bne.n	100083d2 <y64_x48+0x28>
100083c8:	011b      	lsls	r3, r3, #4
100083ca:	0f16      	lsrs	r6, r2, #28
100083cc:	4333      	orrs	r3, r6
100083ce:	0112      	lsls	r2, r2, #4
100083d0:	3504      	adds	r5, #4
100083d2:	0b9c      	lsrs	r4, r3, #14
100083d4:	d104      	bne.n	100083e0 <y64_x48+0x36>
100083d6:	009b      	lsls	r3, r3, #2
100083d8:	0f96      	lsrs	r6, r2, #30
100083da:	4333      	orrs	r3, r6
100083dc:	0092      	lsls	r2, r2, #2
100083de:	3502      	adds	r5, #2
100083e0:	0bdc      	lsrs	r4, r3, #15
100083e2:	d102      	bne.n	100083ea <y64_x48+0x40>
100083e4:	1892      	adds	r2, r2, r2
100083e6:	415b      	adcs	r3, r3
100083e8:	3501      	adds	r5, #1
100083ea:	001c      	movs	r4, r3
100083ec:	1897      	adds	r7, r2, r2
100083ee:	4164      	adcs	r4, r4
100083f0:	3401      	adds	r4, #1
100083f2:	4f46      	ldr	r7, [pc, #280]	; (1000850c <y64_x64+0x58>)
100083f4:	667c      	str	r4, [r7, #100]	; 0x64
100083f6:	4c46      	ldr	r4, [pc, #280]	; (10008510 <y64_x64+0x5c>)
100083f8:	663c      	str	r4, [r7, #96]	; 0x60
100083fa:	0c0e      	lsrs	r6, r1, #16
100083fc:	e7ff      	b.n	100083fe <y64_x48+0x54>
100083fe:	e7ff      	b.n	10008400 <y64_x48+0x56>
10008400:	e7ff      	b.n	10008402 <y64_x48+0x58>
10008402:	46c0      	nop			; (mov r8, r8)
10008404:	6f3c      	ldr	r4, [r7, #112]	; 0x70
10008406:	4366      	muls	r6, r4
10008408:	0c36      	lsrs	r6, r6, #16
1000840a:	0377      	lsls	r7, r6, #13
1000840c:	46be      	mov	lr, r7
1000840e:	b297      	uxth	r7, r2
10008410:	4377      	muls	r7, r6
10008412:	1bc0      	subs	r0, r0, r7
10008414:	d200      	bcs.n	10008418 <y64_x48+0x6e>
10008416:	3901      	subs	r1, #1
10008418:	1bc0      	subs	r0, r0, r7
1000841a:	d200      	bcs.n	1000841e <y64_x48+0x74>
1000841c:	3901      	subs	r1, #1
1000841e:	b29f      	uxth	r7, r3
10008420:	4377      	muls	r7, r6
10008422:	1bc9      	subs	r1, r1, r7
10008424:	1bc9      	subs	r1, r1, r7
10008426:	0c17      	lsrs	r7, r2, #16
10008428:	4377      	muls	r7, r6
1000842a:	047e      	lsls	r6, r7, #17
1000842c:	0bff      	lsrs	r7, r7, #15
1000842e:	1b80      	subs	r0, r0, r6
10008430:	41b9      	sbcs	r1, r7
10008432:	08ce      	lsrs	r6, r1, #3
10008434:	4366      	muls	r6, r4
10008436:	0c36      	lsrs	r6, r6, #16
10008438:	2d0c      	cmp	r5, #12
1000843a:	db33      	blt.n	100084a4 <last1>
1000843c:	44b6      	add	lr, r6
1000843e:	0b12      	lsrs	r2, r2, #12
10008440:	051f      	lsls	r7, r3, #20
10008442:	433a      	orrs	r2, r7
10008444:	0b1b      	lsrs	r3, r3, #12
10008446:	b297      	uxth	r7, r2
10008448:	4377      	muls	r7, r6
1000844a:	1bc0      	subs	r0, r0, r7
1000844c:	d200      	bcs.n	10008450 <y64_x48+0xa6>
1000844e:	3901      	subs	r1, #1
10008450:	b29f      	uxth	r7, r3
10008452:	4377      	muls	r7, r6
10008454:	1bc9      	subs	r1, r1, r7
10008456:	0c17      	lsrs	r7, r2, #16
10008458:	4377      	muls	r7, r6
1000845a:	043e      	lsls	r6, r7, #16
1000845c:	0c3f      	lsrs	r7, r7, #16
1000845e:	1b80      	subs	r0, r0, r6
10008460:	41b9      	sbcs	r1, r7
10008462:	0d86      	lsrs	r6, r0, #22
10008464:	028f      	lsls	r7, r1, #10
10008466:	433e      	orrs	r6, r7
10008468:	4366      	muls	r6, r4
1000846a:	2729      	movs	r7, #41	; 0x29
1000846c:	1b7f      	subs	r7, r7, r5
1000846e:	40fe      	lsrs	r6, r7
10008470:	3d0c      	subs	r5, #12
10008472:	4677      	mov	r7, lr
10008474:	40af      	lsls	r7, r5
10008476:	19bf      	adds	r7, r7, r6
10008478:	bc30      	pop	{r4, r5}
1000847a:	b2a2      	uxth	r2, r4
1000847c:	b2ab      	uxth	r3, r5
1000847e:	4372      	muls	r2, r6
10008480:	4373      	muls	r3, r6
10008482:	1a80      	subs	r0, r0, r2
10008484:	4199      	sbcs	r1, r3
10008486:	0c22      	lsrs	r2, r4, #16
10008488:	4372      	muls	r2, r6
1000848a:	0c13      	lsrs	r3, r2, #16
1000848c:	0412      	lsls	r2, r2, #16
1000848e:	1a80      	subs	r0, r0, r2
10008490:	4199      	sbcs	r1, r3
10008492:	0002      	movs	r2, r0
10008494:	000b      	movs	r3, r1
10008496:	3701      	adds	r7, #1
10008498:	1b00      	subs	r0, r0, r4
1000849a:	41a9      	sbcs	r1, r5
1000849c:	d2f9      	bcs.n	10008492 <y64_x48+0xe8>
1000849e:	1e78      	subs	r0, r7, #1
100084a0:	2100      	movs	r1, #0
100084a2:	bdf0      	pop	{r4, r5, r6, r7, pc}

100084a4 <last1>:
100084a4:	270c      	movs	r7, #12
100084a6:	1b7f      	subs	r7, r7, r5
100084a8:	40fe      	lsrs	r6, r7
100084aa:	4677      	mov	r7, lr
100084ac:	0b7f      	lsrs	r7, r7, #13
100084ae:	40af      	lsls	r7, r5
100084b0:	19ff      	adds	r7, r7, r7
100084b2:	e7e0      	b.n	10008476 <y64_x48+0xcc>

100084b4 <y64_x64>:
100084b4:	2400      	movs	r4, #0
100084b6:	1c5d      	adds	r5, r3, #1
100084b8:	d007      	beq.n	100084ca <y64_x64+0x16>
100084ba:	4f14      	ldr	r7, [pc, #80]	; (1000850c <y64_x64+0x58>)
100084bc:	667d      	str	r5, [r7, #100]	; 0x64
100084be:	6639      	str	r1, [r7, #96]	; 0x60
100084c0:	e7ff      	b.n	100084c2 <y64_x64+0xe>
100084c2:	e7ff      	b.n	100084c4 <y64_x64+0x10>
100084c4:	e7ff      	b.n	100084c6 <y64_x64+0x12>
100084c6:	e7ff      	b.n	100084c8 <y64_x64+0x14>
100084c8:	6f3c      	ldr	r4, [r7, #112]	; 0x70
100084ca:	b295      	uxth	r5, r2
100084cc:	b29e      	uxth	r6, r3
100084ce:	4365      	muls	r5, r4
100084d0:	4366      	muls	r6, r4
100084d2:	1b40      	subs	r0, r0, r5
100084d4:	41b1      	sbcs	r1, r6
100084d6:	0c15      	lsrs	r5, r2, #16
100084d8:	0c1e      	lsrs	r6, r3, #16
100084da:	4365      	muls	r5, r4
100084dc:	4366      	muls	r6, r4
100084de:	0436      	lsls	r6, r6, #16
100084e0:	0c2f      	lsrs	r7, r5, #16
100084e2:	433e      	orrs	r6, r7
100084e4:	042d      	lsls	r5, r5, #16
100084e6:	1b40      	subs	r0, r0, r5
100084e8:	41b1      	sbcs	r1, r6
100084ea:	4299      	cmp	r1, r3
100084ec:	d204      	bcs.n	100084f8 <y64_x64+0x44>
100084ee:	0002      	movs	r2, r0
100084f0:	000b      	movs	r3, r1
100084f2:	0020      	movs	r0, r4
100084f4:	2100      	movs	r1, #0
100084f6:	bdf0      	pop	{r4, r5, r6, r7, pc}
100084f8:	d101      	bne.n	100084fe <y64_x64+0x4a>
100084fa:	4290      	cmp	r0, r2
100084fc:	d3f7      	bcc.n	100084ee <y64_x64+0x3a>
100084fe:	1a80      	subs	r0, r0, r2
10008500:	4199      	sbcs	r1, r3
10008502:	3401      	adds	r4, #1
10008504:	4299      	cmp	r1, r3
10008506:	d3f2      	bcc.n	100084ee <y64_x64+0x3a>
10008508:	e7f6      	b.n	100084f8 <y64_x64+0x44>
1000850a:	0000      	.short	0x0000
1000850c:	d0000000 	.word	0xd0000000
10008510:	ffffffff 	.word	0xffffffff

10008514 <__wrap___aeabi_drsub>:
10008514:	4048      	eors	r0, r1
10008516:	4041      	eors	r1, r0
10008518:	4048      	eors	r0, r1

1000851a <__wrap___aeabi_dsub>:
1000851a:	b418      	push	{r3, r4}
1000851c:	4b13      	ldr	r3, [pc, #76]	; (1000856c <__wrap___aeabi_dmul+0xa>)
1000851e:	685b      	ldr	r3, [r3, #4]
10008520:	9301      	str	r3, [sp, #4]
10008522:	bd08      	pop	{r3, pc}

10008524 <__wrap___aeabi_dadd>:
10008524:	b418      	push	{r3, r4}
10008526:	4b11      	ldr	r3, [pc, #68]	; (1000856c <__wrap___aeabi_dmul+0xa>)
10008528:	681b      	ldr	r3, [r3, #0]
1000852a:	9301      	str	r3, [sp, #4]
1000852c:	bd08      	pop	{r3, pc}

1000852e <__wrap___aeabi_ddiv>:
1000852e:	4694      	mov	ip, r2
10008530:	4a0f      	ldr	r2, [pc, #60]	; (10008570 <__wrap___aeabi_dmul+0xe>)
10008532:	6f92      	ldr	r2, [r2, #120]	; 0x78
10008534:	0892      	lsrs	r2, r2, #2
10008536:	d205      	bcs.n	10008544 <ddiv_save_state>
10008538:	4662      	mov	r2, ip

1000853a <ddiv_shim_call>:
1000853a:	b418      	push	{r3, r4}
1000853c:	4b0b      	ldr	r3, [pc, #44]	; (1000856c <__wrap___aeabi_dmul+0xa>)
1000853e:	68db      	ldr	r3, [r3, #12]
10008540:	9301      	str	r3, [sp, #4]
10008542:	bd08      	pop	{r3, pc}

10008544 <ddiv_save_state>:
10008544:	4a0a      	ldr	r2, [pc, #40]	; (10008570 <__wrap___aeabi_dmul+0xe>)
10008546:	b5f0      	push	{r4, r5, r6, r7, lr}
10008548:	6e14      	ldr	r4, [r2, #96]	; 0x60
1000854a:	6e55      	ldr	r5, [r2, #100]	; 0x64
1000854c:	6f57      	ldr	r7, [r2, #116]	; 0x74
1000854e:	6f16      	ldr	r6, [r2, #112]	; 0x70
10008550:	4662      	mov	r2, ip
10008552:	f7ff fff2 	bl	1000853a <ddiv_shim_call>
10008556:	4a06      	ldr	r2, [pc, #24]	; (10008570 <__wrap___aeabi_dmul+0xe>)
10008558:	6614      	str	r4, [r2, #96]	; 0x60
1000855a:	6655      	str	r5, [r2, #100]	; 0x64
1000855c:	6757      	str	r7, [r2, #116]	; 0x74
1000855e:	6716      	str	r6, [r2, #112]	; 0x70
10008560:	bdf0      	pop	{r4, r5, r6, r7, pc}

10008562 <__wrap___aeabi_dmul>:
10008562:	b418      	push	{r3, r4}
10008564:	4b01      	ldr	r3, [pc, #4]	; (1000856c <__wrap___aeabi_dmul+0xa>)
10008566:	689b      	ldr	r3, [r3, #8]
10008568:	9301      	str	r3, [sp, #4]
1000856a:	bd08      	pop	{r3, pc}
1000856c:	20002908 	.word	0x20002908
10008570:	d0000000 	.word	0xd0000000

10008574 <__wrap___aeabi_cdrcmple>:
10008574:	b5ff      	push	{r0, r1, r2, r3, r4, r5, r6, r7, lr}
10008576:	4050      	eors	r0, r2
10008578:	4042      	eors	r2, r0
1000857a:	4050      	eors	r0, r2
1000857c:	4059      	eors	r1, r3
1000857e:	404b      	eors	r3, r1
10008580:	4059      	eors	r1, r3
10008582:	e000      	b.n	10008586 <__aeabi_dfcmple_guts>

10008584 <__wrap___aeabi_cdcmpeq>:
10008584:	b5ff      	push	{r0, r1, r2, r3, r4, r5, r6, r7, lr}

10008586 <__aeabi_dfcmple_guts>:
10008586:	4f15      	ldr	r7, [pc, #84]	; (100085dc <__aeabi_dfcmple_guts+0x56>)
10008588:	004c      	lsls	r4, r1, #1
1000858a:	0d64      	lsrs	r4, r4, #21
1000858c:	d003      	beq.n	10008596 <__aeabi_dfcmple_guts+0x10>
1000858e:	42bc      	cmp	r4, r7
10008590:	d104      	bne.n	1000859c <__aeabi_dfcmple_guts+0x16>
10008592:	030c      	lsls	r4, r1, #12
10008594:	d814      	bhi.n	100085c0 <__aeabi_dfcmple_guts+0x3a>
10008596:	2000      	movs	r0, #0
10008598:	0d09      	lsrs	r1, r1, #20
1000859a:	0509      	lsls	r1, r1, #20
1000859c:	005c      	lsls	r4, r3, #1
1000859e:	0d64      	lsrs	r4, r4, #21
100085a0:	d003      	beq.n	100085aa <__aeabi_dfcmple_guts+0x24>
100085a2:	42bc      	cmp	r4, r7
100085a4:	d104      	bne.n	100085b0 <__aeabi_dfcmple_guts+0x2a>
100085a6:	031c      	lsls	r4, r3, #12
100085a8:	d80a      	bhi.n	100085c0 <__aeabi_dfcmple_guts+0x3a>
100085aa:	2200      	movs	r2, #0
100085ac:	0d1b      	lsrs	r3, r3, #20
100085ae:	051b      	lsls	r3, r3, #20
100085b0:	2601      	movs	r6, #1
100085b2:	404b      	eors	r3, r1
100085b4:	d409      	bmi.n	100085ca <__aeabi_dfcmple_guts+0x44>
100085b6:	404b      	eors	r3, r1
100085b8:	d503      	bpl.n	100085c2 <__aeabi_dfcmple_guts+0x3c>
100085ba:	428b      	cmp	r3, r1
100085bc:	d100      	bne.n	100085c0 <__aeabi_dfcmple_guts+0x3a>
100085be:	4282      	cmp	r2, r0
100085c0:	bdff      	pop	{r0, r1, r2, r3, r4, r5, r6, r7, pc}
100085c2:	4299      	cmp	r1, r3
100085c4:	d1fc      	bne.n	100085c0 <__aeabi_dfcmple_guts+0x3a>
100085c6:	4290      	cmp	r0, r2
100085c8:	bdff      	pop	{r0, r1, r2, r3, r4, r5, r6, r7, pc}
100085ca:	430b      	orrs	r3, r1
100085cc:	18db      	adds	r3, r3, r3
100085ce:	4303      	orrs	r3, r0
100085d0:	4313      	orrs	r3, r2
100085d2:	d0f5      	beq.n	100085c0 <__aeabi_dfcmple_guts+0x3a>
100085d4:	43c9      	mvns	r1, r1
100085d6:	1849      	adds	r1, r1, r1
100085d8:	bdff      	pop	{r0, r1, r2, r3, r4, r5, r6, r7, pc}
100085da:	0000      	.short	0x0000
100085dc:	000007ff 	.word	0x000007ff

100085e0 <__wrap___aeabi_dcmplt>:
100085e0:	b500      	push	{lr}
100085e2:	f7ff ffcf 	bl	10008584 <__wrap___aeabi_cdcmpeq>
100085e6:	4180      	sbcs	r0, r0
100085e8:	bd00      	pop	{pc}
100085ea:	46c0      	nop			; (mov r8, r8)

100085ec <__wrap___aeabi_dcmple>:
100085ec:	b500      	push	{lr}
100085ee:	f7ff ffc9 	bl	10008584 <__wrap___aeabi_cdcmpeq>
100085f2:	d901      	bls.n	100085f8 <__wrap___aeabi_dcmple+0xc>
100085f4:	2000      	movs	r0, #0
100085f6:	bd00      	pop	{pc}
100085f8:	2001      	movs	r0, #1
100085fa:	bd00      	pop	{pc}

100085fc <__wrap___aeabi_dcmpge>:
100085fc:	b500      	push	{lr}
100085fe:	f7ff ffb9 	bl	10008574 <__wrap___aeabi_cdrcmple>
10008602:	d901      	bls.n	10008608 <__wrap___aeabi_dcmpge+0xc>
10008604:	2000      	movs	r0, #0
10008606:	bd00      	pop	{pc}
10008608:	2001      	movs	r0, #1
1000860a:	bd00      	pop	{pc}

1000860c <__wrap___aeabi_dcmpgt>:
1000860c:	b500      	push	{lr}
1000860e:	f7ff ffb1 	bl	10008574 <__wrap___aeabi_cdrcmple>
10008612:	4180      	sbcs	r0, r0
10008614:	bd00      	pop	{pc}

10008616 <__wrap___aeabi_dcmpun>:
10008616:	2001      	movs	r0, #1
10008618:	0540      	lsls	r0, r0, #21
1000861a:	004a      	lsls	r2, r1, #1
1000861c:	1812      	adds	r2, r2, r0
1000861e:	d804      	bhi.n	1000862a <__wrap___aeabi_dcmpun+0x14>
10008620:	005a      	lsls	r2, r3, #1
10008622:	1812      	adds	r2, r2, r0
10008624:	d801      	bhi.n	1000862a <__wrap___aeabi_dcmpun+0x14>
10008626:	2000      	movs	r0, #0
10008628:	4770      	bx	lr
1000862a:	2001      	movs	r0, #1
1000862c:	4770      	bx	lr
1000862e:	2000      	movs	r0, #0
10008630:	4770      	bx	lr
	...

10008634 <__wrap___aeabi_ui2d>:
10008634:	2100      	movs	r1, #0
10008636:	2800      	cmp	r0, #0
10008638:	d105      	bne.n	10008646 <__wrap___aeabi_i2d+0xa>
1000863a:	4770      	bx	lr

1000863c <__wrap___aeabi_i2d>:
1000863c:	17c1      	asrs	r1, r0, #31
1000863e:	4048      	eors	r0, r1
10008640:	1a40      	subs	r0, r0, r1
10008642:	d0fa      	beq.n	1000863a <__wrap___aeabi_ui2d+0x6>
10008644:	07c9      	lsls	r1, r1, #31
10008646:	b513      	push	{r0, r1, r4, lr}
10008648:	4b06      	ldr	r3, [pc, #24]	; (10008664 <__wrap___aeabi_i2d+0x28>)
1000864a:	681b      	ldr	r3, [r3, #0]
1000864c:	4798      	blx	r3
1000864e:	bc0c      	pop	{r2, r3}
10008650:	1c44      	adds	r4, r0, #1
10008652:	40a2      	lsls	r2, r4
10008654:	0510      	lsls	r0, r2, #20
10008656:	0b12      	lsrs	r2, r2, #12
10008658:	4903      	ldr	r1, [pc, #12]	; (10008668 <__wrap___aeabi_i2d+0x2c>)
1000865a:	1b09      	subs	r1, r1, r4
1000865c:	0509      	lsls	r1, r1, #20
1000865e:	4319      	orrs	r1, r3
10008660:	4311      	orrs	r1, r2
10008662:	bd10      	pop	{r4, pc}
10008664:	20002a08 	.word	0x20002a08
10008668:	0000041f 	.word	0x0000041f

1000866c <__wrap___aeabi_d2iz>:
1000866c:	b510      	push	{r4, lr}
1000866e:	004c      	lsls	r4, r1, #1
10008670:	0d62      	lsrs	r2, r4, #21
10008672:	2380      	movs	r3, #128	; 0x80
10008674:	18d2      	adds	r2, r2, r3
10008676:	00db      	lsls	r3, r3, #3
10008678:	1ad2      	subs	r2, r2, r3
1000867a:	055b      	lsls	r3, r3, #21
1000867c:	2a7e      	cmp	r2, #126	; 0x7e
1000867e:	dd10      	ble.n	100086a2 <__wrap___aeabi_d2iz+0x36>
10008680:	3a9e      	subs	r2, #158	; 0x9e
10008682:	da13      	bge.n	100086ac <__wrap___aeabi_d2iz+0x40>
10008684:	17cc      	asrs	r4, r1, #31
10008686:	0309      	lsls	r1, r1, #12
10008688:	0849      	lsrs	r1, r1, #1
1000868a:	4319      	orrs	r1, r3
1000868c:	4252      	negs	r2, r2
1000868e:	40d1      	lsrs	r1, r2
10008690:	0064      	lsls	r4, r4, #1
10008692:	3401      	adds	r4, #1
10008694:	3215      	adds	r2, #21
10008696:	2a20      	cmp	r2, #32
10008698:	da05      	bge.n	100086a6 <__wrap___aeabi_d2iz+0x3a>
1000869a:	40d0      	lsrs	r0, r2
1000869c:	4308      	orrs	r0, r1
1000869e:	4360      	muls	r0, r4
100086a0:	bd10      	pop	{r4, pc}
100086a2:	2000      	movs	r0, #0
100086a4:	bd10      	pop	{r4, pc}
100086a6:	4608      	mov	r0, r1
100086a8:	4360      	muls	r0, r4
100086aa:	bd10      	pop	{r4, pc}
100086ac:	0fc8      	lsrs	r0, r1, #31
100086ae:	18c0      	adds	r0, r0, r3
100086b0:	3801      	subs	r0, #1
100086b2:	bd10      	pop	{r4, pc}

100086b4 <__wrap___aeabi_d2uiz>:
100086b4:	b418      	push	{r3, r4}
100086b6:	4b02      	ldr	r3, [pc, #8]	; (100086c0 <__wrap___aeabi_d2uiz+0xc>)
100086b8:	6a5b      	ldr	r3, [r3, #36]	; 0x24
100086ba:	9301      	str	r3, [sp, #4]
100086bc:	bd08      	pop	{r3, pc}
100086be:	0000      	.short	0x0000
100086c0:	20002908 	.word	0x20002908

100086c4 <__wrap___aeabi_d2f>:
100086c4:	b418      	push	{r3, r4}
100086c6:	4b02      	ldr	r3, [pc, #8]	; (100086d0 <__wrap___aeabi_d2f+0xc>)
100086c8:	6fdb      	ldr	r3, [r3, #124]	; 0x7c
100086ca:	9301      	str	r3, [sp, #4]
100086cc:	bd08      	pop	{r3, pc}
100086ce:	0000      	.short	0x0000
100086d0:	20002908 	.word	0x20002908

100086d4 <missing_double_func_shim>:
100086d4:	b510      	push	{r4, lr}
100086d6:	4801      	ldr	r0, [pc, #4]	; (100086dc <missing_double_func_shim+0x8>)
100086d8:	f7fe f9ec 	bl	10006ab4 <panic>
100086dc:	1000a7f0 	.word	0x1000a7f0

100086e0 <__aeabi_double_init>:
100086e0:	b570      	push	{r4, r5, r6, lr}
100086e2:	2313      	movs	r3, #19
100086e4:	781c      	ldrb	r4, [r3, #0]
100086e6:	2c01      	cmp	r4, #1
100086e8:	d014      	beq.n	10008714 <__aeabi_double_init+0x34>
100086ea:	2c01      	cmp	r4, #1
100086ec:	dc14      	bgt.n	10008718 <__aeabi_double_init+0x38>
100086ee:	2c02      	cmp	r4, #2
100086f0:	dc02      	bgt.n	100086f8 <__aeabi_double_init+0x18>
100086f2:	4a1f      	ldr	r2, [pc, #124]	; (10008770 <__aeabi_double_init+0x90>)
100086f4:	4b1f      	ldr	r3, [pc, #124]	; (10008774 <__aeabi_double_init+0x94>)
100086f6:	649a      	str	r2, [r3, #72]	; 0x48
100086f8:	481f      	ldr	r0, [pc, #124]	; (10008778 <__aeabi_double_init+0x98>)
100086fa:	f7ff fc77 	bl	10007fec <rom_func_lookup>
100086fe:	4b1f      	ldr	r3, [pc, #124]	; (1000877c <__aeabi_double_init+0x9c>)
10008700:	6018      	str	r0, [r3, #0]
10008702:	bd70      	pop	{r4, r5, r6, pc}
10008704:	0099      	lsls	r1, r3, #2
10008706:	481e      	ldr	r0, [pc, #120]	; (10008780 <__aeabi_double_init+0xa0>)
10008708:	4a1a      	ldr	r2, [pc, #104]	; (10008774 <__aeabi_double_init+0x94>)
1000870a:	5088      	str	r0, [r1, r2]
1000870c:	3301      	adds	r3, #1
1000870e:	2b1f      	cmp	r3, #31
10008710:	d9f8      	bls.n	10008704 <__aeabi_double_init+0x24>
10008712:	e7ea      	b.n	100086ea <__aeabi_double_init+0xa>
10008714:	2300      	movs	r3, #0
10008716:	e7fa      	b.n	1000870e <__aeabi_double_init+0x2e>
10008718:	481a      	ldr	r0, [pc, #104]	; (10008784 <__aeabi_double_init+0xa4>)
1000871a:	f7ff fc6f 	bl	10007ffc <rom_data_lookup>
1000871e:	0005      	movs	r5, r0
10008720:	4819      	ldr	r0, [pc, #100]	; (10008788 <__aeabi_double_init+0xa8>)
10008722:	f7ff fc6b 	bl	10007ffc <rom_data_lookup>
10008726:	3802      	subs	r0, #2
10008728:	7803      	ldrb	r3, [r0, #0]
1000872a:	009b      	lsls	r3, r3, #2
1000872c:	2b7f      	cmp	r3, #127	; 0x7f
1000872e:	dd19      	ble.n	10008764 <__aeabi_double_init+0x84>
10008730:	2280      	movs	r2, #128	; 0x80
10008732:	0029      	movs	r1, r5
10008734:	480f      	ldr	r0, [pc, #60]	; (10008774 <__aeabi_double_init+0x94>)
10008736:	f000 f91d 	bl	10008974 <__wrap___aeabi_memcpy>
1000873a:	2c02      	cmp	r4, #2
1000873c:	d1d7      	bne.n	100086ee <__aeabi_double_init+0xe>
1000873e:	4b13      	ldr	r3, [pc, #76]	; (1000878c <__aeabi_double_init+0xac>)
10008740:	881a      	ldrh	r2, [r3, #0]
10008742:	23b5      	movs	r3, #181	; 0xb5
10008744:	021b      	lsls	r3, r3, #8
10008746:	429a      	cmp	r2, r3
10008748:	d109      	bne.n	1000875e <__aeabi_double_init+0x7e>
1000874a:	4b11      	ldr	r3, [pc, #68]	; (10008790 <__aeabi_double_init+0xb0>)
1000874c:	881a      	ldrh	r2, [r3, #0]
1000874e:	4b11      	ldr	r3, [pc, #68]	; (10008794 <__aeabi_double_init+0xb4>)
10008750:	429a      	cmp	r2, r3
10008752:	d104      	bne.n	1000875e <__aeabi_double_init+0x7e>
10008754:	4b10      	ldr	r3, [pc, #64]	; (10008798 <__aeabi_double_init+0xb8>)
10008756:	881a      	ldrh	r2, [r3, #0]
10008758:	4b10      	ldr	r3, [pc, #64]	; (1000879c <__aeabi_double_init+0xbc>)
1000875a:	429a      	cmp	r2, r3
1000875c:	d0c7      	beq.n	100086ee <__aeabi_double_init+0xe>
1000875e:	2000      	movs	r0, #0
10008760:	f7fe f9a8 	bl	10006ab4 <panic>
10008764:	4b0e      	ldr	r3, [pc, #56]	; (100087a0 <__aeabi_double_init+0xc0>)
10008766:	4a0f      	ldr	r2, [pc, #60]	; (100087a4 <__aeabi_double_init+0xc4>)
10008768:	2132      	movs	r1, #50	; 0x32
1000876a:	480f      	ldr	r0, [pc, #60]	; (100087a8 <__aeabi_double_init+0xc8>)
1000876c:	f7fe f908 	bl	10006980 <__assert_func>
10008770:	100087ad 	.word	0x100087ad
10008774:	20002908 	.word	0x20002908
10008778:	0000334c 	.word	0x0000334c
1000877c:	20002a08 	.word	0x20002a08
10008780:	100086d5 	.word	0x100086d5
10008784:	00004453 	.word	0x00004453
10008788:	00004653 	.word	0x00004653
1000878c:	00003854 	.word	0x00003854
10008790:	000038d8 	.word	0x000038d8
10008794:	00004649 	.word	0x00004649
10008798:	0000389c 	.word	0x0000389c
1000879c:	00004659 	.word	0x00004659
100087a0:	1000a808 	.word	0x1000a808
100087a4:	1000a8b0 	.word	0x1000a8b0
100087a8:	1000a868 	.word	0x1000a868

100087ac <double_table_shim_on_use_helper>:
100087ac:	b507      	push	{r0, r1, r2, lr}
100087ae:	4660      	mov	r0, ip
100087b0:	2800      	cmp	r0, #0
100087b2:	d100      	bne.n	100087b6 <double_table_shim_on_use_helper+0xa>
100087b4:	be00      	bkpt	0x0000
100087b6:	8801      	ldrh	r1, [r0, #0]
100087b8:	0a0a      	lsrs	r2, r1, #8
100087ba:	3002      	adds	r0, #2
100087bc:	2adf      	cmp	r2, #223	; 0xdf
100087be:	d1fa      	bne.n	100087b6 <double_table_shim_on_use_helper+0xa>
100087c0:	b2c9      	uxtb	r1, r1
100087c2:	0882      	lsrs	r2, r0, #2
100087c4:	d304      	bcc.n	100087d0 <double_table_shim_on_use_helper+0x24>
100087c6:	8802      	ldrh	r2, [r0, #0]
100087c8:	8840      	ldrh	r0, [r0, #2]
100087ca:	0400      	lsls	r0, r0, #16
100087cc:	4310      	orrs	r0, r2
100087ce:	e000      	b.n	100087d2 <double_table_shim_on_use_helper+0x26>
100087d0:	6800      	ldr	r0, [r0, #0]
100087d2:	4a02      	ldr	r2, [pc, #8]	; (100087dc <double_table_shim_on_use_helper+0x30>)
100087d4:	5050      	str	r0, [r2, r1]
100087d6:	9003      	str	r0, [sp, #12]
100087d8:	bd07      	pop	{r0, r1, r2, pc}
100087da:	0000      	.short	0x0000
100087dc:	20002908 	.word	0x20002908

100087e0 <__wrap___aeabi_lmul>:
100087e0:	4351      	muls	r1, r2
100087e2:	4343      	muls	r3, r0
100087e4:	18c9      	adds	r1, r1, r3
100087e6:	468c      	mov	ip, r1
100087e8:	0c11      	lsrs	r1, r2, #16
100087ea:	b283      	uxth	r3, r0
100087ec:	434b      	muls	r3, r1
100087ee:	b410      	push	{r4}
100087f0:	0c04      	lsrs	r4, r0, #16
100087f2:	4361      	muls	r1, r4
100087f4:	b292      	uxth	r2, r2
100087f6:	b280      	uxth	r0, r0
100087f8:	4350      	muls	r0, r2
100087fa:	4362      	muls	r2, r4
100087fc:	041c      	lsls	r4, r3, #16
100087fe:	0c1b      	lsrs	r3, r3, #16
10008800:	1900      	adds	r0, r0, r4
10008802:	bc10      	pop	{r4}
10008804:	4159      	adcs	r1, r3
10008806:	0413      	lsls	r3, r2, #16
10008808:	0c12      	lsrs	r2, r2, #16
1000880a:	18c0      	adds	r0, r0, r3
1000880c:	4151      	adcs	r1, r2
1000880e:	4461      	add	r1, ip
10008810:	4770      	bx	lr
	...

10008814 <__wrap___aeabi_frsub>:
10008814:	4048      	eors	r0, r1
10008816:	4041      	eors	r1, r0
10008818:	4048      	eors	r0, r1

1000881a <__wrap___aeabi_fsub>:
1000881a:	4b0e      	ldr	r3, [pc, #56]	; (10008854 <__wrap___aeabi_fmul+0x6>)
1000881c:	685b      	ldr	r3, [r3, #4]
1000881e:	4718      	bx	r3

10008820 <__wrap___aeabi_fadd>:
10008820:	4b0c      	ldr	r3, [pc, #48]	; (10008854 <__wrap___aeabi_fmul+0x6>)
10008822:	681b      	ldr	r3, [r3, #0]
10008824:	4718      	bx	r3

10008826 <__wrap___aeabi_fdiv>:
10008826:	4a0c      	ldr	r2, [pc, #48]	; (10008858 <__wrap___aeabi_fmul+0xa>)
10008828:	6f93      	ldr	r3, [r2, #120]	; 0x78
1000882a:	089b      	lsrs	r3, r3, #2
1000882c:	d202      	bcs.n	10008834 <fdiv_save_state>

1000882e <fdiv_shim_call>:
1000882e:	4b09      	ldr	r3, [pc, #36]	; (10008854 <__wrap___aeabi_fmul+0x6>)
10008830:	68db      	ldr	r3, [r3, #12]
10008832:	4718      	bx	r3

10008834 <fdiv_save_state>:
10008834:	b5f0      	push	{r4, r5, r6, r7, lr}
10008836:	6e14      	ldr	r4, [r2, #96]	; 0x60
10008838:	6e55      	ldr	r5, [r2, #100]	; 0x64
1000883a:	6f57      	ldr	r7, [r2, #116]	; 0x74
1000883c:	6f16      	ldr	r6, [r2, #112]	; 0x70
1000883e:	f7ff fff6 	bl	1000882e <fdiv_shim_call>
10008842:	4a05      	ldr	r2, [pc, #20]	; (10008858 <__wrap___aeabi_fmul+0xa>)
10008844:	6614      	str	r4, [r2, #96]	; 0x60
10008846:	6655      	str	r5, [r2, #100]	; 0x64
10008848:	6757      	str	r7, [r2, #116]	; 0x74
1000884a:	6716      	str	r6, [r2, #112]	; 0x70
1000884c:	bdf0      	pop	{r4, r5, r6, r7, pc}

1000884e <__wrap___aeabi_fmul>:
1000884e:	4b01      	ldr	r3, [pc, #4]	; (10008854 <__wrap___aeabi_fmul+0x6>)
10008850:	689b      	ldr	r3, [r3, #8]
10008852:	4718      	bx	r3
10008854:	20002a0c 	.word	0x20002a0c
10008858:	d0000000 	.word	0xd0000000

1000885c <__wrap___aeabi_ui2f>:
1000885c:	1a49      	subs	r1, r1, r1
1000885e:	2800      	cmp	r0, #0
10008860:	d108      	bne.n	10008874 <__aeabi_i2f_main>
10008862:	4608      	mov	r0, r1
10008864:	4770      	bx	lr
	...

10008868 <__wrap___aeabi_i2f>:
10008868:	0fc1      	lsrs	r1, r0, #31
1000886a:	07c9      	lsls	r1, r1, #31
1000886c:	d500      	bpl.n	10008870 <__wrap___aeabi_i2f+0x8>
1000886e:	4240      	negs	r0, r0
10008870:	2800      	cmp	r0, #0
10008872:	d017      	beq.n	100088a4 <__aeabi_i2f_main+0x30>

10008874 <__aeabi_i2f_main>:
10008874:	46f4      	mov	ip, lr
10008876:	b403      	push	{r0, r1}
10008878:	4b0b      	ldr	r3, [pc, #44]	; (100088a8 <__aeabi_i2f_main+0x34>)
1000887a:	681b      	ldr	r3, [r3, #0]
1000887c:	4798      	blx	r3
1000887e:	bc06      	pop	{r1, r2}
10008880:	4081      	lsls	r1, r0
10008882:	389e      	subs	r0, #158	; 0x9e
10008884:	4240      	negs	r0, r0
10008886:	3180      	adds	r1, #128	; 0x80
10008888:	d207      	bcs.n	1000889a <__aeabi_i2f_main+0x26>
1000888a:	060b      	lsls	r3, r1, #24
1000888c:	d007      	beq.n	1000889e <__aeabi_i2f_main+0x2a>
1000888e:	0049      	lsls	r1, r1, #1
10008890:	0a49      	lsrs	r1, r1, #9
10008892:	05c0      	lsls	r0, r0, #23
10008894:	4310      	orrs	r0, r2
10008896:	4308      	orrs	r0, r1
10008898:	4760      	bx	ip
1000889a:	3001      	adds	r0, #1
1000889c:	e7f8      	b.n	10008890 <__aeabi_i2f_main+0x1c>
1000889e:	0a49      	lsrs	r1, r1, #9
100088a0:	0289      	lsls	r1, r1, #10
100088a2:	e7f5      	b.n	10008890 <__aeabi_i2f_main+0x1c>
100088a4:	4770      	bx	lr
100088a6:	0000      	.short	0x0000
100088a8:	20002a08 	.word	0x20002a08

100088ac <__wrap___aeabi_f2uiz>:
100088ac:	4b01      	ldr	r3, [pc, #4]	; (100088b4 <__wrap___aeabi_f2uiz+0x8>)
100088ae:	6a5b      	ldr	r3, [r3, #36]	; 0x24
100088b0:	4718      	bx	r3
100088b2:	0000      	.short	0x0000
100088b4:	20002a0c 	.word	0x20002a0c

100088b8 <__wrap___aeabi_f2d>:
100088b8:	4b01      	ldr	r3, [pc, #4]	; (100088c0 <__wrap___aeabi_f2d+0x8>)
100088ba:	6fdb      	ldr	r3, [r3, #124]	; 0x7c
100088bc:	4718      	bx	r3
100088be:	0000      	.short	0x0000
100088c0:	20002a0c 	.word	0x20002a0c

100088c4 <missing_float_func_shim>:
100088c4:	b510      	push	{r4, lr}
100088c6:	4801      	ldr	r0, [pc, #4]	; (100088cc <missing_float_func_shim+0x8>)
100088c8:	f7fe f8f4 	bl	10006ab4 <panic>
100088cc:	1000973c 	.word	0x1000973c

100088d0 <__aeabi_float_init>:
100088d0:	b570      	push	{r4, r5, r6, lr}
100088d2:	2313      	movs	r3, #19
100088d4:	781e      	ldrb	r6, [r3, #0]
100088d6:	4818      	ldr	r0, [pc, #96]	; (10008938 <__aeabi_float_init+0x68>)
100088d8:	f7ff fb90 	bl	10007ffc <rom_data_lookup>
100088dc:	0005      	movs	r5, r0
100088de:	2e01      	cmp	r6, #1
100088e0:	d011      	beq.n	10008906 <__aeabi_float_init+0x36>
100088e2:	2e01      	cmp	r6, #1
100088e4:	dd09      	ble.n	100088fa <__aeabi_float_init+0x2a>
100088e6:	1eab      	subs	r3, r5, #2
100088e8:	781b      	ldrb	r3, [r3, #0]
100088ea:	009b      	lsls	r3, r3, #2
100088ec:	2b7f      	cmp	r3, #127	; 0x7f
100088ee:	dd1d      	ble.n	1000892c <__aeabi_float_init+0x5c>
100088f0:	2280      	movs	r2, #128	; 0x80
100088f2:	0029      	movs	r1, r5
100088f4:	4811      	ldr	r0, [pc, #68]	; (1000893c <__aeabi_float_init+0x6c>)
100088f6:	f000 f83d 	bl	10008974 <__wrap___aeabi_memcpy>
100088fa:	4811      	ldr	r0, [pc, #68]	; (10008940 <__aeabi_float_init+0x70>)
100088fc:	f7ff fb76 	bl	10007fec <rom_func_lookup>
10008900:	4b10      	ldr	r3, [pc, #64]	; (10008944 <__aeabi_float_init+0x74>)
10008902:	6018      	str	r0, [r3, #0]
10008904:	bd70      	pop	{r4, r5, r6, pc}
10008906:	2254      	movs	r2, #84	; 0x54
10008908:	0001      	movs	r1, r0
1000890a:	480c      	ldr	r0, [pc, #48]	; (1000893c <__aeabi_float_init+0x6c>)
1000890c:	f000 f832 	bl	10008974 <__wrap___aeabi_memcpy>
10008910:	2300      	movs	r3, #0
10008912:	e000      	b.n	10008916 <__aeabi_float_init+0x46>
10008914:	3301      	adds	r3, #1
10008916:	2b1f      	cmp	r3, #31
10008918:	d8e3      	bhi.n	100088e2 <__aeabi_float_init+0x12>
1000891a:	009a      	lsls	r2, r3, #2
1000891c:	4c07      	ldr	r4, [pc, #28]	; (1000893c <__aeabi_float_init+0x6c>)
1000891e:	5912      	ldr	r2, [r2, r4]
10008920:	2a00      	cmp	r2, #0
10008922:	d1f7      	bne.n	10008914 <__aeabi_float_init+0x44>
10008924:	009a      	lsls	r2, r3, #2
10008926:	4808      	ldr	r0, [pc, #32]	; (10008948 <__aeabi_float_init+0x78>)
10008928:	5110      	str	r0, [r2, r4]
1000892a:	e7f3      	b.n	10008914 <__aeabi_float_init+0x44>
1000892c:	4b07      	ldr	r3, [pc, #28]	; (1000894c <__aeabi_float_init+0x7c>)
1000892e:	4a08      	ldr	r2, [pc, #32]	; (10008950 <__aeabi_float_init+0x80>)
10008930:	2142      	movs	r1, #66	; 0x42
10008932:	4808      	ldr	r0, [pc, #32]	; (10008954 <__aeabi_float_init+0x84>)
10008934:	f7fe f824 	bl	10006980 <__assert_func>
10008938:	00004653 	.word	0x00004653
1000893c:	20002a0c 	.word	0x20002a0c
10008940:	0000334c 	.word	0x0000334c
10008944:	20002a08 	.word	0x20002a08
10008948:	100088c5 	.word	0x100088c5
1000894c:	1000a8c4 	.word	0x1000a8c4
10008950:	1000a93c 	.word	0x1000a93c
10008954:	1000a8f8 	.word	0x1000a8f8

10008958 <__aeabi_mem_init>:
10008958:	4801      	ldr	r0, [pc, #4]	; (10008960 <__aeabi_mem_init+0x8>)
1000895a:	2104      	movs	r1, #4
1000895c:	4b01      	ldr	r3, [pc, #4]	; (10008964 <__aeabi_mem_init+0xc>)
1000895e:	4718      	bx	r3
10008960:	20000a80 	.word	0x20000a80
10008964:	1000800d 	.word	0x1000800d

10008968 <__wrap_memset>:
10008968:	4b01      	ldr	r3, [pc, #4]	; (10008970 <__wrap_memset+0x8>)
1000896a:	681b      	ldr	r3, [r3, #0]
1000896c:	4718      	bx	r3
1000896e:	0000      	.short	0x0000
10008970:	20000a80 	.word	0x20000a80

10008974 <__wrap___aeabi_memcpy>:
10008974:	4b01      	ldr	r3, [pc, #4]	; (1000897c <__wrap___aeabi_memcpy+0x8>)
10008976:	685b      	ldr	r3, [r3, #4]
10008978:	4718      	bx	r3
1000897a:	0000      	.short	0x0000
1000897c:	20000a80 	.word	0x20000a80

10008980 <stdio_out_chars_no_crlf>:
10008980:	b510      	push	{r4, lr}
10008982:	0003      	movs	r3, r0
10008984:	0008      	movs	r0, r1
10008986:	0011      	movs	r1, r2
10008988:	681b      	ldr	r3, [r3, #0]
1000898a:	4798      	blx	r3
1000898c:	bd10      	pop	{r4, pc}
	...

10008990 <stdio_out_chars_crlf>:
10008990:	b5f8      	push	{r3, r4, r5, r6, r7, lr}
10008992:	0007      	movs	r7, r0
10008994:	000d      	movs	r5, r1
10008996:	0016      	movs	r6, r2
10008998:	7c43      	ldrb	r3, [r0, #17]
1000899a:	2b00      	cmp	r3, #0
1000899c:	d002      	beq.n	100089a4 <stdio_out_chars_crlf+0x14>
1000899e:	2400      	movs	r4, #0
100089a0:	2000      	movs	r0, #0
100089a2:	e00c      	b.n	100089be <stdio_out_chars_crlf+0x2e>
100089a4:	6803      	ldr	r3, [r0, #0]
100089a6:	0011      	movs	r1, r2
100089a8:	0028      	movs	r0, r5
100089aa:	4798      	blx	r3
100089ac:	e02d      	b.n	10008a0a <stdio_out_chars_crlf+0x7a>
100089ae:	7c3b      	ldrb	r3, [r7, #16]
100089b0:	e010      	b.n	100089d4 <stdio_out_chars_crlf+0x44>
100089b2:	2102      	movs	r1, #2
100089b4:	4815      	ldr	r0, [pc, #84]	; (10008a0c <stdio_out_chars_crlf+0x7c>)
100089b6:	683b      	ldr	r3, [r7, #0]
100089b8:	4798      	blx	r3
100089ba:	1c60      	adds	r0, r4, #1
100089bc:	3401      	adds	r4, #1
100089be:	42b4      	cmp	r4, r6
100089c0:	da14      	bge.n	100089ec <stdio_out_chars_crlf+0x5c>
100089c2:	2c00      	cmp	r4, #0
100089c4:	ddf3      	ble.n	100089ae <stdio_out_chars_crlf+0x1e>
100089c6:	192b      	adds	r3, r5, r4
100089c8:	3b01      	subs	r3, #1
100089ca:	781b      	ldrb	r3, [r3, #0]
100089cc:	3b0d      	subs	r3, #13
100089ce:	425a      	negs	r2, r3
100089d0:	4153      	adcs	r3, r2
100089d2:	b2db      	uxtb	r3, r3
100089d4:	5d2a      	ldrb	r2, [r5, r4]
100089d6:	2a0a      	cmp	r2, #10
100089d8:	d1f0      	bne.n	100089bc <stdio_out_chars_crlf+0x2c>
100089da:	2b00      	cmp	r3, #0
100089dc:	d1ee      	bne.n	100089bc <stdio_out_chars_crlf+0x2c>
100089de:	42a0      	cmp	r0, r4
100089e0:	dae7      	bge.n	100089b2 <stdio_out_chars_crlf+0x22>
100089e2:	1a21      	subs	r1, r4, r0
100089e4:	1828      	adds	r0, r5, r0
100089e6:	683b      	ldr	r3, [r7, #0]
100089e8:	4798      	blx	r3
100089ea:	e7e2      	b.n	100089b2 <stdio_out_chars_crlf+0x22>
100089ec:	42b0      	cmp	r0, r6
100089ee:	da03      	bge.n	100089f8 <stdio_out_chars_crlf+0x68>
100089f0:	1a31      	subs	r1, r6, r0
100089f2:	1828      	adds	r0, r5, r0
100089f4:	683b      	ldr	r3, [r7, #0]
100089f6:	4798      	blx	r3
100089f8:	2e00      	cmp	r6, #0
100089fa:	dd06      	ble.n	10008a0a <stdio_out_chars_crlf+0x7a>
100089fc:	19ad      	adds	r5, r5, r6
100089fe:	3d01      	subs	r5, #1
10008a00:	782b      	ldrb	r3, [r5, #0]
10008a02:	3b0d      	subs	r3, #13
10008a04:	425a      	negs	r2, r3
10008a06:	4153      	adcs	r3, r2
10008a08:	743b      	strb	r3, [r7, #16]
10008a0a:	bdf8      	pop	{r3, r4, r5, r6, r7, pc}
10008a0c:	1000a9b4 	.word	0x1000a9b4

10008a10 <stdio_stack_buffer_flush>:
10008a10:	b570      	push	{r4, r5, r6, lr}
10008a12:	0005      	movs	r5, r0
10008a14:	6803      	ldr	r3, [r0, #0]
10008a16:	2b00      	cmp	r3, #0
10008a18:	d016      	beq.n	10008a48 <stdio_stack_buffer_flush+0x38>
10008a1a:	4b0c      	ldr	r3, [pc, #48]	; (10008a4c <stdio_stack_buffer_flush+0x3c>)
10008a1c:	681c      	ldr	r4, [r3, #0]
10008a1e:	e005      	b.n	10008a2c <stdio_stack_buffer_flush+0x1c>
10008a20:	0029      	movs	r1, r5
10008a22:	c904      	ldmia	r1!, {r2}
10008a24:	0020      	movs	r0, r4
10008a26:	f7ff ffb3 	bl	10008990 <stdio_out_chars_crlf>
10008a2a:	68e4      	ldr	r4, [r4, #12]
10008a2c:	2c00      	cmp	r4, #0
10008a2e:	d009      	beq.n	10008a44 <stdio_stack_buffer_flush+0x34>
10008a30:	6823      	ldr	r3, [r4, #0]
10008a32:	2b00      	cmp	r3, #0
10008a34:	d0f9      	beq.n	10008a2a <stdio_stack_buffer_flush+0x1a>
10008a36:	4b06      	ldr	r3, [pc, #24]	; (10008a50 <stdio_stack_buffer_flush+0x40>)
10008a38:	681b      	ldr	r3, [r3, #0]
10008a3a:	2b00      	cmp	r3, #0
10008a3c:	d0f0      	beq.n	10008a20 <stdio_stack_buffer_flush+0x10>
10008a3e:	42a3      	cmp	r3, r4
10008a40:	d1f3      	bne.n	10008a2a <stdio_stack_buffer_flush+0x1a>
10008a42:	e7ed      	b.n	10008a20 <stdio_stack_buffer_flush+0x10>
10008a44:	2300      	movs	r3, #0
10008a46:	602b      	str	r3, [r5, #0]
10008a48:	bd70      	pop	{r4, r5, r6, pc}
10008a4a:	46c0      	nop			; (mov r8, r8)
10008a4c:	200028e8 	.word	0x200028e8
10008a50:	200028ec 	.word	0x200028ec

10008a54 <stdio_buffered_printer>:
10008a54:	b570      	push	{r4, r5, r6, lr}
10008a56:	0005      	movs	r5, r0
10008a58:	000c      	movs	r4, r1
10008a5a:	680b      	ldr	r3, [r1, #0]
10008a5c:	2b80      	cmp	r3, #128	; 0x80
10008a5e:	d005      	beq.n	10008a6c <stdio_buffered_printer+0x18>
10008a60:	6821      	ldr	r1, [r4, #0]
10008a62:	1c4b      	adds	r3, r1, #1
10008a64:	6023      	str	r3, [r4, #0]
10008a66:	1864      	adds	r4, r4, r1
10008a68:	7125      	strb	r5, [r4, #4]
10008a6a:	bd70      	pop	{r4, r5, r6, pc}
10008a6c:	0008      	movs	r0, r1
10008a6e:	f7ff ffcf 	bl	10008a10 <stdio_stack_buffer_flush>
10008a72:	e7f5      	b.n	10008a60 <stdio_buffered_printer+0xc>

10008a74 <stdout_serialize_begin>:
10008a74:	b510      	push	{r4, lr}
10008a76:	b082      	sub	sp, #8
10008a78:	23d0      	movs	r3, #208	; 0xd0
10008a7a:	061b      	lsls	r3, r3, #24
10008a7c:	2400      	movs	r4, #0
10008a7e:	571c      	ldrsb	r4, [r3, r4]
10008a80:	a901      	add	r1, sp, #4
10008a82:	4807      	ldr	r0, [pc, #28]	; (10008aa0 <stdout_serialize_begin+0x2c>)
10008a84:	f000 fc28 	bl	100092d8 <__mutex_try_enter_veneer>
10008a88:	2800      	cmp	r0, #0
10008a8a:	d106      	bne.n	10008a9a <stdout_serialize_begin+0x26>
10008a8c:	9b01      	ldr	r3, [sp, #4]
10008a8e:	429c      	cmp	r4, r3
10008a90:	d003      	beq.n	10008a9a <stdout_serialize_begin+0x26>
10008a92:	4803      	ldr	r0, [pc, #12]	; (10008aa0 <stdout_serialize_begin+0x2c>)
10008a94:	f000 fc28 	bl	100092e8 <__mutex_enter_blocking_veneer>
10008a98:	2001      	movs	r0, #1
10008a9a:	b002      	add	sp, #8
10008a9c:	bd10      	pop	{r4, pc}
10008a9e:	46c0      	nop			; (mov r8, r8)
10008aa0:	20000ee0 	.word	0x20000ee0

10008aa4 <stdout_serialize_end>:
10008aa4:	b510      	push	{r4, lr}
10008aa6:	4802      	ldr	r0, [pc, #8]	; (10008ab0 <stdout_serialize_end+0xc>)
10008aa8:	f000 fbfe 	bl	100092a8 <__mutex_exit_veneer>
10008aac:	bd10      	pop	{r4, pc}
10008aae:	46c0      	nop			; (mov r8, r8)
10008ab0:	20000ee0 	.word	0x20000ee0

10008ab4 <stdio_put_string>:
10008ab4:	b5f0      	push	{r4, r5, r6, r7, lr}
10008ab6:	46ce      	mov	lr, r9
10008ab8:	4647      	mov	r7, r8
10008aba:	b580      	push	{r7, lr}
10008abc:	b083      	sub	sp, #12
10008abe:	0006      	movs	r6, r0
10008ac0:	000d      	movs	r5, r1
10008ac2:	4690      	mov	r8, r2
10008ac4:	001c      	movs	r4, r3
10008ac6:	f7ff ffd5 	bl	10008a74 <stdout_serialize_begin>
10008aca:	4681      	mov	r9, r0
10008acc:	1c6b      	adds	r3, r5, #1
10008ace:	d005      	beq.n	10008adc <stdio_put_string+0x28>
10008ad0:	2c00      	cmp	r4, #0
10008ad2:	d008      	beq.n	10008ae6 <stdio_put_string+0x32>
10008ad4:	4f19      	ldr	r7, [pc, #100]	; (10008b3c <stdio_put_string+0x88>)
10008ad6:	4b1a      	ldr	r3, [pc, #104]	; (10008b40 <stdio_put_string+0x8c>)
10008ad8:	681c      	ldr	r4, [r3, #0]
10008ada:	e007      	b.n	10008aec <stdio_put_string+0x38>
10008adc:	0030      	movs	r0, r6
10008ade:	f000 fba1 	bl	10009224 <strlen>
10008ae2:	0005      	movs	r5, r0
10008ae4:	e7f4      	b.n	10008ad0 <stdio_put_string+0x1c>
10008ae6:	4f17      	ldr	r7, [pc, #92]	; (10008b44 <stdio_put_string+0x90>)
10008ae8:	e7f5      	b.n	10008ad6 <stdio_put_string+0x22>
10008aea:	68e4      	ldr	r4, [r4, #12]
10008aec:	2c00      	cmp	r4, #0
10008aee:	d017      	beq.n	10008b20 <stdio_put_string+0x6c>
10008af0:	6823      	ldr	r3, [r4, #0]
10008af2:	2b00      	cmp	r3, #0
10008af4:	d0f9      	beq.n	10008aea <stdio_put_string+0x36>
10008af6:	4b14      	ldr	r3, [pc, #80]	; (10008b48 <stdio_put_string+0x94>)
10008af8:	681b      	ldr	r3, [r3, #0]
10008afa:	2b00      	cmp	r3, #0
10008afc:	d001      	beq.n	10008b02 <stdio_put_string+0x4e>
10008afe:	42a3      	cmp	r3, r4
10008b00:	d1f3      	bne.n	10008aea <stdio_put_string+0x36>
10008b02:	002a      	movs	r2, r5
10008b04:	0031      	movs	r1, r6
10008b06:	0020      	movs	r0, r4
10008b08:	47b8      	blx	r7
10008b0a:	4643      	mov	r3, r8
10008b0c:	2b00      	cmp	r3, #0
10008b0e:	d0ec      	beq.n	10008aea <stdio_put_string+0x36>
10008b10:	466b      	mov	r3, sp
10008b12:	1dd9      	adds	r1, r3, #7
10008b14:	230a      	movs	r3, #10
10008b16:	700b      	strb	r3, [r1, #0]
10008b18:	2201      	movs	r2, #1
10008b1a:	0020      	movs	r0, r4
10008b1c:	47b8      	blx	r7
10008b1e:	e7e4      	b.n	10008aea <stdio_put_string+0x36>
10008b20:	464b      	mov	r3, r9
10008b22:	2b00      	cmp	r3, #0
10008b24:	d107      	bne.n	10008b36 <stdio_put_string+0x82>
10008b26:	1e6b      	subs	r3, r5, #1
10008b28:	419d      	sbcs	r5, r3
10008b2a:	b2e8      	uxtb	r0, r5
10008b2c:	b003      	add	sp, #12
10008b2e:	bcc0      	pop	{r6, r7}
10008b30:	46b9      	mov	r9, r7
10008b32:	46b0      	mov	r8, r6
10008b34:	bdf0      	pop	{r4, r5, r6, r7, pc}
10008b36:	f7ff ffb5 	bl	10008aa4 <stdout_serialize_end>
10008b3a:	e7f4      	b.n	10008b26 <stdio_put_string+0x72>
10008b3c:	10008981 	.word	0x10008981
10008b40:	200028e8 	.word	0x200028e8
10008b44:	10008991 	.word	0x10008991
10008b48:	200028ec 	.word	0x200028ec

10008b4c <stdio_set_driver_enabled>:
10008b4c:	4a09      	ldr	r2, [pc, #36]	; (10008b74 <stdio_set_driver_enabled+0x28>)
10008b4e:	e001      	b.n	10008b54 <stdio_set_driver_enabled+0x8>
10008b50:	330c      	adds	r3, #12
10008b52:	001a      	movs	r2, r3
10008b54:	6813      	ldr	r3, [r2, #0]
10008b56:	2b00      	cmp	r3, #0
10008b58:	d008      	beq.n	10008b6c <stdio_set_driver_enabled+0x20>
10008b5a:	4283      	cmp	r3, r0
10008b5c:	d1f8      	bne.n	10008b50 <stdio_set_driver_enabled+0x4>
10008b5e:	2900      	cmp	r1, #0
10008b60:	d107      	bne.n	10008b72 <stdio_set_driver_enabled+0x26>
10008b62:	68c3      	ldr	r3, [r0, #12]
10008b64:	6013      	str	r3, [r2, #0]
10008b66:	2300      	movs	r3, #0
10008b68:	60c3      	str	r3, [r0, #12]
10008b6a:	e002      	b.n	10008b72 <stdio_set_driver_enabled+0x26>
10008b6c:	2900      	cmp	r1, #0
10008b6e:	d000      	beq.n	10008b72 <stdio_set_driver_enabled+0x26>
10008b70:	6010      	str	r0, [r2, #0]
10008b72:	4770      	bx	lr
10008b74:	200028e8 	.word	0x200028e8

10008b78 <stdio_flush>:
10008b78:	b510      	push	{r4, lr}
10008b7a:	4b06      	ldr	r3, [pc, #24]	; (10008b94 <stdio_flush+0x1c>)
10008b7c:	681c      	ldr	r4, [r3, #0]
10008b7e:	e001      	b.n	10008b84 <stdio_flush+0xc>
10008b80:	4798      	blx	r3
10008b82:	68e4      	ldr	r4, [r4, #12]
10008b84:	2c00      	cmp	r4, #0
10008b86:	d003      	beq.n	10008b90 <stdio_flush+0x18>
10008b88:	6863      	ldr	r3, [r4, #4]
10008b8a:	2b00      	cmp	r3, #0
10008b8c:	d1f8      	bne.n	10008b80 <stdio_flush+0x8>
10008b8e:	e7f8      	b.n	10008b82 <stdio_flush+0xa>
10008b90:	bd10      	pop	{r4, pc}
10008b92:	46c0      	nop			; (mov r8, r8)
10008b94:	200028e8 	.word	0x200028e8

10008b98 <__wrap_puts>:
10008b98:	b570      	push	{r4, r5, r6, lr}
10008b9a:	0005      	movs	r5, r0
10008b9c:	f000 fb42 	bl	10009224 <strlen>
10008ba0:	0004      	movs	r4, r0
10008ba2:	2300      	movs	r3, #0
10008ba4:	2201      	movs	r2, #1
10008ba6:	0001      	movs	r1, r0
10008ba8:	0028      	movs	r0, r5
10008baa:	f7ff ff83 	bl	10008ab4 <stdio_put_string>
10008bae:	f7ff ffe3 	bl	10008b78 <stdio_flush>
10008bb2:	0020      	movs	r0, r4
10008bb4:	bd70      	pop	{r4, r5, r6, pc}
	...

10008bb8 <__wrap_vprintf>:
10008bb8:	b570      	push	{r4, r5, r6, lr}
10008bba:	b0a2      	sub	sp, #136	; 0x88
10008bbc:	0004      	movs	r4, r0
10008bbe:	000e      	movs	r6, r1
10008bc0:	f7ff ff58 	bl	10008a74 <stdout_serialize_begin>
10008bc4:	0005      	movs	r5, r0
10008bc6:	2284      	movs	r2, #132	; 0x84
10008bc8:	2100      	movs	r1, #0
10008bca:	a801      	add	r0, sp, #4
10008bcc:	f7ff fecc 	bl	10008968 <__wrap_memset>
10008bd0:	0033      	movs	r3, r6
10008bd2:	0022      	movs	r2, r4
10008bd4:	a901      	add	r1, sp, #4
10008bd6:	4808      	ldr	r0, [pc, #32]	; (10008bf8 <__wrap_vprintf+0x40>)
10008bd8:	f7ff f9f0 	bl	10007fbc <vfctprintf>
10008bdc:	0004      	movs	r4, r0
10008bde:	a801      	add	r0, sp, #4
10008be0:	f7ff ff16 	bl	10008a10 <stdio_stack_buffer_flush>
10008be4:	f7ff ffc8 	bl	10008b78 <stdio_flush>
10008be8:	2d00      	cmp	r5, #0
10008bea:	d102      	bne.n	10008bf2 <__wrap_vprintf+0x3a>
10008bec:	0020      	movs	r0, r4
10008bee:	b022      	add	sp, #136	; 0x88
10008bf0:	bd70      	pop	{r4, r5, r6, pc}
10008bf2:	f7ff ff57 	bl	10008aa4 <stdout_serialize_end>
10008bf6:	e7f9      	b.n	10008bec <__wrap_vprintf+0x34>
10008bf8:	10008a55 	.word	0x10008a55

10008bfc <__wrap_printf>:
10008bfc:	b40f      	push	{r0, r1, r2, r3}
10008bfe:	b500      	push	{lr}
10008c00:	b083      	sub	sp, #12
10008c02:	a904      	add	r1, sp, #16
10008c04:	c901      	ldmia	r1!, {r0}
10008c06:	9101      	str	r1, [sp, #4]
10008c08:	f7ff ffd6 	bl	10008bb8 <__wrap_vprintf>
10008c0c:	b003      	add	sp, #12
10008c0e:	bc08      	pop	{r3}
10008c10:	b004      	add	sp, #16
10008c12:	4718      	bx	r3

10008c14 <stdio_init_all>:
10008c14:	b510      	push	{r4, lr}
10008c16:	f000 f885 	bl	10008d24 <stdio_uart_init>
10008c1a:	bd10      	pop	{r4, pc}

10008c1c <stdio_uart_out_chars>:
10008c1c:	b5f0      	push	{r4, r5, r6, r7, lr}
10008c1e:	b083      	sub	sp, #12
10008c20:	0005      	movs	r5, r0
10008c22:	000e      	movs	r6, r1
10008c24:	2400      	movs	r4, #0
10008c26:	e00f      	b.n	10008c48 <stdio_uart_out_chars+0x2c>
10008c28:	466b      	mov	r3, sp
10008c2a:	1dd9      	adds	r1, r3, #7
10008c2c:	230d      	movs	r3, #13
10008c2e:	700b      	strb	r3, [r1, #0]
10008c30:	2000      	movs	r0, #0
10008c32:	2800      	cmp	r0, #0
10008c34:	d116      	bne.n	10008c64 <stdio_uart_out_chars+0x48>
10008c36:	6993      	ldr	r3, [r2, #24]
10008c38:	069b      	lsls	r3, r3, #26
10008c3a:	d4fc      	bmi.n	10008c36 <stdio_uart_out_chars+0x1a>
10008c3c:	780b      	ldrb	r3, [r1, #0]
10008c3e:	6013      	str	r3, [r2, #0]
10008c40:	3001      	adds	r0, #1
10008c42:	3101      	adds	r1, #1
10008c44:	e7f5      	b.n	10008c32 <stdio_uart_out_chars+0x16>
10008c46:	3401      	adds	r4, #1
10008c48:	42b4      	cmp	r4, r6
10008c4a:	da19      	bge.n	10008c80 <stdio_uart_out_chars+0x64>
10008c4c:	4b0d      	ldr	r3, [pc, #52]	; (10008c84 <stdio_uart_out_chars+0x68>)
10008c4e:	681a      	ldr	r2, [r3, #0]
10008c50:	5d2f      	ldrb	r7, [r5, r4]
10008c52:	4b0d      	ldr	r3, [pc, #52]	; (10008c88 <stdio_uart_out_chars+0x6c>)
10008c54:	18d3      	adds	r3, r2, r3
10008c56:	4259      	negs	r1, r3
10008c58:	414b      	adcs	r3, r1
10008c5a:	005b      	lsls	r3, r3, #1
10008c5c:	490b      	ldr	r1, [pc, #44]	; (10008c8c <stdio_uart_out_chars+0x70>)
10008c5e:	5e5b      	ldrsh	r3, [r3, r1]
10008c60:	42bb      	cmp	r3, r7
10008c62:	d0e1      	beq.n	10008c28 <stdio_uart_out_chars+0xc>
10008c64:	466b      	mov	r3, sp
10008c66:	1dd9      	adds	r1, r3, #7
10008c68:	700f      	strb	r7, [r1, #0]
10008c6a:	2000      	movs	r0, #0
10008c6c:	2800      	cmp	r0, #0
10008c6e:	d1ea      	bne.n	10008c46 <stdio_uart_out_chars+0x2a>
10008c70:	6993      	ldr	r3, [r2, #24]
10008c72:	069b      	lsls	r3, r3, #26
10008c74:	d4fc      	bmi.n	10008c70 <stdio_uart_out_chars+0x54>
10008c76:	780b      	ldrb	r3, [r1, #0]
10008c78:	6013      	str	r3, [r2, #0]
10008c7a:	3001      	adds	r0, #1
10008c7c:	3101      	adds	r1, #1
10008c7e:	e7f5      	b.n	10008c6c <stdio_uart_out_chars+0x50>
10008c80:	b003      	add	sp, #12
10008c82:	bdf0      	pop	{r4, r5, r6, r7, pc}
10008c84:	20002b24 	.word	0x20002b24
10008c88:	bffc8000 	.word	0xbffc8000
10008c8c:	20002b20 	.word	0x20002b20

10008c90 <stdio_uart_in_chars>:
10008c90:	b5f0      	push	{r4, r5, r6, r7, lr}
10008c92:	b083      	sub	sp, #12
10008c94:	0006      	movs	r6, r0
10008c96:	000f      	movs	r7, r1
10008c98:	2000      	movs	r0, #0
10008c9a:	e004      	b.n	10008ca6 <stdio_uart_in_chars+0x16>
10008c9c:	466b      	mov	r3, sp
10008c9e:	3307      	adds	r3, #7
10008ca0:	781b      	ldrb	r3, [r3, #0]
10008ca2:	7023      	strb	r3, [r4, #0]
10008ca4:	0028      	movs	r0, r5
10008ca6:	42b8      	cmp	r0, r7
10008ca8:	da15      	bge.n	10008cd6 <stdio_uart_in_chars+0x46>
10008caa:	4b0e      	ldr	r3, [pc, #56]	; (10008ce4 <stdio_uart_in_chars+0x54>)
10008cac:	681a      	ldr	r2, [r3, #0]
10008cae:	6993      	ldr	r3, [r2, #24]
10008cb0:	2410      	movs	r4, #16
10008cb2:	0021      	movs	r1, r4
10008cb4:	4019      	ands	r1, r3
10008cb6:	421c      	tst	r4, r3
10008cb8:	d10d      	bne.n	10008cd6 <stdio_uart_in_chars+0x46>
10008cba:	1c45      	adds	r5, r0, #1
10008cbc:	1834      	adds	r4, r6, r0
10008cbe:	466b      	mov	r3, sp
10008cc0:	1dd8      	adds	r0, r3, #7
10008cc2:	2900      	cmp	r1, #0
10008cc4:	d1ea      	bne.n	10008c9c <stdio_uart_in_chars+0xc>
10008cc6:	6993      	ldr	r3, [r2, #24]
10008cc8:	06db      	lsls	r3, r3, #27
10008cca:	d4fc      	bmi.n	10008cc6 <stdio_uart_in_chars+0x36>
10008ccc:	6813      	ldr	r3, [r2, #0]
10008cce:	7003      	strb	r3, [r0, #0]
10008cd0:	3101      	adds	r1, #1
10008cd2:	3001      	adds	r0, #1
10008cd4:	e7f5      	b.n	10008cc2 <stdio_uart_in_chars+0x32>
10008cd6:	2800      	cmp	r0, #0
10008cd8:	d001      	beq.n	10008cde <stdio_uart_in_chars+0x4e>
10008cda:	b003      	add	sp, #12
10008cdc:	bdf0      	pop	{r4, r5, r6, r7, pc}
10008cde:	3803      	subs	r0, #3
10008ce0:	e7fb      	b.n	10008cda <stdio_uart_in_chars+0x4a>
10008ce2:	46c0      	nop			; (mov r8, r8)
10008ce4:	20002b24 	.word	0x20002b24

10008ce8 <stdio_uart_init_full>:
10008ce8:	b570      	push	{r4, r5, r6, lr}
10008cea:	0015      	movs	r5, r2
10008cec:	001c      	movs	r4, r3
10008cee:	4b0b      	ldr	r3, [pc, #44]	; (10008d1c <stdio_uart_init_full+0x34>)
10008cf0:	6018      	str	r0, [r3, #0]
10008cf2:	f7fd fdff 	bl	100068f4 <uart_init>
10008cf6:	2d00      	cmp	r5, #0
10008cf8:	da06      	bge.n	10008d08 <stdio_uart_init_full+0x20>
10008cfa:	2c00      	cmp	r4, #0
10008cfc:	da09      	bge.n	10008d12 <stdio_uart_init_full+0x2a>
10008cfe:	2101      	movs	r1, #1
10008d00:	4807      	ldr	r0, [pc, #28]	; (10008d20 <stdio_uart_init_full+0x38>)
10008d02:	f7ff ff23 	bl	10008b4c <stdio_set_driver_enabled>
10008d06:	bd70      	pop	{r4, r5, r6, pc}
10008d08:	2102      	movs	r1, #2
10008d0a:	0028      	movs	r0, r5
10008d0c:	f7fc f9a0 	bl	10005050 <gpio_set_function>
10008d10:	e7f3      	b.n	10008cfa <stdio_uart_init_full+0x12>
10008d12:	2102      	movs	r1, #2
10008d14:	0020      	movs	r0, r4
10008d16:	f7fc f99b 	bl	10005050 <gpio_set_function>
10008d1a:	e7f0      	b.n	10008cfe <stdio_uart_init_full+0x16>
10008d1c:	20002b24 	.word	0x20002b24
10008d20:	20000a90 	.word	0x20000a90

10008d24 <stdio_uart_init>:
10008d24:	b510      	push	{r4, lr}
10008d26:	4b06      	ldr	r3, [pc, #24]	; (10008d40 <stdio_uart_init+0x1c>)
10008d28:	781b      	ldrb	r3, [r3, #0]
10008d2a:	4b06      	ldr	r3, [pc, #24]	; (10008d44 <stdio_uart_init+0x20>)
10008d2c:	781b      	ldrb	r3, [r3, #0]
10008d2e:	21e1      	movs	r1, #225	; 0xe1
10008d30:	2301      	movs	r3, #1
10008d32:	2200      	movs	r2, #0
10008d34:	0249      	lsls	r1, r1, #9
10008d36:	4804      	ldr	r0, [pc, #16]	; (10008d48 <stdio_uart_init+0x24>)
10008d38:	f7ff ffd6 	bl	10008ce8 <stdio_uart_init_full>
10008d3c:	bd10      	pop	{r4, pc}
10008d3e:	46c0      	nop			; (mov r8, r8)
10008d40:	1000abec 	.word	0x1000abec
10008d44:	1000abf0 	.word	0x1000abf0
10008d48:	40034000 	.word	0x40034000

10008d4c <i2c_write_blocking_internal>:
10008d4c:	b5f0      	push	{r4, r5, r6, r7, lr}
10008d4e:	46de      	mov	lr, fp
10008d50:	4657      	mov	r7, sl
10008d52:	464e      	mov	r6, r9
10008d54:	4645      	mov	r5, r8
10008d56:	b5e0      	push	{r5, r6, r7, lr}
10008d58:	b085      	sub	sp, #20
10008d5a:	0006      	movs	r6, r0
10008d5c:	0010      	movs	r0, r2
10008d5e:	001c      	movs	r4, r3
10008d60:	9302      	str	r3, [sp, #8]
10008d62:	ab0e      	add	r3, sp, #56	; 0x38
10008d64:	781a      	ldrb	r2, [r3, #0]
10008d66:	9203      	str	r2, [sp, #12]
10008d68:	9d0f      	ldr	r5, [sp, #60]	; 0x3c
10008d6a:	9f10      	ldr	r7, [sp, #64]	; 0x40
10008d6c:	6833      	ldr	r3, [r6, #0]
10008d6e:	2200      	movs	r2, #0
10008d70:	66da      	str	r2, [r3, #108]	; 0x6c
10008d72:	6833      	ldr	r3, [r6, #0]
10008d74:	6059      	str	r1, [r3, #4]
10008d76:	6833      	ldr	r3, [r6, #0]
10008d78:	3201      	adds	r2, #1
10008d7a:	66da      	str	r2, [r3, #108]	; 0x6c
10008d7c:	46a2      	mov	sl, r4
10008d7e:	2300      	movs	r3, #0
10008d80:	4698      	mov	r8, r3
10008d82:	469b      	mov	fp, r3
10008d84:	2400      	movs	r4, #0
10008d86:	e02b      	b.n	10008de0 <i2c_write_blocking_internal+0x94>
10008d88:	7932      	ldrb	r2, [r6, #4]
10008d8a:	2a00      	cmp	r2, #0
10008d8c:	d031      	beq.n	10008df2 <i2c_write_blocking_internal+0xa6>
10008d8e:	2201      	movs	r2, #1
10008d90:	e02f      	b.n	10008df2 <i2c_write_blocking_internal+0xa6>
10008d92:	9903      	ldr	r1, [sp, #12]
10008d94:	2900      	cmp	r1, #0
10008d96:	d001      	beq.n	10008d9c <i2c_write_blocking_internal+0x50>
10008d98:	2100      	movs	r1, #0
10008d9a:	e02e      	b.n	10008dfa <i2c_write_blocking_internal+0xae>
10008d9c:	2101      	movs	r1, #1
10008d9e:	e02c      	b.n	10008dfa <i2c_write_blocking_internal+0xae>
10008da0:	0038      	movs	r0, r7
10008da2:	47a8      	blx	r5
10008da4:	0003      	movs	r3, r0
10008da6:	4304      	orrs	r4, r0
10008da8:	b2e4      	uxtb	r4, r4
10008daa:	2b00      	cmp	r3, #0
10008dac:	d106      	bne.n	10008dbc <i2c_write_blocking_internal+0x70>
10008dae:	6832      	ldr	r2, [r6, #0]
10008db0:	6b52      	ldr	r2, [r2, #52]	; 0x34
10008db2:	06d2      	lsls	r2, r2, #27
10008db4:	d402      	bmi.n	10008dbc <i2c_write_blocking_internal+0x70>
10008db6:	2d00      	cmp	r5, #0
10008db8:	d1f2      	bne.n	10008da0 <i2c_write_blocking_internal+0x54>
10008dba:	e7f6      	b.n	10008daa <i2c_write_blocking_internal+0x5e>
10008dbc:	2b00      	cmp	r3, #0
10008dbe:	d109      	bne.n	10008dd4 <i2c_write_blocking_internal+0x88>
10008dc0:	6832      	ldr	r2, [r6, #0]
10008dc2:	2180      	movs	r1, #128	; 0x80
10008dc4:	5851      	ldr	r1, [r2, r1]
10008dc6:	468b      	mov	fp, r1
10008dc8:	2900      	cmp	r1, #0
10008dca:	d11f      	bne.n	10008e0c <i2c_write_blocking_internal+0xc0>
10008dcc:	2c00      	cmp	r4, #0
10008dce:	d12f      	bne.n	10008e30 <i2c_write_blocking_internal+0xe4>
10008dd0:	45c1      	cmp	r9, r8
10008dd2:	d01e      	beq.n	10008e12 <i2c_write_blocking_internal+0xc6>
10008dd4:	2c00      	cmp	r4, #0
10008dd6:	d133      	bne.n	10008e40 <i2c_write_blocking_internal+0xf4>
10008dd8:	2201      	movs	r2, #1
10008dda:	4694      	mov	ip, r2
10008ddc:	44e0      	add	r8, ip
10008dde:	9801      	ldr	r0, [sp, #4]
10008de0:	45d0      	cmp	r8, sl
10008de2:	da2d      	bge.n	10008e40 <i2c_write_blocking_internal+0xf4>
10008de4:	9a02      	ldr	r2, [sp, #8]
10008de6:	3a01      	subs	r2, #1
10008de8:	4691      	mov	r9, r2
10008dea:	4642      	mov	r2, r8
10008dec:	2a00      	cmp	r2, #0
10008dee:	d0cb      	beq.n	10008d88 <i2c_write_blocking_internal+0x3c>
10008df0:	2200      	movs	r2, #0
10008df2:	0292      	lsls	r2, r2, #10
10008df4:	45c1      	cmp	r9, r8
10008df6:	d0cc      	beq.n	10008d92 <i2c_write_blocking_internal+0x46>
10008df8:	2100      	movs	r1, #0
10008dfa:	0249      	lsls	r1, r1, #9
10008dfc:	430a      	orrs	r2, r1
10008dfe:	1c41      	adds	r1, r0, #1
10008e00:	9101      	str	r1, [sp, #4]
10008e02:	7800      	ldrb	r0, [r0, #0]
10008e04:	6831      	ldr	r1, [r6, #0]
10008e06:	4302      	orrs	r2, r0
10008e08:	610a      	str	r2, [r1, #16]
10008e0a:	e7d4      	b.n	10008db6 <i2c_write_blocking_internal+0x6a>
10008e0c:	6d52      	ldr	r2, [r2, #84]	; 0x54
10008e0e:	2401      	movs	r4, #1
10008e10:	e00e      	b.n	10008e30 <i2c_write_blocking_internal+0xe4>
10008e12:	9a03      	ldr	r2, [sp, #12]
10008e14:	2a00      	cmp	r2, #0
10008e16:	d1dd      	bne.n	10008dd4 <i2c_write_blocking_internal+0x88>
10008e18:	e00a      	b.n	10008e30 <i2c_write_blocking_internal+0xe4>
10008e1a:	0038      	movs	r0, r7
10008e1c:	47a8      	blx	r5
10008e1e:	0003      	movs	r3, r0
10008e20:	4304      	orrs	r4, r0
10008e22:	b2e4      	uxtb	r4, r4
10008e24:	2b00      	cmp	r3, #0
10008e26:	d106      	bne.n	10008e36 <i2c_write_blocking_internal+0xea>
10008e28:	6832      	ldr	r2, [r6, #0]
10008e2a:	6b52      	ldr	r2, [r2, #52]	; 0x34
10008e2c:	0592      	lsls	r2, r2, #22
10008e2e:	d402      	bmi.n	10008e36 <i2c_write_blocking_internal+0xea>
10008e30:	2d00      	cmp	r5, #0
10008e32:	d1f2      	bne.n	10008e1a <i2c_write_blocking_internal+0xce>
10008e34:	e7f6      	b.n	10008e24 <i2c_write_blocking_internal+0xd8>
10008e36:	2b00      	cmp	r3, #0
10008e38:	d1cc      	bne.n	10008dd4 <i2c_write_blocking_internal+0x88>
10008e3a:	6832      	ldr	r2, [r6, #0]
10008e3c:	6e12      	ldr	r2, [r2, #96]	; 0x60
10008e3e:	e7c9      	b.n	10008dd4 <i2c_write_blocking_internal+0x88>
10008e40:	2c00      	cmp	r4, #0
10008e42:	d009      	beq.n	10008e58 <i2c_write_blocking_internal+0x10c>
10008e44:	2b00      	cmp	r3, #0
10008e46:	d115      	bne.n	10008e74 <i2c_write_blocking_internal+0x128>
10008e48:	465b      	mov	r3, fp
10008e4a:	2b00      	cmp	r3, #0
10008e4c:	d016      	beq.n	10008e7c <i2c_write_blocking_internal+0x130>
10008e4e:	07db      	lsls	r3, r3, #31
10008e50:	d418      	bmi.n	10008e84 <i2c_write_blocking_internal+0x138>
10008e52:	465b      	mov	r3, fp
10008e54:	071b      	lsls	r3, r3, #28
10008e56:	d509      	bpl.n	10008e6c <i2c_write_blocking_internal+0x120>
10008e58:	9b03      	ldr	r3, [sp, #12]
10008e5a:	7133      	strb	r3, [r6, #4]
10008e5c:	4640      	mov	r0, r8
10008e5e:	b005      	add	sp, #20
10008e60:	bcf0      	pop	{r4, r5, r6, r7}
10008e62:	46bb      	mov	fp, r7
10008e64:	46b2      	mov	sl, r6
10008e66:	46a9      	mov	r9, r5
10008e68:	46a0      	mov	r8, r4
10008e6a:	bdf0      	pop	{r4, r5, r6, r7, pc}
10008e6c:	2302      	movs	r3, #2
10008e6e:	425b      	negs	r3, r3
10008e70:	4698      	mov	r8, r3
10008e72:	e7f1      	b.n	10008e58 <i2c_write_blocking_internal+0x10c>
10008e74:	2301      	movs	r3, #1
10008e76:	425b      	negs	r3, r3
10008e78:	4698      	mov	r8, r3
10008e7a:	e7ed      	b.n	10008e58 <i2c_write_blocking_internal+0x10c>
10008e7c:	2302      	movs	r3, #2
10008e7e:	425b      	negs	r3, r3
10008e80:	4698      	mov	r8, r3
10008e82:	e7e9      	b.n	10008e58 <i2c_write_blocking_internal+0x10c>
10008e84:	2302      	movs	r3, #2
10008e86:	425b      	negs	r3, r3
10008e88:	4698      	mov	r8, r3
10008e8a:	e7e5      	b.n	10008e58 <i2c_write_blocking_internal+0x10c>

10008e8c <i2c_read_blocking_internal>:
10008e8c:	b5f0      	push	{r4, r5, r6, r7, lr}
10008e8e:	46de      	mov	lr, fp
10008e90:	4657      	mov	r7, sl
10008e92:	464e      	mov	r6, r9
10008e94:	4645      	mov	r5, r8
10008e96:	b5e0      	push	{r5, r6, r7, lr}
10008e98:	b083      	sub	sp, #12
10008e9a:	0005      	movs	r5, r0
10008e9c:	4691      	mov	r9, r2
10008e9e:	469a      	mov	sl, r3
10008ea0:	ab0c      	add	r3, sp, #48	; 0x30
10008ea2:	781b      	ldrb	r3, [r3, #0]
10008ea4:	9301      	str	r3, [sp, #4]
10008ea6:	9e0d      	ldr	r6, [sp, #52]	; 0x34
10008ea8:	9f0e      	ldr	r7, [sp, #56]	; 0x38
10008eaa:	6803      	ldr	r3, [r0, #0]
10008eac:	2200      	movs	r2, #0
10008eae:	66da      	str	r2, [r3, #108]	; 0x6c
10008eb0:	6803      	ldr	r3, [r0, #0]
10008eb2:	6059      	str	r1, [r3, #4]
10008eb4:	6803      	ldr	r3, [r0, #0]
10008eb6:	3201      	adds	r2, #1
10008eb8:	66da      	str	r2, [r3, #108]	; 0x6c
10008eba:	46d3      	mov	fp, sl
10008ebc:	2300      	movs	r3, #0
10008ebe:	4698      	mov	r8, r3
10008ec0:	2400      	movs	r4, #0
10008ec2:	e02a      	b.n	10008f1a <i2c_read_blocking_internal+0x8e>
10008ec4:	7929      	ldrb	r1, [r5, #4]
10008ec6:	2900      	cmp	r1, #0
10008ec8:	d033      	beq.n	10008f32 <i2c_read_blocking_internal+0xa6>
10008eca:	2101      	movs	r1, #1
10008ecc:	e031      	b.n	10008f32 <i2c_read_blocking_internal+0xa6>
10008ece:	9801      	ldr	r0, [sp, #4]
10008ed0:	2800      	cmp	r0, #0
10008ed2:	d001      	beq.n	10008ed8 <i2c_read_blocking_internal+0x4c>
10008ed4:	2000      	movs	r0, #0
10008ed6:	e030      	b.n	10008f3a <i2c_read_blocking_internal+0xae>
10008ed8:	2001      	movs	r0, #1
10008eda:	e02e      	b.n	10008f3a <i2c_read_blocking_internal+0xae>
10008edc:	0038      	movs	r0, r7
10008ede:	47b0      	blx	r6
10008ee0:	0003      	movs	r3, r0
10008ee2:	4304      	orrs	r4, r0
10008ee4:	b2e4      	uxtb	r4, r4
10008ee6:	2c00      	cmp	r4, #0
10008ee8:	d10d      	bne.n	10008f06 <i2c_read_blocking_internal+0x7a>
10008eea:	682a      	ldr	r2, [r5, #0]
10008eec:	6f92      	ldr	r2, [r2, #120]	; 0x78
10008eee:	2a00      	cmp	r2, #0
10008ef0:	d109      	bne.n	10008f06 <i2c_read_blocking_internal+0x7a>
10008ef2:	682a      	ldr	r2, [r5, #0]
10008ef4:	2180      	movs	r1, #128	; 0x80
10008ef6:	5851      	ldr	r1, [r2, r1]
10008ef8:	6d54      	ldr	r4, [r2, #84]	; 0x54
10008efa:	1e62      	subs	r2, r4, #1
10008efc:	4194      	sbcs	r4, r2
10008efe:	b2e4      	uxtb	r4, r4
10008f00:	2e00      	cmp	r6, #0
10008f02:	d1eb      	bne.n	10008edc <i2c_read_blocking_internal+0x50>
10008f04:	e7ef      	b.n	10008ee6 <i2c_read_blocking_internal+0x5a>
10008f06:	2c00      	cmp	r4, #0
10008f08:	d11e      	bne.n	10008f48 <i2c_read_blocking_internal+0xbc>
10008f0a:	682a      	ldr	r2, [r5, #0]
10008f0c:	6912      	ldr	r2, [r2, #16]
10008f0e:	4649      	mov	r1, r9
10008f10:	700a      	strb	r2, [r1, #0]
10008f12:	2201      	movs	r2, #1
10008f14:	4694      	mov	ip, r2
10008f16:	44e0      	add	r8, ip
10008f18:	44e1      	add	r9, ip
10008f1a:	45d8      	cmp	r8, fp
10008f1c:	da14      	bge.n	10008f48 <i2c_read_blocking_internal+0xbc>
10008f1e:	4652      	mov	r2, sl
10008f20:	1e54      	subs	r4, r2, #1
10008f22:	682a      	ldr	r2, [r5, #0]
10008f24:	6f51      	ldr	r1, [r2, #116]	; 0x74
10008f26:	2910      	cmp	r1, #16
10008f28:	d0fb      	beq.n	10008f22 <i2c_read_blocking_internal+0x96>
10008f2a:	4641      	mov	r1, r8
10008f2c:	2900      	cmp	r1, #0
10008f2e:	d0c9      	beq.n	10008ec4 <i2c_read_blocking_internal+0x38>
10008f30:	2100      	movs	r1, #0
10008f32:	0289      	lsls	r1, r1, #10
10008f34:	4544      	cmp	r4, r8
10008f36:	d0ca      	beq.n	10008ece <i2c_read_blocking_internal+0x42>
10008f38:	2000      	movs	r0, #0
10008f3a:	0240      	lsls	r0, r0, #9
10008f3c:	4308      	orrs	r0, r1
10008f3e:	2180      	movs	r1, #128	; 0x80
10008f40:	0049      	lsls	r1, r1, #1
10008f42:	4301      	orrs	r1, r0
10008f44:	6111      	str	r1, [r2, #16]
10008f46:	e7d4      	b.n	10008ef2 <i2c_read_blocking_internal+0x66>
10008f48:	2c00      	cmp	r4, #0
10008f4a:	d004      	beq.n	10008f56 <i2c_read_blocking_internal+0xca>
10008f4c:	2b00      	cmp	r3, #0
10008f4e:	d00c      	beq.n	10008f6a <i2c_read_blocking_internal+0xde>
10008f50:	2301      	movs	r3, #1
10008f52:	425b      	negs	r3, r3
10008f54:	4698      	mov	r8, r3
10008f56:	9b01      	ldr	r3, [sp, #4]
10008f58:	712b      	strb	r3, [r5, #4]
10008f5a:	4640      	mov	r0, r8
10008f5c:	b003      	add	sp, #12
10008f5e:	bcf0      	pop	{r4, r5, r6, r7}
10008f60:	46bb      	mov	fp, r7
10008f62:	46b2      	mov	sl, r6
10008f64:	46a9      	mov	r9, r5
10008f66:	46a0      	mov	r8, r4
10008f68:	bdf0      	pop	{r4, r5, r6, r7, pc}
10008f6a:	2302      	movs	r3, #2
10008f6c:	425b      	negs	r3, r3
10008f6e:	4698      	mov	r8, r3
10008f70:	e7f1      	b.n	10008f56 <i2c_read_blocking_internal+0xca>
	...

10008f74 <i2c_set_baudrate>:
10008f74:	b5f0      	push	{r4, r5, r6, r7, lr}
10008f76:	46d6      	mov	lr, sl
10008f78:	464f      	mov	r7, r9
10008f7a:	4646      	mov	r6, r8
10008f7c:	b5c0      	push	{r6, r7, lr}
10008f7e:	0005      	movs	r5, r0
10008f80:	000c      	movs	r4, r1
10008f82:	2005      	movs	r0, #5
10008f84:	f7fd feb0 	bl	10006ce8 <clock_get_hz>
10008f88:	0006      	movs	r6, r0
10008f8a:	0860      	lsrs	r0, r4, #1
10008f8c:	1980      	adds	r0, r0, r6
10008f8e:	0021      	movs	r1, r4
10008f90:	f7ff f880 	bl	10008094 <__wrap___aeabi_uidiv>
10008f94:	0007      	movs	r7, r0
10008f96:	0043      	lsls	r3, r0, #1
10008f98:	4699      	mov	r9, r3
10008f9a:	4481      	add	r9, r0
10008f9c:	2105      	movs	r1, #5
10008f9e:	4648      	mov	r0, r9
10008fa0:	f7ff f878 	bl	10008094 <__wrap___aeabi_uidiv>
10008fa4:	4680      	mov	r8, r0
10008fa6:	1a3b      	subs	r3, r7, r0
10008fa8:	469a      	mov	sl, r3
10008faa:	4b28      	ldr	r3, [pc, #160]	; (1000904c <i2c_set_baudrate+0xd8>)
10008fac:	429c      	cmp	r4, r3
10008fae:	d824      	bhi.n	10008ffa <i2c_set_baudrate+0x86>
10008fb0:	0070      	lsls	r0, r6, #1
10008fb2:	1980      	adds	r0, r0, r6
10008fb4:	4926      	ldr	r1, [pc, #152]	; (10009050 <i2c_set_baudrate+0xdc>)
10008fb6:	f7ff f86d 	bl	10008094 <__wrap___aeabi_uidiv>
10008fba:	1c44      	adds	r4, r0, #1
10008fbc:	4643      	mov	r3, r8
10008fbe:	3b02      	subs	r3, #2
10008fc0:	42a3      	cmp	r3, r4
10008fc2:	d321      	bcc.n	10009008 <i2c_set_baudrate+0x94>
10008fc4:	682b      	ldr	r3, [r5, #0]
10008fc6:	2200      	movs	r2, #0
10008fc8:	66da      	str	r2, [r3, #108]	; 0x6c
10008fca:	6829      	ldr	r1, [r5, #0]
10008fcc:	680a      	ldr	r2, [r1, #0]
10008fce:	2304      	movs	r3, #4
10008fd0:	4053      	eors	r3, r2
10008fd2:	2206      	movs	r2, #6
10008fd4:	401a      	ands	r2, r3
10008fd6:	2380      	movs	r3, #128	; 0x80
10008fd8:	015b      	lsls	r3, r3, #5
10008fda:	430b      	orrs	r3, r1
10008fdc:	601a      	str	r2, [r3, #0]
10008fde:	682b      	ldr	r3, [r5, #0]
10008fe0:	4652      	mov	r2, sl
10008fe2:	61da      	str	r2, [r3, #28]
10008fe4:	682b      	ldr	r3, [r5, #0]
10008fe6:	4642      	mov	r2, r8
10008fe8:	621a      	str	r2, [r3, #32]
10008fea:	464b      	mov	r3, r9
10008fec:	2b4f      	cmp	r3, #79	; 0x4f
10008fee:	d911      	bls.n	10009014 <i2c_set_baudrate+0xa0>
10008ff0:	2150      	movs	r1, #80	; 0x50
10008ff2:	4648      	mov	r0, r9
10008ff4:	f7ff f84e 	bl	10008094 <__wrap___aeabi_uidiv>
10008ff8:	e00d      	b.n	10009016 <i2c_set_baudrate+0xa2>
10008ffa:	0070      	lsls	r0, r6, #1
10008ffc:	1980      	adds	r0, r0, r6
10008ffe:	4915      	ldr	r1, [pc, #84]	; (10009054 <i2c_set_baudrate+0xe0>)
10009000:	f7ff f848 	bl	10008094 <__wrap___aeabi_uidiv>
10009004:	1c44      	adds	r4, r0, #1
10009006:	e7d9      	b.n	10008fbc <i2c_set_baudrate+0x48>
10009008:	4b13      	ldr	r3, [pc, #76]	; (10009058 <i2c_set_baudrate+0xe4>)
1000900a:	4a14      	ldr	r2, [pc, #80]	; (1000905c <i2c_set_baudrate+0xe8>)
1000900c:	215f      	movs	r1, #95	; 0x5f
1000900e:	4814      	ldr	r0, [pc, #80]	; (10009060 <i2c_set_baudrate+0xec>)
10009010:	f7fd fcb6 	bl	10006980 <__assert_func>
10009014:	2001      	movs	r0, #1
10009016:	23a0      	movs	r3, #160	; 0xa0
10009018:	682a      	ldr	r2, [r5, #0]
1000901a:	50d0      	str	r0, [r2, r3]
1000901c:	682a      	ldr	r2, [r5, #0]
1000901e:	0011      	movs	r1, r2
10009020:	317c      	adds	r1, #124	; 0x7c
10009022:	6fd0      	ldr	r0, [r2, #124]	; 0x7c
10009024:	4044      	eors	r4, r0
10009026:	0424      	lsls	r4, r4, #16
10009028:	0c24      	lsrs	r4, r4, #16
1000902a:	2380      	movs	r3, #128	; 0x80
1000902c:	015b      	lsls	r3, r3, #5
1000902e:	430b      	orrs	r3, r1
10009030:	601c      	str	r4, [r3, #0]
10009032:	682b      	ldr	r3, [r5, #0]
10009034:	2201      	movs	r2, #1
10009036:	66da      	str	r2, [r3, #108]	; 0x6c
10009038:	0039      	movs	r1, r7
1000903a:	0030      	movs	r0, r6
1000903c:	f7ff f82a 	bl	10008094 <__wrap___aeabi_uidiv>
10009040:	bce0      	pop	{r5, r6, r7}
10009042:	46ba      	mov	sl, r7
10009044:	46b1      	mov	r9, r6
10009046:	46a8      	mov	r8, r5
10009048:	bdf0      	pop	{r4, r5, r6, r7, pc}
1000904a:	46c0      	nop			; (mov r8, r8)
1000904c:	000f423f 	.word	0x000f423f
10009050:	00989680 	.word	0x00989680
10009054:	017d7840 	.word	0x017d7840
10009058:	1000a9f8 	.word	0x1000a9f8
1000905c:	1000aa54 	.word	0x1000aa54
10009060:	1000aa18 	.word	0x1000aa18

10009064 <i2c_init>:
10009064:	b510      	push	{r4, lr}
10009066:	4b11      	ldr	r3, [pc, #68]	; (100090ac <i2c_init+0x48>)
10009068:	4298      	cmp	r0, r3
1000906a:	d01c      	beq.n	100090a6 <i2c_init+0x42>
1000906c:	2210      	movs	r2, #16
1000906e:	4b10      	ldr	r3, [pc, #64]	; (100090b0 <i2c_init+0x4c>)
10009070:	601a      	str	r2, [r3, #0]
10009072:	4b10      	ldr	r3, [pc, #64]	; (100090b4 <i2c_init+0x50>)
10009074:	601a      	str	r2, [r3, #0]
10009076:	4b10      	ldr	r3, [pc, #64]	; (100090b8 <i2c_init+0x54>)
10009078:	689b      	ldr	r3, [r3, #8]
1000907a:	0014      	movs	r4, r2
1000907c:	439c      	bics	r4, r3
1000907e:	1e23      	subs	r3, r4, #0
10009080:	d1f9      	bne.n	10009076 <i2c_init+0x12>
10009082:	7104      	strb	r4, [r0, #4]
10009084:	6802      	ldr	r2, [r0, #0]
10009086:	66d4      	str	r4, [r2, #108]	; 0x6c
10009088:	6802      	ldr	r2, [r0, #0]
1000908a:	2466      	movs	r4, #102	; 0x66
1000908c:	34ff      	adds	r4, #255	; 0xff
1000908e:	6014      	str	r4, [r2, #0]
10009090:	6802      	ldr	r2, [r0, #0]
10009092:	63d3      	str	r3, [r2, #60]	; 0x3c
10009094:	6802      	ldr	r2, [r0, #0]
10009096:	6393      	str	r3, [r2, #56]	; 0x38
10009098:	3388      	adds	r3, #136	; 0x88
1000909a:	2203      	movs	r2, #3
1000909c:	6804      	ldr	r4, [r0, #0]
1000909e:	50e2      	str	r2, [r4, r3]
100090a0:	f7ff ff68 	bl	10008f74 <i2c_set_baudrate>
100090a4:	bd10      	pop	{r4, pc}
100090a6:	2208      	movs	r2, #8
100090a8:	e7e1      	b.n	1000906e <i2c_init+0xa>
100090aa:	46c0      	nop			; (mov r8, r8)
100090ac:	20000aa4 	.word	0x20000aa4
100090b0:	4000e000 	.word	0x4000e000
100090b4:	4000f000 	.word	0x4000f000
100090b8:	4000c000 	.word	0x4000c000

100090bc <i2c_write_blocking>:
100090bc:	b530      	push	{r4, r5, lr}
100090be:	b085      	sub	sp, #20
100090c0:	ac08      	add	r4, sp, #32
100090c2:	7825      	ldrb	r5, [r4, #0]
100090c4:	2400      	movs	r4, #0
100090c6:	9402      	str	r4, [sp, #8]
100090c8:	9401      	str	r4, [sp, #4]
100090ca:	9500      	str	r5, [sp, #0]
100090cc:	f7ff fe3e 	bl	10008d4c <i2c_write_blocking_internal>
100090d0:	b005      	add	sp, #20
100090d2:	bd30      	pop	{r4, r5, pc}

100090d4 <i2c_read_blocking>:
100090d4:	b530      	push	{r4, r5, lr}
100090d6:	b085      	sub	sp, #20
100090d8:	ac08      	add	r4, sp, #32
100090da:	7825      	ldrb	r5, [r4, #0]
100090dc:	2400      	movs	r4, #0
100090de:	9402      	str	r4, [sp, #8]
100090e0:	9401      	str	r4, [sp, #4]
100090e2:	9500      	str	r5, [sp, #0]
100090e4:	f7ff fed2 	bl	10008e8c <i2c_read_blocking_internal>
100090e8:	b005      	add	sp, #20
100090ea:	bd30      	pop	{r4, r5, pc}

100090ec <adc_init>:
100090ec:	2301      	movs	r3, #1
100090ee:	4a08      	ldr	r2, [pc, #32]	; (10009110 <adc_init+0x24>)
100090f0:	6013      	str	r3, [r2, #0]
100090f2:	4a08      	ldr	r2, [pc, #32]	; (10009114 <adc_init+0x28>)
100090f4:	6013      	str	r3, [r2, #0]
100090f6:	4b08      	ldr	r3, [pc, #32]	; (10009118 <adc_init+0x2c>)
100090f8:	689a      	ldr	r2, [r3, #8]
100090fa:	2301      	movs	r3, #1
100090fc:	4393      	bics	r3, r2
100090fe:	d1fa      	bne.n	100090f6 <adc_init+0xa>
10009100:	4b06      	ldr	r3, [pc, #24]	; (1000911c <adc_init+0x30>)
10009102:	2201      	movs	r2, #1
10009104:	601a      	str	r2, [r3, #0]
10009106:	4b05      	ldr	r3, [pc, #20]	; (1000911c <adc_init+0x30>)
10009108:	681b      	ldr	r3, [r3, #0]
1000910a:	05db      	lsls	r3, r3, #23
1000910c:	d5fb      	bpl.n	10009106 <adc_init+0x1a>
1000910e:	4770      	bx	lr
10009110:	4000e000 	.word	0x4000e000
10009114:	4000f000 	.word	0x4000f000
10009118:	4000c000 	.word	0x4000c000
1000911c:	4004c000 	.word	0x4004c000

10009120 <_retrieve_unique_id_on_boot>:
10009120:	b510      	push	{r4, lr}
10009122:	4802      	ldr	r0, [pc, #8]	; (1000912c <_retrieve_unique_id_on_boot+0xc>)
10009124:	f000 f80c 	bl	10009140 <flash_get_unique_id>
10009128:	bd10      	pop	{r4, pc}
1000912a:	46c0      	nop			; (mov r8, r8)
1000912c:	20002900 	.word	0x20002900

10009130 <pico_get_unique_board_id>:
10009130:	b510      	push	{r4, lr}
10009132:	2208      	movs	r2, #8
10009134:	4901      	ldr	r1, [pc, #4]	; (1000913c <pico_get_unique_board_id+0xc>)
10009136:	f7ff fc1d 	bl	10008974 <__wrap___aeabi_memcpy>
1000913a:	bd10      	pop	{r4, pc}
1000913c:	20002900 	.word	0x20002900

10009140 <flash_get_unique_id>:
10009140:	b570      	push	{r4, r5, r6, lr}
10009142:	b088      	sub	sp, #32
10009144:	0004      	movs	r4, r0
10009146:	ad04      	add	r5, sp, #16
10009148:	2600      	movs	r6, #0
1000914a:	9604      	str	r6, [sp, #16]
1000914c:	2209      	movs	r2, #9
1000914e:	2100      	movs	r1, #0
10009150:	a805      	add	r0, sp, #20
10009152:	f7ff fc09 	bl	10008968 <__wrap_memset>
10009156:	9600      	str	r6, [sp, #0]
10009158:	2209      	movs	r2, #9
1000915a:	2100      	movs	r1, #0
1000915c:	a801      	add	r0, sp, #4
1000915e:	f7ff fc03 	bl	10008968 <__wrap_memset>
10009162:	234b      	movs	r3, #75	; 0x4b
10009164:	702b      	strb	r3, [r5, #0]
10009166:	220d      	movs	r2, #13
10009168:	4669      	mov	r1, sp
1000916a:	0028      	movs	r0, r5
1000916c:	f000 f894 	bl	10009298 <__flash_do_cmd_veneer>
10009170:	2300      	movs	r3, #0
10009172:	e004      	b.n	1000917e <flash_get_unique_id+0x3e>
10009174:	1d5a      	adds	r2, r3, #5
10009176:	4669      	mov	r1, sp
10009178:	5c8a      	ldrb	r2, [r1, r2]
1000917a:	54e2      	strb	r2, [r4, r3]
1000917c:	3301      	adds	r3, #1
1000917e:	2b07      	cmp	r3, #7
10009180:	ddf8      	ble.n	10009174 <flash_get_unique_id+0x34>
10009182:	b008      	add	sp, #32
10009184:	bd70      	pop	{r4, r5, r6, pc}
	...

10009188 <srand>:
10009188:	2200      	movs	r2, #0
1000918a:	4b03      	ldr	r3, [pc, #12]	; (10009198 <srand+0x10>)
1000918c:	681b      	ldr	r3, [r3, #0]
1000918e:	33a8      	adds	r3, #168	; 0xa8
10009190:	6018      	str	r0, [r3, #0]
10009192:	605a      	str	r2, [r3, #4]
10009194:	4770      	bx	lr
10009196:	46c0      	nop			; (mov r8, r8)
10009198:	20000ab4 	.word	0x20000ab4

1000919c <strcmp>:
1000919c:	4602      	mov	r2, r0
1000919e:	b570      	push	{r4, r5, r6, lr}
100091a0:	430a      	orrs	r2, r1
100091a2:	0792      	lsls	r2, r2, #30
100091a4:	d12a      	bne.n	100091fc <strcmp+0x60>
100091a6:	4d1e      	ldr	r5, [pc, #120]	; (10009220 <strcmp+0x84>)
100091a8:	01ee      	lsls	r6, r5, #7
100091aa:	c804      	ldmia	r0!, {r2}
100091ac:	c908      	ldmia	r1!, {r3}
100091ae:	1b54      	subs	r4, r2, r5
100091b0:	4394      	bics	r4, r2
100091b2:	4034      	ands	r4, r6
100091b4:	d017      	beq.n	100091e6 <strcmp+0x4a>
100091b6:	b2d0      	uxtb	r0, r2
100091b8:	b2d9      	uxtb	r1, r3
100091ba:	1a40      	subs	r0, r0, r1
100091bc:	0621      	lsls	r1, r4, #24
100091be:	4301      	orrs	r1, r0
100091c0:	d110      	bne.n	100091e4 <strcmp+0x48>
100091c2:	b290      	uxth	r0, r2
100091c4:	b299      	uxth	r1, r3
100091c6:	1a40      	subs	r0, r0, r1
100091c8:	0421      	lsls	r1, r4, #16
100091ca:	4301      	orrs	r1, r0
100091cc:	d10a      	bne.n	100091e4 <strcmp+0x48>
100091ce:	0210      	lsls	r0, r2, #8
100091d0:	0219      	lsls	r1, r3, #8
100091d2:	0a00      	lsrs	r0, r0, #8
100091d4:	0a09      	lsrs	r1, r1, #8
100091d6:	1a40      	subs	r0, r0, r1
100091d8:	0221      	lsls	r1, r4, #8
100091da:	4301      	orrs	r1, r0
100091dc:	d102      	bne.n	100091e4 <strcmp+0x48>
100091de:	0e10      	lsrs	r0, r2, #24
100091e0:	0e19      	lsrs	r1, r3, #24
100091e2:	1a40      	subs	r0, r0, r1
100091e4:	bd70      	pop	{r4, r5, r6, pc}
100091e6:	429a      	cmp	r2, r3
100091e8:	d0df      	beq.n	100091aa <strcmp+0xe>
100091ea:	ba10      	rev	r0, r2
100091ec:	ba19      	rev	r1, r3
100091ee:	4288      	cmp	r0, r1
100091f0:	d901      	bls.n	100091f6 <strcmp+0x5a>
100091f2:	2001      	movs	r0, #1
100091f4:	bd70      	pop	{r4, r5, r6, pc}
100091f6:	2000      	movs	r0, #0
100091f8:	43c0      	mvns	r0, r0
100091fa:	bd70      	pop	{r4, r5, r6, pc}
100091fc:	7802      	ldrb	r2, [r0, #0]
100091fe:	780b      	ldrb	r3, [r1, #0]
10009200:	3001      	adds	r0, #1
10009202:	3101      	adds	r1, #1
10009204:	2a00      	cmp	r2, #0
10009206:	d009      	beq.n	1000921c <strcmp+0x80>
10009208:	429a      	cmp	r2, r3
1000920a:	d107      	bne.n	1000921c <strcmp+0x80>
1000920c:	7802      	ldrb	r2, [r0, #0]
1000920e:	780b      	ldrb	r3, [r1, #0]
10009210:	3001      	adds	r0, #1
10009212:	3101      	adds	r1, #1
10009214:	2a00      	cmp	r2, #0
10009216:	d001      	beq.n	1000921c <strcmp+0x80>
10009218:	429a      	cmp	r2, r3
1000921a:	d0ef      	beq.n	100091fc <strcmp+0x60>
1000921c:	1ad0      	subs	r0, r2, r3
1000921e:	bd70      	pop	{r4, r5, r6, pc}
10009220:	01010101 	.word	0x01010101

10009224 <strlen>:
10009224:	b510      	push	{r4, lr}
10009226:	0783      	lsls	r3, r0, #30
10009228:	d00a      	beq.n	10009240 <strlen+0x1c>
1000922a:	0003      	movs	r3, r0
1000922c:	2103      	movs	r1, #3
1000922e:	e002      	b.n	10009236 <strlen+0x12>
10009230:	3301      	adds	r3, #1
10009232:	420b      	tst	r3, r1
10009234:	d005      	beq.n	10009242 <strlen+0x1e>
10009236:	781a      	ldrb	r2, [r3, #0]
10009238:	2a00      	cmp	r2, #0
1000923a:	d1f9      	bne.n	10009230 <strlen+0xc>
1000923c:	1a18      	subs	r0, r3, r0
1000923e:	bd10      	pop	{r4, pc}
10009240:	0003      	movs	r3, r0
10009242:	6819      	ldr	r1, [r3, #0]
10009244:	4a0c      	ldr	r2, [pc, #48]	; (10009278 <strlen+0x54>)
10009246:	4c0d      	ldr	r4, [pc, #52]	; (1000927c <strlen+0x58>)
10009248:	188a      	adds	r2, r1, r2
1000924a:	438a      	bics	r2, r1
1000924c:	4222      	tst	r2, r4
1000924e:	d10f      	bne.n	10009270 <strlen+0x4c>
10009250:	6859      	ldr	r1, [r3, #4]
10009252:	4a09      	ldr	r2, [pc, #36]	; (10009278 <strlen+0x54>)
10009254:	3304      	adds	r3, #4
10009256:	188a      	adds	r2, r1, r2
10009258:	438a      	bics	r2, r1
1000925a:	4222      	tst	r2, r4
1000925c:	d108      	bne.n	10009270 <strlen+0x4c>
1000925e:	6859      	ldr	r1, [r3, #4]
10009260:	4a05      	ldr	r2, [pc, #20]	; (10009278 <strlen+0x54>)
10009262:	3304      	adds	r3, #4
10009264:	188a      	adds	r2, r1, r2
10009266:	438a      	bics	r2, r1
10009268:	4222      	tst	r2, r4
1000926a:	d0f1      	beq.n	10009250 <strlen+0x2c>
1000926c:	e000      	b.n	10009270 <strlen+0x4c>
1000926e:	3301      	adds	r3, #1
10009270:	781a      	ldrb	r2, [r3, #0]
10009272:	2a00      	cmp	r2, #0
10009274:	d1fb      	bne.n	1000926e <strlen+0x4a>
10009276:	e7e1      	b.n	1000923c <strlen+0x18>
10009278:	fefefeff 	.word	0xfefefeff
1000927c:	80808080 	.word	0x80808080

10009280 <_fini>:
10009280:	b5f8      	push	{r3, r4, r5, r6, r7, lr}
10009282:	46c0      	nop			; (mov r8, r8)
10009284:	0000      	movs	r0, r0
	...

10009288 <__sem_release_veneer>:
10009288:	b401      	push	{r0}
1000928a:	4802      	ldr	r0, [pc, #8]	; (10009294 <__sem_release_veneer+0xc>)
1000928c:	4684      	mov	ip, r0
1000928e:	bc01      	pop	{r0}
10009290:	4760      	bx	ip
10009292:	bf00      	nop
10009294:	200000c1 	.word	0x200000c1

10009298 <__flash_do_cmd_veneer>:
10009298:	b401      	push	{r0}
1000929a:	4802      	ldr	r0, [pc, #8]	; (100092a4 <__flash_do_cmd_veneer+0xc>)
1000929c:	4684      	mov	ip, r0
1000929e:	bc01      	pop	{r0}
100092a0:	4760      	bx	ip
100092a2:	bf00      	nop
100092a4:	2000024d 	.word	0x2000024d

100092a8 <__mutex_exit_veneer>:
100092a8:	b401      	push	{r0}
100092aa:	4802      	ldr	r0, [pc, #8]	; (100092b4 <__mutex_exit_veneer+0xc>)
100092ac:	4684      	mov	ip, r0
100092ae:	bc01      	pop	{r0}
100092b0:	4760      	bx	ip
100092b2:	bf00      	nop
100092b4:	20000199 	.word	0x20000199

100092b8 <____aeabi_ldiv0_veneer>:
100092b8:	b401      	push	{r0}
100092ba:	4802      	ldr	r0, [pc, #8]	; (100092c4 <____aeabi_ldiv0_veneer+0xc>)
100092bc:	4684      	mov	ip, r0
100092be:	bc01      	pop	{r0}
100092c0:	4760      	bx	ip
100092c2:	bf00      	nop
100092c4:	20000325 	.word	0x20000325

100092c8 <____aeabi_idiv0_veneer>:
100092c8:	b401      	push	{r0}
100092ca:	4802      	ldr	r0, [pc, #8]	; (100092d4 <____aeabi_idiv0_veneer+0xc>)
100092cc:	4684      	mov	ip, r0
100092ce:	bc01      	pop	{r0}
100092d0:	4760      	bx	ip
100092d2:	bf00      	nop
100092d4:	20000325 	.word	0x20000325

100092d8 <__mutex_try_enter_veneer>:
100092d8:	b401      	push	{r0}
100092da:	4802      	ldr	r0, [pc, #8]	; (100092e4 <__mutex_try_enter_veneer+0xc>)
100092dc:	4684      	mov	ip, r0
100092de:	bc01      	pop	{r0}
100092e0:	4760      	bx	ip
100092e2:	bf00      	nop
100092e4:	20000153 	.word	0x20000153

100092e8 <__mutex_enter_blocking_veneer>:
100092e8:	b401      	push	{r0}
100092ea:	4802      	ldr	r0, [pc, #8]	; (100092f4 <__mutex_enter_blocking_veneer+0xc>)
100092ec:	4684      	mov	ip, r0
100092ee:	bc01      	pop	{r0}
100092f0:	4760      	bx	ip
100092f2:	bf00      	nop
100092f4:	2000010b 	.word	0x2000010b

Disassembly of section .data:

200000c0 <sem_release>:
200000c0:	b510      	push	{r4, lr}
200000c2:	6802      	ldr	r2, [r0, #0]
200000c4:	f3ef 8110 	mrs	r1, PRIMASK
200000c8:	b672      	cpsid	i
200000ca:	6813      	ldr	r3, [r2, #0]
200000cc:	2b00      	cmp	r3, #0
200000ce:	d0fc      	beq.n	200000ca <sem_release+0xa>
200000d0:	f3bf 8f5f 	dmb	sy
200000d4:	2204      	movs	r2, #4
200000d6:	5e83      	ldrsh	r3, [r0, r2]
200000d8:	2406      	movs	r4, #6
200000da:	5f02      	ldrsh	r2, [r0, r4]
200000dc:	4293      	cmp	r3, r2
200000de:	da0b      	bge.n	200000f8 <sem_release+0x38>
200000e0:	3301      	adds	r3, #1
200000e2:	8083      	strh	r3, [r0, #4]
200000e4:	6803      	ldr	r3, [r0, #0]
200000e6:	f3bf 8f5f 	dmb	sy
200000ea:	2200      	movs	r2, #0
200000ec:	601a      	str	r2, [r3, #0]
200000ee:	f381 8810 	msr	PRIMASK, r1
200000f2:	bf40      	sev
200000f4:	2001      	movs	r0, #1
200000f6:	bd10      	pop	{r4, pc}
200000f8:	6803      	ldr	r3, [r0, #0]
200000fa:	f3bf 8f5f 	dmb	sy
200000fe:	2200      	movs	r2, #0
20000100:	601a      	str	r2, [r3, #0]
20000102:	f381 8810 	msr	PRIMASK, r1
20000106:	2000      	movs	r0, #0
20000108:	e7f5      	b.n	200000f6 <sem_release+0x36>

2000010a <mutex_enter_blocking>:
2000010a:	b510      	push	{r4, lr}
2000010c:	23d0      	movs	r3, #208	; 0xd0
2000010e:	061b      	lsls	r3, r3, #24
20000110:	2400      	movs	r4, #0
20000112:	571c      	ldrsb	r4, [r3, r4]
20000114:	6802      	ldr	r2, [r0, #0]
20000116:	f3ef 8110 	mrs	r1, PRIMASK
2000011a:	b672      	cpsid	i
2000011c:	6813      	ldr	r3, [r2, #0]
2000011e:	2b00      	cmp	r3, #0
20000120:	d0fc      	beq.n	2000011c <mutex_enter_blocking+0x12>
20000122:	f3bf 8f5f 	dmb	sy
20000126:	2304      	movs	r3, #4
20000128:	56c3      	ldrsb	r3, [r0, r3]
2000012a:	2b00      	cmp	r3, #0
2000012c:	db08      	blt.n	20000140 <mutex_enter_blocking+0x36>
2000012e:	6803      	ldr	r3, [r0, #0]
20000130:	f3bf 8f5f 	dmb	sy
20000134:	2200      	movs	r2, #0
20000136:	601a      	str	r2, [r3, #0]
20000138:	f381 8810 	msr	PRIMASK, r1
2000013c:	bf20      	wfe
2000013e:	e7e9      	b.n	20000114 <mutex_enter_blocking+0xa>
20000140:	7104      	strb	r4, [r0, #4]
20000142:	6803      	ldr	r3, [r0, #0]
20000144:	f3bf 8f5f 	dmb	sy
20000148:	2200      	movs	r2, #0
2000014a:	601a      	str	r2, [r3, #0]
2000014c:	f381 8810 	msr	PRIMASK, r1
20000150:	bd10      	pop	{r4, pc}

20000152 <mutex_try_enter>:
20000152:	0003      	movs	r3, r0
20000154:	6800      	ldr	r0, [r0, #0]
20000156:	f3ef 8c10 	mrs	ip, PRIMASK
2000015a:	b672      	cpsid	i
2000015c:	6802      	ldr	r2, [r0, #0]
2000015e:	2a00      	cmp	r2, #0
20000160:	d0fc      	beq.n	2000015c <mutex_try_enter+0xa>
20000162:	f3bf 8f5f 	dmb	sy
20000166:	2204      	movs	r2, #4
20000168:	569a      	ldrsb	r2, [r3, r2]
2000016a:	2a00      	cmp	r2, #0
2000016c:	db0b      	blt.n	20000186 <mutex_try_enter+0x34>
2000016e:	2900      	cmp	r1, #0
20000170:	d010      	beq.n	20000194 <mutex_try_enter+0x42>
20000172:	600a      	str	r2, [r1, #0]
20000174:	2000      	movs	r0, #0
20000176:	681b      	ldr	r3, [r3, #0]
20000178:	f3bf 8f5f 	dmb	sy
2000017c:	2200      	movs	r2, #0
2000017e:	601a      	str	r2, [r3, #0]
20000180:	f38c 8810 	msr	PRIMASK, ip
20000184:	4770      	bx	lr
20000186:	22d0      	movs	r2, #208	; 0xd0
20000188:	0612      	lsls	r2, r2, #24
2000018a:	7812      	ldrb	r2, [r2, #0]
2000018c:	b252      	sxtb	r2, r2
2000018e:	711a      	strb	r2, [r3, #4]
20000190:	2001      	movs	r0, #1
20000192:	e7f0      	b.n	20000176 <mutex_try_enter+0x24>
20000194:	2000      	movs	r0, #0
20000196:	e7ee      	b.n	20000176 <mutex_try_enter+0x24>

20000198 <mutex_exit>:
20000198:	b510      	push	{r4, lr}
2000019a:	6802      	ldr	r2, [r0, #0]
2000019c:	f3ef 8110 	mrs	r1, PRIMASK
200001a0:	b672      	cpsid	i
200001a2:	6813      	ldr	r3, [r2, #0]
200001a4:	2b00      	cmp	r3, #0
200001a6:	d0fc      	beq.n	200001a2 <mutex_exit+0xa>
200001a8:	f3bf 8f5f 	dmb	sy
200001ac:	2304      	movs	r3, #4
200001ae:	56c3      	ldrsb	r3, [r0, r3]
200001b0:	2b00      	cmp	r3, #0
200001b2:	db0a      	blt.n	200001ca <mutex_exit+0x32>
200001b4:	23ff      	movs	r3, #255	; 0xff
200001b6:	7103      	strb	r3, [r0, #4]
200001b8:	6803      	ldr	r3, [r0, #0]
200001ba:	f3bf 8f5f 	dmb	sy
200001be:	2200      	movs	r2, #0
200001c0:	601a      	str	r2, [r3, #0]
200001c2:	f381 8810 	msr	PRIMASK, r1
200001c6:	bf40      	sev
200001c8:	bd10      	pop	{r4, pc}
200001ca:	4b03      	ldr	r3, [pc, #12]	; (200001d8 <mutex_exit+0x40>)
200001cc:	4a03      	ldr	r2, [pc, #12]	; (200001dc <mutex_exit+0x44>)
200001ce:	21a9      	movs	r1, #169	; 0xa9
200001d0:	4803      	ldr	r0, [pc, #12]	; (200001e0 <mutex_exit+0x48>)
200001d2:	f000 f8a9 	bl	20000328 <____assert_func_veneer>
200001d6:	46c0      	nop			; (mov r8, r8)
200001d8:	1000a2f0 	.word	0x1000a2f0
200001dc:	1000a328 	.word	0x1000a328
200001e0:	1000a2a4 	.word	0x1000a2a4

200001e4 <flash_init_boot2_copyout>:
200001e4:	4b09      	ldr	r3, [pc, #36]	; (2000020c <flash_init_boot2_copyout+0x28>)
200001e6:	781b      	ldrb	r3, [r3, #0]
200001e8:	2b00      	cmp	r3, #0
200001ea:	d008      	beq.n	200001fe <flash_init_boot2_copyout+0x1a>
200001ec:	e00c      	b.n	20000208 <flash_init_boot2_copyout+0x24>
200001ee:	009a      	lsls	r2, r3, #2
200001f0:	2180      	movs	r1, #128	; 0x80
200001f2:	0549      	lsls	r1, r1, #21
200001f4:	1851      	adds	r1, r2, r1
200001f6:	6808      	ldr	r0, [r1, #0]
200001f8:	4905      	ldr	r1, [pc, #20]	; (20000210 <flash_init_boot2_copyout+0x2c>)
200001fa:	5050      	str	r0, [r2, r1]
200001fc:	3301      	adds	r3, #1
200001fe:	2b3f      	cmp	r3, #63	; 0x3f
20000200:	ddf5      	ble.n	200001ee <flash_init_boot2_copyout+0xa>
20000202:	4b02      	ldr	r3, [pc, #8]	; (2000020c <flash_init_boot2_copyout+0x28>)
20000204:	2201      	movs	r2, #1
20000206:	701a      	strb	r2, [r3, #0]
20000208:	4770      	bx	lr
2000020a:	46c0      	nop			; (mov r8, r8)
2000020c:	20002b78 	.word	0x20002b78
20000210:	20002780 	.word	0x20002780

20000214 <flash_enable_xip_via_boot2>:
20000214:	b510      	push	{r4, lr}
20000216:	4b02      	ldr	r3, [pc, #8]	; (20000220 <flash_enable_xip_via_boot2+0xc>)
20000218:	3301      	adds	r3, #1
2000021a:	4798      	blx	r3
2000021c:	bd10      	pop	{r4, pc}
2000021e:	46c0      	nop			; (mov r8, r8)
20000220:	20002780 	.word	0x20002780

20000224 <flash_cs_force>:
20000224:	2800      	cmp	r0, #0
20000226:	d00a      	beq.n	2000023e <flash_cs_force+0x1a>
20000228:	2303      	movs	r3, #3
2000022a:	021b      	lsls	r3, r3, #8
2000022c:	4a05      	ldr	r2, [pc, #20]	; (20000244 <flash_cs_force+0x20>)
2000022e:	6812      	ldr	r2, [r2, #0]
20000230:	4053      	eors	r3, r2
20000232:	22c0      	movs	r2, #192	; 0xc0
20000234:	0092      	lsls	r2, r2, #2
20000236:	4013      	ands	r3, r2
20000238:	4a03      	ldr	r2, [pc, #12]	; (20000248 <flash_cs_force+0x24>)
2000023a:	6013      	str	r3, [r2, #0]
2000023c:	4770      	bx	lr
2000023e:	2302      	movs	r3, #2
20000240:	e7f3      	b.n	2000022a <flash_cs_force+0x6>
20000242:	46c0      	nop			; (mov r8, r8)
20000244:	4001800c 	.word	0x4001800c
20000248:	4001900c 	.word	0x4001900c

2000024c <flash_do_cmd>:
2000024c:	b5f0      	push	{r4, r5, r6, r7, lr}
2000024e:	46d6      	mov	lr, sl
20000250:	464f      	mov	r7, r9
20000252:	4646      	mov	r6, r8
20000254:	b5c0      	push	{r6, r7, lr}
20000256:	0007      	movs	r7, r0
20000258:	000e      	movs	r6, r1
2000025a:	0015      	movs	r5, r2
2000025c:	2318      	movs	r3, #24
2000025e:	469a      	mov	sl, r3
20000260:	881b      	ldrh	r3, [r3, #0]
20000262:	2214      	movs	r2, #20
20000264:	4690      	mov	r8, r2
20000266:	8810      	ldrh	r0, [r2, #0]
20000268:	4928      	ldr	r1, [pc, #160]	; (2000030c <flash_do_cmd+0xc0>)
2000026a:	4798      	blx	r3
2000026c:	4681      	mov	r9, r0
2000026e:	4653      	mov	r3, sl
20000270:	881b      	ldrh	r3, [r3, #0]
20000272:	4642      	mov	r2, r8
20000274:	8810      	ldrh	r0, [r2, #0]
20000276:	4926      	ldr	r1, [pc, #152]	; (20000310 <flash_do_cmd+0xc4>)
20000278:	4798      	blx	r3
2000027a:	0004      	movs	r4, r0
2000027c:	4653      	mov	r3, sl
2000027e:	881b      	ldrh	r3, [r3, #0]
20000280:	4642      	mov	r2, r8
20000282:	8810      	ldrh	r0, [r2, #0]
20000284:	4923      	ldr	r1, [pc, #140]	; (20000314 <flash_do_cmd+0xc8>)
20000286:	4798      	blx	r3
20000288:	4680      	mov	r8, r0
2000028a:	464b      	mov	r3, r9
2000028c:	2b00      	cmp	r3, #0
2000028e:	d00c      	beq.n	200002aa <flash_do_cmd+0x5e>
20000290:	2c00      	cmp	r4, #0
20000292:	d00a      	beq.n	200002aa <flash_do_cmd+0x5e>
20000294:	2800      	cmp	r0, #0
20000296:	d008      	beq.n	200002aa <flash_do_cmd+0x5e>
20000298:	f7ff ffa4 	bl	200001e4 <flash_init_boot2_copyout>
2000029c:	47c8      	blx	r9
2000029e:	47a0      	blx	r4
200002a0:	2000      	movs	r0, #0
200002a2:	f7ff ffbf 	bl	20000224 <flash_cs_force>
200002a6:	002a      	movs	r2, r5
200002a8:	e00f      	b.n	200002ca <flash_do_cmd+0x7e>
200002aa:	4b1b      	ldr	r3, [pc, #108]	; (20000318 <flash_do_cmd+0xcc>)
200002ac:	4a1b      	ldr	r2, [pc, #108]	; (2000031c <flash_do_cmd+0xd0>)
200002ae:	2180      	movs	r1, #128	; 0x80
200002b0:	481b      	ldr	r0, [pc, #108]	; (20000320 <flash_do_cmd+0xd4>)
200002b2:	f000 f839 	bl	20000328 <____assert_func_veneer>
200002b6:	2b00      	cmp	r3, #0
200002b8:	d007      	beq.n	200002ca <flash_do_cmd+0x7e>
200002ba:	2a00      	cmp	r2, #0
200002bc:	d005      	beq.n	200002ca <flash_do_cmd+0x7e>
200002be:	23c0      	movs	r3, #192	; 0xc0
200002c0:	055b      	lsls	r3, r3, #21
200002c2:	6e1b      	ldr	r3, [r3, #96]	; 0x60
200002c4:	7033      	strb	r3, [r6, #0]
200002c6:	3a01      	subs	r2, #1
200002c8:	3601      	adds	r6, #1
200002ca:	002b      	movs	r3, r5
200002cc:	4313      	orrs	r3, r2
200002ce:	d012      	beq.n	200002f6 <flash_do_cmd+0xaa>
200002d0:	23c0      	movs	r3, #192	; 0xc0
200002d2:	055b      	lsls	r3, r3, #21
200002d4:	6a9c      	ldr	r4, [r3, #40]	; 0x28
200002d6:	2308      	movs	r3, #8
200002d8:	4023      	ands	r3, r4
200002da:	07a1      	lsls	r1, r4, #30
200002dc:	d5eb      	bpl.n	200002b6 <flash_do_cmd+0x6a>
200002de:	2d00      	cmp	r5, #0
200002e0:	d0e9      	beq.n	200002b6 <flash_do_cmd+0x6a>
200002e2:	1b51      	subs	r1, r2, r5
200002e4:	290d      	cmp	r1, #13
200002e6:	d8e6      	bhi.n	200002b6 <flash_do_cmd+0x6a>
200002e8:	7838      	ldrb	r0, [r7, #0]
200002ea:	21c0      	movs	r1, #192	; 0xc0
200002ec:	0549      	lsls	r1, r1, #21
200002ee:	6608      	str	r0, [r1, #96]	; 0x60
200002f0:	3d01      	subs	r5, #1
200002f2:	3701      	adds	r7, #1
200002f4:	e7df      	b.n	200002b6 <flash_do_cmd+0x6a>
200002f6:	2001      	movs	r0, #1
200002f8:	f7ff ff94 	bl	20000224 <flash_cs_force>
200002fc:	47c0      	blx	r8
200002fe:	f7ff ff89 	bl	20000214 <flash_enable_xip_via_boot2>
20000302:	bce0      	pop	{r5, r6, r7}
20000304:	46ba      	mov	sl, r7
20000306:	46b1      	mov	r9, r6
20000308:	46a8      	mov	r8, r5
2000030a:	bdf0      	pop	{r4, r5, r6, r7, pc}
2000030c:	00004649 	.word	0x00004649
20000310:	00005845 	.word	0x00005845
20000314:	00004346 	.word	0x00004346
20000318:	1000ab80 	.word	0x1000ab80
2000031c:	1000abc0 	.word	0x1000abc0
20000320:	1000aa94 	.word	0x1000aa94

20000324 <__aeabi_idiv0>:
20000324:	4770      	bx	lr
20000326:	46c0      	nop			; (mov r8, r8)

20000328 <____assert_func_veneer>:
20000328:	b401      	push	{r0}
2000032a:	4802      	ldr	r0, [pc, #8]	; (20000334 <____assert_func_veneer+0xc>)
2000032c:	4684      	mov	ip, r0
2000032e:	bc01      	pop	{r0}
20000330:	4760      	bx	ip
20000332:	bf00      	nop
20000334:	10006981 	.word	0x10006981

20000338 <AverageLightLevel>:
20000338:	000001f4 00000000                       ........

20000340 <CharMap>:
20000340:	1111000e 020d1311 1f110e04 00000e10     ................
20000350:	00000000 10101000 10001010 00181818     ................
20000360:	0a000000 1f0a1f0a 0f040a0a 1e050e14     ................
20000370:	02191804 03130804 0814120c 0c0d1215     ................
20000380:	00000804 08040000 08101010 04081004     ................
20000390:	10080404 0e150400 00000415 041f0404     ................
200003a0:	00000004 08180000 00000010 0000001f     ................
200003b0:	00000000 00181800 08040201 110e0010     ................
200003c0:	11191513 0818080e 1c080808 0601110e     ................
200003d0:	0e1f1008 01060111 06020e11 021f120a     ................
200003e0:	1e101f02 0e110101 1e100806 1f0e1111     ................
200003f0:	08040201 110e0808 11110e11 11110e0e     ................
20000400:	0c02010f 00101000 00001010 18001818     ................
20000410:	04021008 04081008 1f000002 00001f00     ................
20000420:	02040810 0e100804 04020111 110e0400     ................
20000430:	15150d01 110e040e 11111f11 1e11111e     ................
20000440:	0e1e1111 10101011 091e0e11 09090909     ................
20000450:	10101f1e 1f10101c 1c10101f 0e101010     ................
20000460:	13101011 11110e11 11111f11 08081c11     ................
20000470:	1c080808 0202020f 110c1202 14181412     ................
20000480:	10101112 10101010 1b1b111e 11111515     ................
20000490:	15191111 0e111113 11111111 111e0e11     ................
200004a0:	10101e11 11110e10 0d121511 1e11111e     ................
200004b0:	0e111214 010e1011 041f0e11 04040404     ................
200004c0:	11111104 0e111111 11111111 11040a0a     ................
200004d0:	15151111 1111111b 110a040a 11111111     ................
200004e0:	0404040a 0402011f 1c1f1008 10101010     ................
200004f0:	10001c10 01020408 04041c00 1c040404     ................
20000500:	00110a04 00000000 00000000 08041f00     ................
20000510:	00000010 0e000000 0f110f01 19161010     ................
20000520:	000e1111 10100e00 01010e10 1111130d     ................
20000530:	0e00000e 0e101f11 1c080906 00080808     ................
20000540:	0f110f00 10100e01 11111916 08000811     ................
20000550:	1c080818 02060002 100c1202 18141210     ................
20000560:	08181214 08080808 1a00001c 15151515     ................
20000570:	19160000 00111111 11110e00 00000e11     ................
20000580:	101e111e 0d000010 01010f13 19160000     ................
20000590:	00101010 0e100e00 08081e01 0908081c     ................
200005a0:	11000006 0d131111 11110000 00040a11     ................
200005b0:	15111100 00000a15 0a040a11 11000011     ................
200005c0:	0e010f11 021f0000 041f0804 08100808     ................
200005d0:	10100408 10101010 08081010 10080804     ................
200005e0:	00050a14 05000000 0000140a 06100000     ................
200005f0:	09080809 080f1006 0808080f              ............

200005fc <CharWidth>:
200005fc:	01030505 05050502 03030305 05020505     ................
2000060c:	03050502 05050505 05050505 05040201     ................
2000061c:	05050504 05050505 03050505 05040505     ................
2000062c:	05050505 05050505 05050505 03050305     ................
2000063c:	05030505 05050405 03050505 05030404     ................
2000064c:	05050505 05050505 05050505 03010305     ................
2000065c:	05050505                                ....

20000660 <ChimeTimeOff>:
20000660:	                                         .

20000661 <ChimeTimeOffDisplay>:
20000661:	                                         .

20000662 <ChimeTimeOn>:
20000662:	                                         .

20000663 <ChimeTimeOnDisplay>:
20000663:	                                         .

20000664 <CurrentYearCentile>:
20000664:	00000014                                ....

20000668 <DayName>:
	...
200006c0:	6f4d0000 7961646e 00000000 73657554     ..Monday....Tues
200006d0:	00796164 65570000 73656e64 00796164     day...Wednesday.
200006e0:	72756854 79616473 72460000 79616469     Thursday..Friday
200006f0:	00000000 75746153 79616472 75530000     ....Saturday..Su
20000700:	7961646e 00000000 00000000 00000000     nday............
20000710:	754c0000 0069646e 00000000 6472614d     ..Lundi.....Mard
20000720:	00000069 654d0000 65726372 00006964     i.....Mercredi..
20000730:	6475654a 00000069 65560000 6572646e     Jeudi.....Vendre
20000740:	00006964 656d6153 00006964 69440000     di..Samedi....Di
20000750:	636e616d 00006568                       manche..

20000758 <FlagAutoBrightness>:
20000758:	000000ff                                ....

2000075c <FlagFlashing>:
2000075c:	ffffffff ffffffff ffffffff ffffffff     ................
2000076c:	ffffffff                                ....

20000770 <FlagScrollEnable>:
20000770:	                                         .

20000771 <Language>:
20000771:	                                         ...

20000774 <LightLevel.4>:
20000774:	02260226 02260226 02260226 02260226     &.&.&.&.&.&.&.&.
20000784:	02260226 02260226                       &.&.&.&.

2000078c <MonthDays>:
2000078c:	1e1f1d1f 1f1f1e1f 1f1e1f1e 1e1f1c1f     ................
2000079c:	1f1f1e1f 1f1e1f1e                       ........

200007a4 <MonthName>:
	...
20000830:	756e614a 00797261 65460000 61757262     January...Februa
20000840:	00007972 6372614d 00000068 70410000     ry..March.....Ap
20000850:	006c6972 00000000 0079614d 00000000     ril.....May.....
20000860:	754a0000 0000656e 00000000 796c754a     ..June......July
20000870:	00000000 75410000 74737567 00000000     ......August....
20000880:	74706553 65626d65 634f0072 65626f74     September.Octobe
20000890:	00000072 65766f4e 7265626d 65440000     r...November..De
200008a0:	626d6563 00007265 00000000 00000000     cember..........
200008b0:	614a0000 6569766e 00000072 72766546     ..Janvier...Fevr
200008c0:	00726569 614d0000 00007372 00000000     ier...Mars......
200008d0:	69727641 0000006c 614d0000 00000069     Avril.....Mai...
200008e0:	00000000 6e69754a 00000000 754a0000     ....Juin......Ju
200008f0:	656c6c69 00000074 74756f41 00000000     illet...Aout....
20000900:	65530000 6d657470 00657262 6f74634f     ..Septembre.Octo
20000910:	00657262 6f4e0000 626d6576 00006572     bre...Novembre..
20000920:	65636544 6572626d                        Decembre..

2000092a <NightLightTimeOff>:
2000092a:	                                         .

2000092b <NightLightTimeOn>:
2000092b:	                                         .

2000092c <SETUP_AUTO_BRIGHT>:
2000092c:	                                         .

2000092d <SETUP_CHIME_TIME_OFF>:
2000092d:	                                         .

2000092e <SETUP_CHIME_TIME_ON>:
2000092e:	                                         .

2000092f <SETUP_DAY_OF_MONTH>:
2000092f:	                                         .

20000930 <SETUP_DST>:
20000930:	                                         .

20000931 <SETUP_HOUR>:
20000931:	                                         .

20000932 <SETUP_HOURLY_CHIME>:
20000932:	                                         .

20000933 <SETUP_KEYCLICK>:
20000933:	                                         .

20000934 <SETUP_LANGUAGE>:
20000934:	                                         .

20000935 <SETUP_MINUTE>:
20000935:	                                         .

20000936 <SETUP_MONTH>:
20000936:	                                         .

20000937 <SETUP_NIGHT_LIGHT>:
20000937:	                                         .

20000938 <SETUP_NIGHT_LIGHT_TIME_OFF>:
20000938:	                                         .

20000939 <SETUP_NIGHT_LIGHT_TIME_ON>:
20000939:	                                         .

2000093a <SETUP_SCROLLING>:
2000093a:	                                         .

2000093b <SETUP_TEMP_UNIT>:
2000093b:	                                         .

2000093c <SETUP_TIME_FORMAT>:
2000093c:	                                         .

2000093d <SETUP_YEAR>:
2000093d:	                                         ...

20000940 <ShortMonth>:
	...
20000978:	004e414a 00424546 0052414d 00525041     JAN.FEB.MAR.APR.
20000988:	0059414d 004e554a 004c554a 00475541     MAY.JUN.JUL.AUG.
20000998:	00504553 0054434f 00564f4e 00434544     SEP.OCT.NOV.DEC.
200009a8:	00000000 004e414a 00564546 0052414d     ....JAN.FEV.MAR.
200009b8:	00525641 0049414d 004e554a 004c554a     AVR.MAI.JUN.JUL.
200009c8:	00554f41 00504553 0054434f 00564f4e     AOU.SEP.OCT.NOV.
200009d8:	00434544                                DEC.

200009dc <TimeDisplayMode>:
200009dc:	000000ff                                ....

200009e0 <REG_ADDRESSES>:
200009e0:	03020100 07060504 0b0a0908 110e0d0c     ................
200009f0:	                                         .

200009f1 <striped_spin_lock_num>:
200009f1:	                                         ...

200009f4 <irq_handler_chain_slots>:
200009f4:	00000000 	.word	0x00000000
200009f8:	00010000 	.word	0x00010000
	...
20000a04:	00020000 	.word	0x00020000
	...
20000a10:	00030000 	.word	0x00030000
	...
20000a1c:	00ff0000 	.word	0x00ff0000
20000a20:	00000000 	.word	0x00000000

20000a24 <irq_handler_chain_first_slot>:
20000a24:	b500      	push	{lr}
20000a26:	6848      	ldr	r0, [r1, #4]
20000a28:	3101      	adds	r1, #1
20000a2a:	468e      	mov	lr, r1
20000a2c:	4700      	bx	r0

20000a2e <irq_handler_chain_remove_tail>:
20000a2e:	4670      	mov	r0, lr
20000a30:	3809      	subs	r0, #9
20000a32:	4901      	ldr	r1, [pc, #4]	; (20000a38 <irq_handler_chain_remove_tail+0xa>)
20000a34:	4788      	blx	r1
20000a36:	bd00      	pop	{pc}
20000a38:	100054b1 	.word	0x100054b1

20000a3c <default_alarm_pool>:
20000a3c:	20000a54 00000000 20000f28 200028a8     T.. ....(.. .(. 
	...

20000a54 <default_alarm_pool_heap>:
20000a54:	200028b8 00000000 00000000 00000010     .(. ............
	...

20000a70 <aeabi_bits_funcs>:
20000a70:	00003350 	.word	0x00003350
20000a74:	0000334c 	.word	0x0000334c
20000a78:	00003354 	.word	0x00003354
20000a7c:	00003352 	.word	0x00003352

20000a80 <aeabi_bits_funcs_end>:
20000a80:	0000534d 	.word	0x0000534d
20000a84:	0000434d 	.word	0x0000434d
20000a88:	00003453 	.word	0x00003453
20000a8c:	00003443 	.word	0x00003443

20000a90 <stdio_uart>:
20000a90:	10008c1d 00000000 10008c91 00000000     ................
20000aa0:	00000100                                ....

20000aa4 <i2c0_inst>:
20000aa4:	40044000 00000000                       .@.@....

20000aac <i2c1_inst>:
20000aac:	40048000 00000000                       ...@....

20000ab4 <_impure_ptr>:
20000ab4:	20000ab8                                ... 

20000ab8 <impure_data>:
20000ab8:	00000000 20000da4 20000e0c 20000e74     ....... ... t.. 
	...
20000b60:	00000001 00000000 abcd330e e66d1234     .........3..4.m.
20000b70:	0005deec 0000000b 00000000 00000000     ................
	...

20000ee0 <print_mutex>:
	...

20000ee8 <__mutex_array_end>:
20000ee8:	10008959 	.word	0x10008959
20000eec:	10007fdd 	.word	0x10007fdd
20000ef0:	100086e1 	.word	0x100086e1
20000ef4:	100088d1 	.word	0x100088d1

20000ef8 <__frame_dummy_init_array_entry>:
20000ef8:	100002ed 10009121                       ....!...
